SF:/home/strandgate/Development/ecoPrimals/phase2/sweetGrass/crates/sweet-grass-compression/src/analyzer.rs
FN:182,_RNvMNtCsbY6LdEOIC22_23sweet_grass_compression8analyzerNtB2_15SessionAnalyzer14plan_hierarchy
FN:112,_RNvMNtCsbY6LdEOIC22_23sweet_grass_compression8analyzerNtB2_15SessionAnalyzer15select_strategy
FN:202,_RNvMNtCsbY6LdEOIC22_23sweet_grass_compression8analyzerNtB2_15SessionAnalyzer17identify_branches
FN:166,_RNvMNtCsbY6LdEOIC22_23sweet_grass_compression8analyzerNtB2_15SessionAnalyzer17measure_coherence
FN:63,_RNvMNtCsbY6LdEOIC22_23sweet_grass_compression8analyzerNtB2_15SessionAnalyzer3new
FN:68,_RNvMNtCsbY6LdEOIC22_23sweet_grass_compression8analyzerNtB2_15SessionAnalyzer7analyze
FN:218,_RNvXs_NtCsbY6LdEOIC22_23sweet_grass_compression8analyzerNtB4_15SessionAnalyzerNtNtCs9sjCchOt1K7_4core7default7Default7default
FN:229,_RNvNtNtCslQATw0AokWy_23sweet_grass_compression8analyzer5tests11make_vertex
FN:340,_RNvNtNtCslQATw0AokWy_23sweet_grass_compression8analyzer5testss_19test_ephemeral_hint
FN:327,_RNvNtNtCslQATw0AokWy_23sweet_grass_compression8analyzer5testss_20test_single_strategy
FN:356,_RNvNtNtCslQATw0AokWy_23sweet_grass_compression8analyzer5testss_22test_identify_branches
FN:259,_RNvNtNtCslQATw0AokWy_23sweet_grass_compression8analyzer5testss_23test_branching_analysis
FN:298,_RNvNtNtCslQATw0AokWy_23sweet_grass_compression8analyzer5testss_27test_discard_strategy_empty
FN:234,_RNvNtNtCslQATw0AokWy_23sweet_grass_compression8analyzer5testss_27test_empty_session_analysis
FN:245,_RNvNtNtCslQATw0AokWy_23sweet_grass_compression8analyzer5testss_27test_single_vertex_analysis
FN:282,_RNvNtNtCslQATw0AokWy_23sweet_grass_compression8analyzer5testss_30test_discard_strategy_rollback
FN:312,_RNvNtNtCslQATw0AokWy_23sweet_grass_compression8analyzer5testss_33test_discard_strategy_exploratory
FN:182,_RNvMNtCslQATw0AokWy_23sweet_grass_compression8analyzerNtB2_15SessionAnalyzer14plan_hierarchy
FN:112,_RNvMNtCslQATw0AokWy_23sweet_grass_compression8analyzerNtB2_15SessionAnalyzer15select_strategy
FN:202,_RNvMNtCslQATw0AokWy_23sweet_grass_compression8analyzerNtB2_15SessionAnalyzer17identify_branches
FN:166,_RNvMNtCslQATw0AokWy_23sweet_grass_compression8analyzerNtB2_15SessionAnalyzer17measure_coherence
FN:63,_RNvMNtCslQATw0AokWy_23sweet_grass_compression8analyzerNtB2_15SessionAnalyzer3new
FN:68,_RNvMNtCslQATw0AokWy_23sweet_grass_compression8analyzerNtB2_15SessionAnalyzer7analyze
FN:218,_RNvXs_NtCslQATw0AokWy_23sweet_grass_compression8analyzerNtB4_15SessionAnalyzerNtNtCs9sjCchOt1K7_4core7default7Default7default
FNDA:0,_RNvMNtCsbY6LdEOIC22_23sweet_grass_compression8analyzerNtB2_15SessionAnalyzer14plan_hierarchy
FNDA:9,_RNvMNtCsbY6LdEOIC22_23sweet_grass_compression8analyzerNtB2_15SessionAnalyzer15select_strategy
FNDA:0,_RNvMNtCsbY6LdEOIC22_23sweet_grass_compression8analyzerNtB2_15SessionAnalyzer17identify_branches
FNDA:9,_RNvMNtCsbY6LdEOIC22_23sweet_grass_compression8analyzerNtB2_15SessionAnalyzer17measure_coherence
FNDA:80,_RNvMNtCsbY6LdEOIC22_23sweet_grass_compression8analyzerNtB2_15SessionAnalyzer3new
FNDA:9,_RNvMNtCsbY6LdEOIC22_23sweet_grass_compression8analyzerNtB2_15SessionAnalyzer7analyze
FNDA:0,_RNvXs_NtCsbY6LdEOIC22_23sweet_grass_compression8analyzerNtB4_15SessionAnalyzerNtNtCs9sjCchOt1K7_4core7default7Default7default
FNDA:12,_RNvNtNtCslQATw0AokWy_23sweet_grass_compression8analyzer5tests11make_vertex
FNDA:1,_RNvNtNtCslQATw0AokWy_23sweet_grass_compression8analyzer5testss_19test_ephemeral_hint
FNDA:1,_RNvNtNtCslQATw0AokWy_23sweet_grass_compression8analyzer5testss_20test_single_strategy
FNDA:1,_RNvNtNtCslQATw0AokWy_23sweet_grass_compression8analyzer5testss_22test_identify_branches
FNDA:1,_RNvNtNtCslQATw0AokWy_23sweet_grass_compression8analyzer5testss_23test_branching_analysis
FNDA:1,_RNvNtNtCslQATw0AokWy_23sweet_grass_compression8analyzer5testss_27test_discard_strategy_empty
FNDA:1,_RNvNtNtCslQATw0AokWy_23sweet_grass_compression8analyzer5testss_27test_empty_session_analysis
FNDA:1,_RNvNtNtCslQATw0AokWy_23sweet_grass_compression8analyzer5testss_27test_single_vertex_analysis
FNDA:1,_RNvNtNtCslQATw0AokWy_23sweet_grass_compression8analyzer5testss_30test_discard_strategy_rollback
FNDA:1,_RNvNtNtCslQATw0AokWy_23sweet_grass_compression8analyzer5testss_33test_discard_strategy_exploratory
FNDA:0,_RNvMNtCslQATw0AokWy_23sweet_grass_compression8analyzerNtB2_15SessionAnalyzer14plan_hierarchy
FNDA:14,_RNvMNtCslQATw0AokWy_23sweet_grass_compression8analyzerNtB2_15SessionAnalyzer15select_strategy
FNDA:1,_RNvMNtCslQATw0AokWy_23sweet_grass_compression8analyzerNtB2_15SessionAnalyzer17identify_branches
FNDA:17,_RNvMNtCslQATw0AokWy_23sweet_grass_compression8analyzerNtB2_15SessionAnalyzer17measure_coherence
FNDA:22,_RNvMNtCslQATw0AokWy_23sweet_grass_compression8analyzerNtB2_15SessionAnalyzer3new
FNDA:17,_RNvMNtCslQATw0AokWy_23sweet_grass_compression8analyzerNtB2_15SessionAnalyzer7analyze
FNDA:9,_RNvXs_NtCslQATw0AokWy_23sweet_grass_compression8analyzerNtB4_15SessionAnalyzerNtNtCs9sjCchOt1K7_4core7default7Default7default
FNF:17
FNH:16
DA:63,102
DA:64,102
DA:65,102
DA:68,26
DA:69,26
DA:70,26
DA:71,26
DA:74,26
DA:75,24
DA:79,2
DA:84,26
DA:85,26
DA:86,26
DA:87,26
DA:88,60
DA:89,34
DA:90,34
DA:91,34
DA:92,34
DA:94,26
DA:95,26
DA:96,26
DA:97,26
DA:98,26
DA:99,26
DA:100,26
DA:101,26
DA:102,26
DA:103,26
DA:104,26
DA:105,26
DA:106,26
DA:107,26
DA:108,26
DA:112,23
DA:113,23
DA:114,23
DA:115,23
DA:117,1
DA:120,0
DA:121,0
DA:122,0
DA:124,22
DA:126,0
DA:129,22
DA:130,4
DA:131,18
DA:132,18
DA:133,18
DA:134,5
DA:135,13
DA:136,13
DA:137,13
DA:138,2
DA:139,11
DA:140,11
DA:141,11
DA:142,11
DA:143,10
DA:144,10
DA:146,10
DA:147,1
DA:148,1
DA:149,1
DA:150,1
DA:152,0
DA:153,1
DA:154,1
DA:155,1
DA:156,1
DA:157,0
DA:158,0
DA:159,1
DA:160,1
DA:161,1
DA:162,1
DA:163,23
DA:166,26
DA:167,26
DA:168,26
DA:169,26
DA:170,24
DA:171,2
DA:172,2
DA:173,2
DA:174,2
DA:175,2
DA:176,2
DA:177,2
DA:178,2
DA:179,26
DA:182,0
DA:183,0
DA:184,0
DA:185,0
DA:186,0
DA:187,0
DA:188,0
DA:189,0
DA:190,0
DA:191,0
DA:192,0
DA:193,0
DA:194,0
DA:195,0
DA:197,0
DA:198,0
DA:202,1
DA:203,1
DA:204,1
DA:207,2
DA:208,2
DA:209,2
DA:210,2
DA:211,2
DA:213,1
DA:214,1
DA:218,9
DA:219,9
DA:220,9
DA:229,12
DA:230,12
DA:231,12
DA:234,1
DA:235,1
DA:236,1
DA:237,1
DA:238,1
DA:239,1
DA:240,1
DA:241,1
DA:242,1
DA:245,1
DA:246,1
DA:247,1
DA:248,1
DA:249,1
DA:250,1
DA:251,1
DA:252,1
DA:253,1
DA:254,1
DA:255,1
DA:256,1
DA:259,1
DA:260,1
DA:261,1
DA:262,1
DA:263,1
DA:264,1
DA:265,1
DA:266,1
DA:267,1
DA:268,1
DA:269,1
DA:270,1
DA:271,1
DA:272,1
DA:273,1
DA:274,1
DA:275,1
DA:276,1
DA:277,1
DA:278,1
DA:279,1
DA:282,1
DA:283,1
DA:284,1
DA:285,1
DA:286,1
DA:287,1
DA:288,1
DA:289,1
DA:291,0
DA:292,1
DA:295,1
DA:298,1
DA:299,1
DA:300,1
DA:301,1
DA:302,1
DA:303,1
DA:305,0
DA:306,1
DA:309,1
DA:312,1
DA:313,1
DA:314,1
DA:315,1
DA:316,1
DA:317,1
DA:318,1
DA:320,0
DA:321,1
DA:324,1
DA:327,1
DA:328,1
DA:329,1
DA:330,1
DA:331,1
DA:332,1
DA:333,1
DA:334,1
DA:336,1
DA:337,1
DA:340,1
DA:341,1
DA:342,1
DA:343,1
DA:344,1
DA:345,1
DA:346,1
DA:347,1
DA:349,0
DA:350,1
DA:353,1
DA:356,1
DA:357,1
DA:358,1
DA:359,1
DA:360,1
DA:361,1
DA:362,1
DA:363,1
DA:364,1
DA:365,1
DA:366,1
DA:367,1
DA:368,1
DA:369,1
DA:370,1
DA:371,1
DA:372,1
DA:373,1
DA:374,1
BRF:0
BRH:0
LF:235
LH:208
end_of_record
SF:/home/strandgate/Development/ecoPrimals/phase2/sweetGrass/crates/sweet-grass-compression/src/engine.rs
FN:71,_RNvMNtCsbY6LdEOIC22_23sweet_grass_compression6engineNtB2_17CompressionResult10has_braids
FN:77,_RNvMNtCsbY6LdEOIC22_23sweet_grass_compression6engineNtB2_17CompressionResult14discard_reason
FN:61,_RNvMNtCsbY6LdEOIC22_23sweet_grass_compression6engineNtB2_17CompressionResult5count
FN:45,_RNvMNtCsbY6LdEOIC22_23sweet_grass_compression6engineNtB2_17CompressionResult6braids
FN:129,_RNvMs_NtCsbY6LdEOIC22_23sweet_grass_compression6engineNtB4_17CompressionEngine11with_config
FN:184,_RNvMs_NtCsbY6LdEOIC22_23sweet_grass_compression6engineNtB4_17CompressionEngine15compress_single
FN:268,_RNvMs_NtCsbY6LdEOIC22_23sweet_grass_compression6engineNtB4_17CompressionEngine17create_meta_braid
FN:100,_RNvMs_NtCsbY6LdEOIC22_23sweet_grass_compression6engineNtB4_17CompressionEngine3new
FN:278,_RNvMs_NtCsbY6LdEOIC22_23sweet_grass_compression6engineNtB4_17CompressionEngine6config
FN:136,_RNvMs_NtCsbY6LdEOIC22_23sweet_grass_compression6engineNtB4_17CompressionEngine8compress
FN:122,_RINvMs_NtCsbY6LdEOIC22_23sweet_grass_compression6engineNtB5_17CompressionEngine11with_sourcepEB7_
FN:189,_RNCNvMs_NtCsbY6LdEOIC22_23sweet_grass_compression6engineNtB6_17CompressionEngine15compress_single0B8_
FN:221,_RNCNvMs_NtCsbY6LdEOIC22_23sweet_grass_compression6engineNtB6_17CompressionEngine15compress_singles_0B8_
FN:269,_RNCNvMs_NtCsbY6LdEOIC22_23sweet_grass_compression6engineNtB6_17CompressionEngine17create_meta_braid0B8_
FN:122,_RINvMs_NtCslQATw0AokWy_23sweet_grass_compression6engineNtB5_17CompressionEngine11with_sourcepEB7_
FN:294,_RNvNtNtCslQATw0AokWy_23sweet_grass_compression6engine5tests11make_vertex
FN:290,_RNvNtNtCslQATw0AokWy_23sweet_grass_compression6engine5tests12make_factory
FN:414,_RNvNtNtCslQATw0AokWy_23sweet_grass_compression6engine5testss_16test_with_config
FN:527,_RNvNtNtCslQATw0AokWy_23sweet_grass_compression6engine5testss_17test_deep_session
FN:346,_RNvNtNtCslQATw0AokWy_23sweet_grass_compression6engine5testss_17test_single_braid
FN:315,_RNvNtNtCslQATw0AokWy_23sweet_grass_compression6engine5testss_23test_rollback_discarded
FN:369,_RNvNtNtCslQATw0AokWy_23sweet_grass_compression6engine5testss_25test_compression_metadata
FN:331,_RNvNtNtCslQATw0AokWy_23sweet_grass_compression6engine5testss_26test_exploratory_discarded
FN:428,_RNvNtNtCslQATw0AokWy_23sweet_grass_compression6engine5testss_27test_multiple_result_braids
FN:401,_RNvNtNtCslQATw0AokWy_23sweet_grass_compression6engine5testss_27test_result_braids_accessor
FN:300,_RNvNtNtCslQATw0AokWy_23sweet_grass_compression6engine5testss_28test_empty_session_discarded
FN:548,_RNvNtNtCslQATw0AokWy_23sweet_grass_compression6engine5testss_31test_session_with_compute_units
FN:466,_RNvNtNtCslQATw0AokWy_23sweet_grass_compression6engine5testss_36test_multiple_result_without_summary
FN:486,_RNvNtNtCslQATw0AokWy_23sweet_grass_compression6engine5testss_40test_branching_session_produces_multiple
FN:71,_RNvMNtCslQATw0AokWy_23sweet_grass_compression6engineNtB2_17CompressionResult10has_braids
FN:77,_RNvMNtCslQATw0AokWy_23sweet_grass_compression6engineNtB2_17CompressionResult14discard_reason
FN:61,_RNvMNtCslQATw0AokWy_23sweet_grass_compression6engineNtB2_17CompressionResult5count
FN:45,_RNvMNtCslQATw0AokWy_23sweet_grass_compression6engineNtB2_17CompressionResult6braids
FN:129,_RNvMs_NtCslQATw0AokWy_23sweet_grass_compression6engineNtB4_17CompressionEngine11with_config
FN:184,_RNvMs_NtCslQATw0AokWy_23sweet_grass_compression6engineNtB4_17CompressionEngine15compress_single
FN:268,_RNvMs_NtCslQATw0AokWy_23sweet_grass_compression6engineNtB4_17CompressionEngine17create_meta_braid
FN:100,_RNvMs_NtCslQATw0AokWy_23sweet_grass_compression6engineNtB4_17CompressionEngine3new
FN:278,_RNvMs_NtCslQATw0AokWy_23sweet_grass_compression6engineNtB4_17CompressionEngine6config
FN:136,_RNvMs_NtCslQATw0AokWy_23sweet_grass_compression6engineNtB4_17CompressionEngine8compress
FN:189,_RNCNvMs_NtCslQATw0AokWy_23sweet_grass_compression6engineNtB6_17CompressionEngine15compress_single0B8_
FN:221,_RNCNvMs_NtCslQATw0AokWy_23sweet_grass_compression6engineNtB6_17CompressionEngine15compress_singles_0B8_
FN:269,_RNCNvMs_NtCslQATw0AokWy_23sweet_grass_compression6engineNtB6_17CompressionEngine17create_meta_braid0B8_
FNDA:4,_RNvMNtCsbY6LdEOIC22_23sweet_grass_compression6engineNtB2_17CompressionResult10has_braids
FNDA:0,_RNvMNtCsbY6LdEOIC22_23sweet_grass_compression6engineNtB2_17CompressionResult14discard_reason
FNDA:2,_RNvMNtCsbY6LdEOIC22_23sweet_grass_compression6engineNtB2_17CompressionResult5count
FNDA:6,_RNvMNtCsbY6LdEOIC22_23sweet_grass_compression6engineNtB2_17CompressionResult6braids
FNDA:0,_RNvMs_NtCsbY6LdEOIC22_23sweet_grass_compression6engineNtB4_17CompressionEngine11with_config
FNDA:4,_RNvMs_NtCsbY6LdEOIC22_23sweet_grass_compression6engineNtB4_17CompressionEngine15compress_single
FNDA:0,_RNvMs_NtCsbY6LdEOIC22_23sweet_grass_compression6engineNtB4_17CompressionEngine17create_meta_braid
FNDA:80,_RNvMs_NtCsbY6LdEOIC22_23sweet_grass_compression6engineNtB4_17CompressionEngine3new
FNDA:0,_RNvMs_NtCsbY6LdEOIC22_23sweet_grass_compression6engineNtB4_17CompressionEngine6config
FNDA:9,_RNvMs_NtCsbY6LdEOIC22_23sweet_grass_compression6engineNtB4_17CompressionEngine8compress
FNDA:0,_RINvMs_NtCsbY6LdEOIC22_23sweet_grass_compression6engineNtB5_17CompressionEngine11with_sourcepEB7_
FNDA:0,_RNCNvMs_NtCsbY6LdEOIC22_23sweet_grass_compression6engineNtB6_17CompressionEngine15compress_single0B8_
FNDA:4,_RNCNvMs_NtCsbY6LdEOIC22_23sweet_grass_compression6engineNtB6_17CompressionEngine15compress_singles_0B8_
FNDA:0,_RNCNvMs_NtCsbY6LdEOIC22_23sweet_grass_compression6engineNtB6_17CompressionEngine17create_meta_braid0B8_
FNDA:0,_RINvMs_NtCslQATw0AokWy_23sweet_grass_compression6engineNtB5_17CompressionEngine11with_sourcepEB7_
FNDA:17,_RNvNtNtCslQATw0AokWy_23sweet_grass_compression6engine5tests11make_vertex
FNDA:10,_RNvNtNtCslQATw0AokWy_23sweet_grass_compression6engine5tests12make_factory
FNDA:1,_RNvNtNtCslQATw0AokWy_23sweet_grass_compression6engine5testss_16test_with_config
FNDA:1,_RNvNtNtCslQATw0AokWy_23sweet_grass_compression6engine5testss_17test_deep_session
FNDA:1,_RNvNtNtCslQATw0AokWy_23sweet_grass_compression6engine5testss_17test_single_braid
FNDA:1,_RNvNtNtCslQATw0AokWy_23sweet_grass_compression6engine5testss_23test_rollback_discarded
FNDA:1,_RNvNtNtCslQATw0AokWy_23sweet_grass_compression6engine5testss_25test_compression_metadata
FNDA:1,_RNvNtNtCslQATw0AokWy_23sweet_grass_compression6engine5testss_26test_exploratory_discarded
FNDA:1,_RNvNtNtCslQATw0AokWy_23sweet_grass_compression6engine5testss_27test_multiple_result_braids
FNDA:1,_RNvNtNtCslQATw0AokWy_23sweet_grass_compression6engine5testss_27test_result_braids_accessor
FNDA:1,_RNvNtNtCslQATw0AokWy_23sweet_grass_compression6engine5testss_28test_empty_session_discarded
FNDA:1,_RNvNtNtCslQATw0AokWy_23sweet_grass_compression6engine5testss_31test_session_with_compute_units
FNDA:1,_RNvNtNtCslQATw0AokWy_23sweet_grass_compression6engine5testss_36test_multiple_result_without_summary
FNDA:1,_RNvNtNtCslQATw0AokWy_23sweet_grass_compression6engine5testss_40test_branching_session_produces_multiple
FNDA:8,_RNvMNtCslQATw0AokWy_23sweet_grass_compression6engineNtB2_17CompressionResult10has_braids
FNDA:4,_RNvMNtCslQATw0AokWy_23sweet_grass_compression6engineNtB2_17CompressionResult14discard_reason
FNDA:4,_RNvMNtCslQATw0AokWy_23sweet_grass_compression6engineNtB2_17CompressionResult5count
FNDA:3,_RNvMNtCslQATw0AokWy_23sweet_grass_compression6engineNtB2_17CompressionResult6braids
FNDA:3,_RNvMs_NtCslQATw0AokWy_23sweet_grass_compression6engineNtB4_17CompressionEngine11with_config
FNDA:6,_RNvMs_NtCslQATw0AokWy_23sweet_grass_compression6engineNtB4_17CompressionEngine15compress_single
FNDA:0,_RNvMs_NtCslQATw0AokWy_23sweet_grass_compression6engineNtB4_17CompressionEngine17create_meta_braid
FNDA:10,_RNvMs_NtCslQATw0AokWy_23sweet_grass_compression6engineNtB4_17CompressionEngine3new
FNDA:2,_RNvMs_NtCslQATw0AokWy_23sweet_grass_compression6engineNtB4_17CompressionEngine6config
FNDA:9,_RNvMs_NtCslQATw0AokWy_23sweet_grass_compression6engineNtB4_17CompressionEngine8compress
FNDA:0,_RNCNvMs_NtCslQATw0AokWy_23sweet_grass_compression6engineNtB6_17CompressionEngine15compress_single0B8_
FNDA:6,_RNCNvMs_NtCslQATw0AokWy_23sweet_grass_compression6engineNtB6_17CompressionEngine15compress_singles_0B8_
FNDA:0,_RNCNvMs_NtCslQATw0AokWy_23sweet_grass_compression6engineNtB6_17CompressionEngine17create_meta_braid0B8_
FNF:28
FNH:24
DA:45,9
DA:46,9
DA:47,3
DA:48,4
DA:49,2
DA:50,2
DA:51,2
DA:52,1
DA:53,1
DA:54,2
DA:57,9
DA:61,6
DA:62,6
DA:63,2
DA:64,2
DA:65,2
DA:67,6
DA:71,12
DA:72,12
DA:73,12
DA:77,4
DA:78,4
DA:79,3
DA:80,1
DA:82,4
DA:100,90
DA:101,90
DA:102,90
DA:103,90
DA:104,90
DA:105,90
DA:106,90
DA:107,90
DA:108,90
DA:122,0
DA:123,0
DA:124,0
DA:125,0
DA:129,3
DA:130,3
DA:131,3
DA:132,3
DA:133,3
DA:136,18
DA:138,18
DA:141,18
DA:142,18
DA:143,18
DA:144,18
DA:145,8
DA:148,10
DA:149,10
DA:152,0
DA:155,0
DA:156,0
DA:157,0
DA:159,0
DA:161,0
DA:162,0
DA:163,0
DA:164,0
DA:167,0
DA:169,0
DA:170,0
DA:171,0
DA:173,0
DA:175,0
DA:176,0
DA:177,0
DA:178,0
DA:181,18
DA:184,10
DA:185,10
DA:186,10
DA:187,10
DA:188,10
DA:189,10
DA:192,10
DA:193,10
DA:194,10
DA:195,10
DA:197,10
DA:198,7
DA:199,7
DA:202,20
DA:203,10
DA:204,10
DA:205,10
DA:206,10
DA:207,10
DA:210,10
DA:211,10
DA:212,10
DA:213,10
DA:215,10
DA:216,10
DA:217,10
DA:218,10
DA:219,10
DA:220,10
DA:221,10
DA:222,10
DA:223,10
DA:224,10
DA:225,10
DA:226,10
DA:227,10
DA:228,10
DA:229,10
DA:230,10
DA:231,10
DA:232,10
DA:233,10
DA:234,10
DA:235,10
DA:236,10
DA:237,10
DA:238,10
DA:239,10
DA:240,10
DA:241,10
DA:242,10
DA:243,10
DA:244,10
DA:245,10
DA:246,10
DA:247,10
DA:248,10
DA:251,10
DA:252,10
DA:253,10
DA:254,10
DA:255,10
DA:256,10
DA:257,10
DA:258,10
DA:259,10
DA:260,10
DA:262,10
DA:263,10
DA:264,10
DA:265,10
DA:268,0
DA:269,0
DA:270,0
DA:271,0
DA:272,0
DA:273,0
DA:274,0
DA:278,2
DA:279,2
DA:280,2
DA:290,10
DA:291,10
DA:292,10
DA:294,17
DA:295,17
DA:296,17
DA:297,17
DA:300,1
DA:301,1
DA:302,1
DA:303,1
DA:304,1
DA:305,1
DA:306,1
DA:307,1
DA:308,1
DA:309,1
DA:312,1
DA:315,1
DA:316,1
DA:317,1
DA:318,1
DA:319,1
DA:320,1
DA:321,1
DA:322,1
DA:323,1
DA:324,1
DA:325,1
DA:328,1
DA:331,1
DA:332,1
DA:333,1
DA:334,1
DA:335,1
DA:336,1
DA:337,1
DA:338,1
DA:339,1
DA:340,1
DA:343,1
DA:346,1
DA:347,1
DA:348,1
DA:349,1
DA:350,1
DA:351,1
DA:352,1
DA:353,1
DA:354,1
DA:355,1
DA:356,1
DA:358,1
DA:359,1
DA:360,1
DA:361,1
DA:362,1
DA:364,0
DA:366,1
DA:369,1
DA:370,1
DA:371,1
DA:372,1
DA:373,1
DA:374,1
DA:375,1
DA:376,1
DA:377,1
DA:378,1
DA:379,1
DA:380,1
DA:381,1
DA:383,1
DA:384,1
DA:385,1
DA:386,1
DA:387,1
DA:389,1
DA:390,1
DA:391,1
DA:392,1
DA:393,1
DA:394,1
DA:396,0
DA:398,1
DA:401,1
DA:402,1
DA:403,1
DA:404,1
DA:405,1
DA:406,1
DA:407,1
DA:408,1
DA:409,1
DA:410,1
DA:411,1
DA:414,1
DA:415,1
DA:416,1
DA:417,1
DA:418,1
DA:419,1
DA:420,1
DA:421,1
DA:422,1
DA:423,1
DA:424,1
DA:425,1
DA:428,1
DA:429,1
DA:430,1
DA:431,1
DA:432,1
DA:433,1
DA:434,1
DA:435,1
DA:436,1
DA:437,1
DA:438,1
DA:439,1
DA:440,1
DA:441,1
DA:442,1
DA:443,1
DA:444,1
DA:445,1
DA:446,1
DA:447,1
DA:448,1
DA:449,1
DA:450,1
DA:451,1
DA:452,1
DA:453,1
DA:454,1
DA:455,1
DA:456,1
DA:457,1
DA:458,1
DA:459,1
DA:460,1
DA:461,1
DA:462,1
DA:463,1
DA:466,1
DA:467,1
DA:468,1
DA:469,1
DA:470,1
DA:471,1
DA:472,1
DA:473,1
DA:474,1
DA:475,1
DA:476,1
DA:477,1
DA:478,1
DA:479,1
DA:480,1
DA:481,1
DA:482,1
DA:483,1
DA:486,1
DA:487,1
DA:488,1
DA:489,1
DA:490,1
DA:491,1
DA:492,1
DA:493,1
DA:494,1
DA:495,1
DA:496,1
DA:497,1
DA:498,1
DA:499,1
DA:500,1
DA:501,1
DA:502,1
DA:503,1
DA:504,1
DA:505,1
DA:506,1
DA:507,1
DA:508,1
DA:509,1
DA:510,1
DA:511,1
DA:512,1
DA:513,1
DA:514,1
DA:515,1
DA:516,1
DA:517,1
DA:518,1
DA:519,1
DA:520,1
DA:521,1
DA:522,1
DA:523,1
DA:524,1
DA:527,1
DA:528,1
DA:529,1
DA:530,1
DA:531,1
DA:532,1
DA:533,1
DA:534,1
DA:535,1
DA:536,1
DA:537,1
DA:538,1
DA:539,1
DA:540,1
DA:541,1
DA:542,1
DA:543,1
DA:544,1
DA:545,1
DA:548,1
DA:549,1
DA:550,1
DA:551,1
DA:552,1
DA:553,1
DA:554,1
DA:555,1
DA:556,1
DA:557,1
DA:559,1
DA:560,1
DA:561,1
DA:563,0
DA:565,1
BRF:0
BRH:0
LF:390
LH:355
end_of_record
SF:/home/strandgate/Development/ecoPrimals/phase2/sweetGrass/crates/sweet-grass-compression/src/error.rs
FN:38,_RNvXNtCsbY6LdEOIC22_23sweet_grass_compression5errorNtB2_16CompressionErrorINtNtCs9sjCchOt1K7_4core7convert4FromNtNtCs98BKYEhbmrI_10serde_json5error5ErrorE4from
FN:38,_RNvXNtCslQATw0AokWy_23sweet_grass_compression5errorNtB2_16CompressionErrorINtNtCs9sjCchOt1K7_4core7convert4FromNtNtCs98BKYEhbmrI_10serde_json5error5ErrorE4from
FN:67,_RNvNtNtCslQATw0AokWy_23sweet_grass_compression5error5testss_26test_from_serde_json_error
FN:49,_RNvNtNtCslQATw0AokWy_23sweet_grass_compression5error5testss_30test_compression_error_display
FNDA:0,_RNvXNtCsbY6LdEOIC22_23sweet_grass_compression5errorNtB2_16CompressionErrorINtNtCs9sjCchOt1K7_4core7convert4FromNtNtCs98BKYEhbmrI_10serde_json5error5ErrorE4from
FNDA:1,_RNvXNtCslQATw0AokWy_23sweet_grass_compression5errorNtB2_16CompressionErrorINtNtCs9sjCchOt1K7_4core7convert4FromNtNtCs98BKYEhbmrI_10serde_json5error5ErrorE4from
FNDA:1,_RNvNtNtCslQATw0AokWy_23sweet_grass_compression5error5testss_26test_from_serde_json_error
FNDA:1,_RNvNtNtCslQATw0AokWy_23sweet_grass_compression5error5testss_30test_compression_error_display
FNF:3
FNH:3
DA:38,1
DA:39,1
DA:40,1
DA:49,1
DA:50,1
DA:51,1
DA:53,1
DA:54,1
DA:56,1
DA:57,1
DA:59,1
DA:60,1
DA:62,1
DA:63,1
DA:64,1
DA:67,1
DA:68,1
DA:69,1
DA:70,1
DA:71,1
BRF:0
BRH:0
LF:20
LH:20
end_of_record
SF:/home/strandgate/Development/ecoPrimals/phase2/sweetGrass/crates/sweet-grass-compression/src/session.rs
FN:77,_RINvMNtCsbY6LdEOIC22_23sweet_grass_compression7sessionNtB3_13SessionVertex11with_parentReECsad6wFluTeQR_11integration
FN:48,_RINvMNtCsbY6LdEOIC22_23sweet_grass_compression7sessionNtB3_13SessionVertex3newReB1e_B1e_ECsad6wFluTeQR_11integration
FN:182,_RINvMs1_NtCsbY6LdEOIC22_23sweet_grass_compression7sessionNtB6_7Session3newReECsad6wFluTeQR_11integration
FN:84,_RNvMNtCsbY6LdEOIC22_23sweet_grass_compression7sessionNtB2_13SessionVertex18with_activity_type
FN:98,_RNvMNtCsbY6LdEOIC22_23sweet_grass_compression7sessionNtB2_13SessionVertex7is_root
FN:91,_RNvMNtCsbY6LdEOIC22_23sweet_grass_compression7sessionNtB2_13SessionVertex9committed
FN:70,_RNvMNtCsbY6LdEOIC22_23sweet_grass_compression7sessionNtB2_13SessionVertex9with_size
FN:196,_RNvMs1_NtCsbY6LdEOIC22_23sweet_grass_compression7sessionNtB5_7Session10add_vertex
FN:232,_RNvMs1_NtCsbY6LdEOIC22_23sweet_grass_compression7sessionNtB5_7Session12branch_count
FN:226,_RNvMs1_NtCsbY6LdEOIC22_23sweet_grass_compression7sessionNtB5_7Session12contributors
FN:202,_RNvMs1_NtCsbY6LdEOIC22_23sweet_grass_compression7sessionNtB5_7Session12vertex_count
FN:308,_RNvMs1_NtCsbY6LdEOIC22_23sweet_grass_compression7sessionNtB5_7Session13temporal_span
FN:214,_RNvMs1_NtCsbY6LdEOIC22_23sweet_grass_compression7sessionNtB5_7Session14unique_outputs
FN:208,_RNvMs1_NtCsbY6LdEOIC22_23sweet_grass_compression7sessionNtB5_7Session18committed_vertices
FN:327,_RNvMs1_NtCsbY6LdEOIC22_23sweet_grass_compression7sessionNtB5_7Session18has_single_outcome
FN:252,_RNvMs1_NtCsbY6LdEOIC22_23sweet_grass_compression7sessionNtB5_7Session4tips
FN:246,_RNvMs1_NtCsbY6LdEOIC22_23sweet_grass_compression7sessionNtB5_7Session5roots
FN:280,_RNvMs1_NtCsbY6LdEOIC22_23sweet_grass_compression7sessionNtB5_7Session8depth_of
FN:332,_RNvMs1_NtCsbY6LdEOIC22_23sweet_grass_compression7sessionNtB5_7Session8finalize
FN:321,_RNvMs1_NtCsbY6LdEOIC22_23sweet_grass_compression7sessionNtB5_7Session9is_atomic
FN:263,_RNvMs1_NtCsbY6LdEOIC22_23sweet_grass_compression7sessionNtB5_7Session9max_depth
FN:145,_RNvXs0_NtCsbY6LdEOIC22_23sweet_grass_compression7sessionNtB5_15CompressionHintNtNtCs9sjCchOt1K7_4core7default7Default7default
FN:120,_RNvXs_NtCsbY6LdEOIC22_23sweet_grass_compression7sessionNtB4_14SessionOutcomeNtNtCs9sjCchOt1K7_4core7default7Default7default
FN:241,_RNCNvMs1_NtCsbY6LdEOIC22_23sweet_grass_compression7sessionNtB7_7Session12branch_count0B9_
FN:227,_RNCNvMs1_NtCsbY6LdEOIC22_23sweet_grass_compression7sessionNtB7_7Session12contributors0B9_
FN:313,_RNCNvMs1_NtCsbY6LdEOIC22_23sweet_grass_compression7sessionNtB7_7Session13temporal_span0B9_
FN:314,_RNCNvMs1_NtCsbY6LdEOIC22_23sweet_grass_compression7sessionNtB7_7Session13temporal_spans_0B9_
FN:215,_RNCNvMs1_NtCsbY6LdEOIC22_23sweet_grass_compression7sessionNtB7_7Session14unique_outputs0B9_
FN:220,_RNCNvMs1_NtCsbY6LdEOIC22_23sweet_grass_compression7sessionNtB7_7Session14unique_outputss0_0B9_
FN:219,_RNCNvMs1_NtCsbY6LdEOIC22_23sweet_grass_compression7sessionNtB7_7Session14unique_outputss_0B9_
FN:209,_RNCNvMs1_NtCsbY6LdEOIC22_23sweet_grass_compression7sessionNtB7_7Session18committed_vertices0B9_
FN:253,_RNCNvMs1_NtCsbY6LdEOIC22_23sweet_grass_compression7sessionNtB7_7Session4tips0B9_
FN:257,_RNCNvMs1_NtCsbY6LdEOIC22_23sweet_grass_compression7sessionNtB7_7Session4tipss_0B9_
FN:247,_RNCNvMs1_NtCsbY6LdEOIC22_23sweet_grass_compression7sessionNtB7_7Session5roots0B9_
FN:295,_RNCNvMs1_NtCsbY6LdEOIC22_23sweet_grass_compression7sessionNtB7_7Session8depth_of0B9_
FN:296,_RNCNvMs1_NtCsbY6LdEOIC22_23sweet_grass_compression7sessionNtB7_7Session8depth_ofs_0B9_
FN:270,_RNCNvMs1_NtCsbY6LdEOIC22_23sweet_grass_compression7sessionNtB7_7Session9max_depth0B9_
FN:275,_RNCNvMs1_NtCsbY6LdEOIC22_23sweet_grass_compression7sessionNtB7_7Session9max_depths_0B9_
FN:77,_RINvMNtCsbY6LdEOIC22_23sweet_grass_compression7sessionNtB3_13SessionVertex11with_parentpEB5_
FN:48,_RINvMNtCsbY6LdEOIC22_23sweet_grass_compression7sessionNtB3_13SessionVertex3newpppEB5_
FN:182,_RINvMs1_NtCsbY6LdEOIC22_23sweet_grass_compression7sessionNtB6_7Session3newpEB8_
FN:84,_RNvMNtCslQATw0AokWy_23sweet_grass_compression7sessionNtB2_13SessionVertex18with_activity_type
FN:327,_RNvMs1_NtCslQATw0AokWy_23sweet_grass_compression7sessionNtB5_7Session18has_single_outcome
FN:321,_RNvMs1_NtCslQATw0AokWy_23sweet_grass_compression7sessionNtB5_7Session9is_atomic
FN:145,_RNvXs0_NtCslQATw0AokWy_23sweet_grass_compression7sessionNtB5_15CompressionHintNtNtCs9sjCchOt1K7_4core7default7Default7default
FN:120,_RNvXs_NtCslQATw0AokWy_23sweet_grass_compression7sessionNtB4_14SessionOutcomeNtNtCs9sjCchOt1K7_4core7default7Default7default
FN:343,_RNvNtNtCslQATw0AokWy_23sweet_grass_compression7session5tests11make_vertex
FN:391,_RNvNtNtCslQATw0AokWy_23sweet_grass_compression7session5testss_17test_contributors
FN:348,_RNvNtNtCslQATw0AokWy_23sweet_grass_compression7session5testss_18test_empty_session
FN:356,_RNvNtNtCslQATw0AokWy_23sweet_grass_compression7session5testss_19test_linear_session
FN:412,_RNvNtNtCslQATw0AokWy_23sweet_grass_compression7session5testss_21test_committed_filter
FN:423,_RNvNtNtCslQATw0AokWy_23sweet_grass_compression7session5testss_21test_session_finalize
FN:370,_RNvNtNtCslQATw0AokWy_23sweet_grass_compression7session5testss_22test_branching_session
FN:98,_RNvMNtCslQATw0AokWy_23sweet_grass_compression7sessionNtB2_13SessionVertex7is_root
FN:91,_RNvMNtCslQATw0AokWy_23sweet_grass_compression7sessionNtB2_13SessionVertex9committed
FN:70,_RNvMNtCslQATw0AokWy_23sweet_grass_compression7sessionNtB2_13SessionVertex9with_size
FN:196,_RNvMs1_NtCslQATw0AokWy_23sweet_grass_compression7sessionNtB5_7Session10add_vertex
FN:232,_RNvMs1_NtCslQATw0AokWy_23sweet_grass_compression7sessionNtB5_7Session12branch_count
FN:226,_RNvMs1_NtCslQATw0AokWy_23sweet_grass_compression7sessionNtB5_7Session12contributors
FN:202,_RNvMs1_NtCslQATw0AokWy_23sweet_grass_compression7sessionNtB5_7Session12vertex_count
FN:308,_RNvMs1_NtCslQATw0AokWy_23sweet_grass_compression7sessionNtB5_7Session13temporal_span
FN:214,_RNvMs1_NtCslQATw0AokWy_23sweet_grass_compression7sessionNtB5_7Session14unique_outputs
FN:208,_RNvMs1_NtCslQATw0AokWy_23sweet_grass_compression7sessionNtB5_7Session18committed_vertices
FN:252,_RNvMs1_NtCslQATw0AokWy_23sweet_grass_compression7sessionNtB5_7Session4tips
FN:246,_RNvMs1_NtCslQATw0AokWy_23sweet_grass_compression7sessionNtB5_7Session5roots
FN:280,_RNvMs1_NtCslQATw0AokWy_23sweet_grass_compression7sessionNtB5_7Session8depth_of
FN:332,_RNvMs1_NtCslQATw0AokWy_23sweet_grass_compression7sessionNtB5_7Session8finalize
FN:263,_RNvMs1_NtCslQATw0AokWy_23sweet_grass_compression7sessionNtB5_7Session9max_depth
FN:77,_RINvMNtCslQATw0AokWy_23sweet_grass_compression7sessionNtB3_13SessionVertex11with_parentReEB5_
FN:48,_RINvMNtCslQATw0AokWy_23sweet_grass_compression7sessionNtB3_13SessionVertex3newReB1e_B1e_EB5_
FN:182,_RINvMs1_NtCslQATw0AokWy_23sweet_grass_compression7sessionNtB6_7Session3newReEB8_
FN:241,_RNCNvMs1_NtCslQATw0AokWy_23sweet_grass_compression7sessionNtB7_7Session12branch_count0B9_
FN:227,_RNCNvMs1_NtCslQATw0AokWy_23sweet_grass_compression7sessionNtB7_7Session12contributors0B9_
FN:313,_RNCNvMs1_NtCslQATw0AokWy_23sweet_grass_compression7sessionNtB7_7Session13temporal_span0B9_
FN:314,_RNCNvMs1_NtCslQATw0AokWy_23sweet_grass_compression7sessionNtB7_7Session13temporal_spans_0B9_
FN:215,_RNCNvMs1_NtCslQATw0AokWy_23sweet_grass_compression7sessionNtB7_7Session14unique_outputs0B9_
FN:220,_RNCNvMs1_NtCslQATw0AokWy_23sweet_grass_compression7sessionNtB7_7Session14unique_outputss0_0B9_
FN:219,_RNCNvMs1_NtCslQATw0AokWy_23sweet_grass_compression7sessionNtB7_7Session14unique_outputss_0B9_
FN:209,_RNCNvMs1_NtCslQATw0AokWy_23sweet_grass_compression7sessionNtB7_7Session18committed_vertices0B9_
FN:253,_RNCNvMs1_NtCslQATw0AokWy_23sweet_grass_compression7sessionNtB7_7Session4tips0B9_
FN:257,_RNCNvMs1_NtCslQATw0AokWy_23sweet_grass_compression7sessionNtB7_7Session4tipss_0B9_
FN:247,_RNCNvMs1_NtCslQATw0AokWy_23sweet_grass_compression7sessionNtB7_7Session5roots0B9_
FN:295,_RNCNvMs1_NtCslQATw0AokWy_23sweet_grass_compression7sessionNtB7_7Session8depth_of0B9_
FN:296,_RNCNvMs1_NtCslQATw0AokWy_23sweet_grass_compression7sessionNtB7_7Session8depth_ofs_0B9_
FN:270,_RNCNvMs1_NtCslQATw0AokWy_23sweet_grass_compression7sessionNtB7_7Session9max_depth0B9_
FN:275,_RNCNvMs1_NtCslQATw0AokWy_23sweet_grass_compression7sessionNtB7_7Session9max_depths_0B9_
FN:48,_RINvMNtCsbY6LdEOIC22_23sweet_grass_compression7sessionNtB3_13SessionVertex3newNtNtCs6bBekJvxEMJ_5alloc6string6StringB1e_ReECs4hEEQusrzoB_23sweet_grass_integration
FN:48,_RINvMNtCsbY6LdEOIC22_23sweet_grass_compression7sessionNtB3_13SessionVertex3newReB1e_B1e_ECs4hEEQusrzoB_23sweet_grass_integration
FN:182,_RINvMs1_NtCsbY6LdEOIC22_23sweet_grass_compression7sessionNtB6_7Session3newNtNtCs6bBekJvxEMJ_5alloc6string6StringECs4hEEQusrzoB_23sweet_grass_integration
FN:182,_RINvMs1_NtCsbY6LdEOIC22_23sweet_grass_compression7sessionNtB6_7Session3newReECs4hEEQusrzoB_23sweet_grass_integration
FN:77,_RINvMNtCsbY6LdEOIC22_23sweet_grass_compression7sessionNtB3_13SessionVertex11with_parentNtNtCs6bBekJvxEMJ_5alloc6string6StringECsdjAd9q7fPo9_19sweet_grass_service
FN:48,_RINvMNtCsbY6LdEOIC22_23sweet_grass_compression7sessionNtB3_13SessionVertex3newRNtNtCs6bBekJvxEMJ_5alloc6string6StringB1e_B1e_ECsdjAd9q7fPo9_19sweet_grass_service
FN:182,_RINvMs1_NtCsbY6LdEOIC22_23sweet_grass_compression7sessionNtB6_7Session3newRNtNtCs6bBekJvxEMJ_5alloc6string6StringECsdjAd9q7fPo9_19sweet_grass_service
FN:77,_RINvMNtCsbY6LdEOIC22_23sweet_grass_compression7sessionNtB3_13SessionVertex11with_parentNtNtCs6bBekJvxEMJ_5alloc6string6StringECsZK8v8cnrxE_19sweet_grass_service
FN:48,_RINvMNtCsbY6LdEOIC22_23sweet_grass_compression7sessionNtB3_13SessionVertex3newRNtNtCs6bBekJvxEMJ_5alloc6string6StringB1e_B1e_ECsZK8v8cnrxE_19sweet_grass_service
FN:48,_RINvMNtCsbY6LdEOIC22_23sweet_grass_compression7sessionNtB3_13SessionVertex3newReB1e_B1e_ECsZK8v8cnrxE_19sweet_grass_service
FN:182,_RINvMs1_NtCsbY6LdEOIC22_23sweet_grass_compression7sessionNtB6_7Session3newRNtNtCs6bBekJvxEMJ_5alloc6string6StringECsZK8v8cnrxE_19sweet_grass_service
FN:182,_RINvMs1_NtCsbY6LdEOIC22_23sweet_grass_compression7sessionNtB6_7Session3newReECsZK8v8cnrxE_19sweet_grass_service
FNDA:1,_RINvMNtCsbY6LdEOIC22_23sweet_grass_compression7sessionNtB3_13SessionVertex11with_parentReECsad6wFluTeQR_11integration
FNDA:3,_RINvMNtCsbY6LdEOIC22_23sweet_grass_compression7sessionNtB3_13SessionVertex3newReB1e_B1e_ECsad6wFluTeQR_11integration
FNDA:3,_RINvMs1_NtCsbY6LdEOIC22_23sweet_grass_compression7sessionNtB6_7Session3newReECsad6wFluTeQR_11integration
FNDA:3,_RNvMNtCsbY6LdEOIC22_23sweet_grass_compression7sessionNtB2_13SessionVertex18with_activity_type
FNDA:12,_RNvMNtCsbY6LdEOIC22_23sweet_grass_compression7sessionNtB2_13SessionVertex7is_root
FNDA:7,_RNvMNtCsbY6LdEOIC22_23sweet_grass_compression7sessionNtB2_13SessionVertex9committed
FNDA:7,_RNvMNtCsbY6LdEOIC22_23sweet_grass_compression7sessionNtB2_13SessionVertex9with_size
FNDA:15,_RNvMs1_NtCsbY6LdEOIC22_23sweet_grass_compression7sessionNtB5_7Session10add_vertex
FNDA:9,_RNvMs1_NtCsbY6LdEOIC22_23sweet_grass_compression7sessionNtB5_7Session12branch_count
FNDA:9,_RNvMs1_NtCsbY6LdEOIC22_23sweet_grass_compression7sessionNtB5_7Session12contributors
FNDA:9,_RNvMs1_NtCsbY6LdEOIC22_23sweet_grass_compression7sessionNtB5_7Session12vertex_count
FNDA:9,_RNvMs1_NtCsbY6LdEOIC22_23sweet_grass_compression7sessionNtB5_7Session13temporal_span
FNDA:9,_RNvMs1_NtCsbY6LdEOIC22_23sweet_grass_compression7sessionNtB5_7Session14unique_outputs
FNDA:13,_RNvMs1_NtCsbY6LdEOIC22_23sweet_grass_compression7sessionNtB5_7Session18committed_vertices
FNDA:0,_RNvMs1_NtCsbY6LdEOIC22_23sweet_grass_compression7sessionNtB5_7Session18has_single_outcome
FNDA:24,_RNvMs1_NtCsbY6LdEOIC22_23sweet_grass_compression7sessionNtB5_7Session4tips
FNDA:8,_RNvMs1_NtCsbY6LdEOIC22_23sweet_grass_compression7sessionNtB5_7Session5roots
FNDA:8,_RNvMs1_NtCsbY6LdEOIC22_23sweet_grass_compression7sessionNtB5_7Session8depth_of
FNDA:2,_RNvMs1_NtCsbY6LdEOIC22_23sweet_grass_compression7sessionNtB5_7Session8finalize
FNDA:0,_RNvMs1_NtCsbY6LdEOIC22_23sweet_grass_compression7sessionNtB5_7Session9is_atomic
FNDA:9,_RNvMs1_NtCsbY6LdEOIC22_23sweet_grass_compression7sessionNtB5_7Session9max_depth
FNDA:0,_RNvXs0_NtCsbY6LdEOIC22_23sweet_grass_compression7sessionNtB5_15CompressionHintNtNtCs9sjCchOt1K7_4core7default7Default7default
FNDA:0,_RNvXs_NtCsbY6LdEOIC22_23sweet_grass_compression7sessionNtB4_14SessionOutcomeNtNtCs9sjCchOt1K7_4core7default7Default7default
FNDA:2,_RNCNvMs1_NtCsbY6LdEOIC22_23sweet_grass_compression7sessionNtB7_7Session12branch_count0B9_
FNDA:8,_RNCNvMs1_NtCsbY6LdEOIC22_23sweet_grass_compression7sessionNtB7_7Session12contributors0B9_
FNDA:8,_RNCNvMs1_NtCsbY6LdEOIC22_23sweet_grass_compression7sessionNtB7_7Session13temporal_span0B9_
FNDA:8,_RNCNvMs1_NtCsbY6LdEOIC22_23sweet_grass_compression7sessionNtB7_7Session13temporal_spans_0B9_
FNDA:8,_RNCNvMs1_NtCsbY6LdEOIC22_23sweet_grass_compression7sessionNtB7_7Session14unique_outputs0B9_
FNDA:5,_RNCNvMs1_NtCsbY6LdEOIC22_23sweet_grass_compression7sessionNtB7_7Session14unique_outputss0_0B9_
FNDA:8,_RNCNvMs1_NtCsbY6LdEOIC22_23sweet_grass_compression7sessionNtB7_7Session14unique_outputss_0B9_
FNDA:14,_RNCNvMs1_NtCsbY6LdEOIC22_23sweet_grass_compression7sessionNtB7_7Session18committed_vertices0B9_
FNDA:24,_RNCNvMs1_NtCsbY6LdEOIC22_23sweet_grass_compression7sessionNtB7_7Session4tips0B9_
FNDA:24,_RNCNvMs1_NtCsbY6LdEOIC22_23sweet_grass_compression7sessionNtB7_7Session4tipss_0B9_
FNDA:12,_RNCNvMs1_NtCsbY6LdEOIC22_23sweet_grass_compression7sessionNtB7_7Session5roots0B9_
FNDA:2,_RNCNvMs1_NtCsbY6LdEOIC22_23sweet_grass_compression7sessionNtB7_7Session8depth_of0B9_
FNDA:2,_RNCNvMs1_NtCsbY6LdEOIC22_23sweet_grass_compression7sessionNtB7_7Session8depth_ofs_0B9_
FNDA:8,_RNCNvMs1_NtCsbY6LdEOIC22_23sweet_grass_compression7sessionNtB7_7Session9max_depth0B9_
FNDA:6,_RNCNvMs1_NtCsbY6LdEOIC22_23sweet_grass_compression7sessionNtB7_7Session9max_depths_0B9_
FNDA:0,_RINvMNtCsbY6LdEOIC22_23sweet_grass_compression7sessionNtB3_13SessionVertex11with_parentpEB5_
FNDA:0,_RINvMNtCsbY6LdEOIC22_23sweet_grass_compression7sessionNtB3_13SessionVertex3newpppEB5_
FNDA:0,_RINvMs1_NtCsbY6LdEOIC22_23sweet_grass_compression7sessionNtB6_7Session3newpEB8_
FNDA:0,_RNvMNtCslQATw0AokWy_23sweet_grass_compression7sessionNtB2_13SessionVertex18with_activity_type
FNDA:0,_RNvMs1_NtCslQATw0AokWy_23sweet_grass_compression7sessionNtB5_7Session18has_single_outcome
FNDA:0,_RNvMs1_NtCslQATw0AokWy_23sweet_grass_compression7sessionNtB5_7Session9is_atomic
FNDA:0,_RNvXs0_NtCslQATw0AokWy_23sweet_grass_compression7sessionNtB5_15CompressionHintNtNtCs9sjCchOt1K7_4core7default7Default7default
FNDA:0,_RNvXs_NtCslQATw0AokWy_23sweet_grass_compression7sessionNtB4_14SessionOutcomeNtNtCs9sjCchOt1K7_4core7default7Default7default
FNDA:9,_RNvNtNtCslQATw0AokWy_23sweet_grass_compression7session5tests11make_vertex
FNDA:1,_RNvNtNtCslQATw0AokWy_23sweet_grass_compression7session5testss_17test_contributors
FNDA:1,_RNvNtNtCslQATw0AokWy_23sweet_grass_compression7session5testss_18test_empty_session
FNDA:1,_RNvNtNtCslQATw0AokWy_23sweet_grass_compression7session5testss_19test_linear_session
FNDA:1,_RNvNtNtCslQATw0AokWy_23sweet_grass_compression7session5testss_21test_committed_filter
FNDA:1,_RNvNtNtCslQATw0AokWy_23sweet_grass_compression7session5testss_21test_session_finalize
FNDA:1,_RNvNtNtCslQATw0AokWy_23sweet_grass_compression7session5testss_22test_branching_session
FNDA:33,_RNvMNtCslQATw0AokWy_23sweet_grass_compression7sessionNtB2_13SessionVertex7is_root
FNDA:37,_RNvMNtCslQATw0AokWy_23sweet_grass_compression7sessionNtB2_13SessionVertex9committed
FNDA:17,_RNvMNtCslQATw0AokWy_23sweet_grass_compression7sessionNtB2_13SessionVertex9with_size
FNDA:40,_RNvMs1_NtCslQATw0AokWy_23sweet_grass_compression7sessionNtB5_7Session10add_vertex
FNDA:20,_RNvMs1_NtCslQATw0AokWy_23sweet_grass_compression7sessionNtB5_7Session12branch_count
FNDA:18,_RNvMs1_NtCslQATw0AokWy_23sweet_grass_compression7sessionNtB5_7Session12contributors
FNDA:23,_RNvMs1_NtCslQATw0AokWy_23sweet_grass_compression7sessionNtB5_7Session12vertex_count
FNDA:17,_RNvMs1_NtCslQATw0AokWy_23sweet_grass_compression7sessionNtB5_7Session13temporal_span
FNDA:18,_RNvMs1_NtCslQATw0AokWy_23sweet_grass_compression7sessionNtB5_7Session14unique_outputs
FNDA:24,_RNvMs1_NtCslQATw0AokWy_23sweet_grass_compression7sessionNtB5_7Session18committed_vertices
FNDA:52,_RNvMs1_NtCslQATw0AokWy_23sweet_grass_compression7sessionNtB5_7Session4tips
FNDA:13,_RNvMs1_NtCslQATw0AokWy_23sweet_grass_compression7sessionNtB5_7Session5roots
FNDA:31,_RNvMs1_NtCslQATw0AokWy_23sweet_grass_compression7sessionNtB5_7Session8depth_of
FNDA:9,_RNvMs1_NtCslQATw0AokWy_23sweet_grass_compression7sessionNtB5_7Session8finalize
FNDA:19,_RNvMs1_NtCslQATw0AokWy_23sweet_grass_compression7sessionNtB5_7Session9max_depth
FNDA:19,_RINvMNtCslQATw0AokWy_23sweet_grass_compression7sessionNtB3_13SessionVertex11with_parentReEB5_
FNDA:40,_RINvMNtCslQATw0AokWy_23sweet_grass_compression7sessionNtB3_13SessionVertex3newReB1e_B1e_EB5_
FNDA:24,_RINvMs1_NtCslQATw0AokWy_23sweet_grass_compression7sessionNtB6_7Session3newReEB8_
FNDA:13,_RNCNvMs1_NtCslQATw0AokWy_23sweet_grass_compression7sessionNtB7_7Session12branch_count0B9_
FNDA:28,_RNCNvMs1_NtCslQATw0AokWy_23sweet_grass_compression7sessionNtB7_7Session12contributors0B9_
FNDA:26,_RNCNvMs1_NtCslQATw0AokWy_23sweet_grass_compression7sessionNtB7_7Session13temporal_span0B9_
FNDA:26,_RNCNvMs1_NtCslQATw0AokWy_23sweet_grass_compression7sessionNtB7_7Session13temporal_spans_0B9_
FNDA:29,_RNCNvMs1_NtCslQATw0AokWy_23sweet_grass_compression7sessionNtB7_7Session14unique_outputs0B9_
FNDA:16,_RNCNvMs1_NtCslQATw0AokWy_23sweet_grass_compression7sessionNtB7_7Session14unique_outputss0_0B9_
FNDA:29,_RNCNvMs1_NtCslQATw0AokWy_23sweet_grass_compression7sessionNtB7_7Session14unique_outputss_0B9_
FNDA:44,_RNCNvMs1_NtCslQATw0AokWy_23sweet_grass_compression7sessionNtB7_7Session18committed_vertices0B9_
FNDA:90,_RNCNvMs1_NtCslQATw0AokWy_23sweet_grass_compression7sessionNtB7_7Session4tips0B9_
FNDA:90,_RNCNvMs1_NtCslQATw0AokWy_23sweet_grass_compression7sessionNtB7_7Session4tipss_0B9_
FNDA:33,_RNCNvMs1_NtCslQATw0AokWy_23sweet_grass_compression7sessionNtB7_7Session5roots0B9_
FNDA:14,_RNCNvMs1_NtCslQATw0AokWy_23sweet_grass_compression7sessionNtB7_7Session8depth_of0B9_
FNDA:14,_RNCNvMs1_NtCslQATw0AokWy_23sweet_grass_compression7sessionNtB7_7Session8depth_ofs_0B9_
FNDA:29,_RNCNvMs1_NtCslQATw0AokWy_23sweet_grass_compression7sessionNtB7_7Session9max_depth0B9_
FNDA:17,_RNCNvMs1_NtCslQATw0AokWy_23sweet_grass_compression7sessionNtB7_7Session9max_depths_0B9_
FNDA:5,_RINvMNtCsbY6LdEOIC22_23sweet_grass_compression7sessionNtB3_13SessionVertex3newNtNtCs6bBekJvxEMJ_5alloc6string6StringB1e_ReECs4hEEQusrzoB_23sweet_grass_integration
FNDA:2,_RINvMNtCsbY6LdEOIC22_23sweet_grass_compression7sessionNtB3_13SessionVertex3newReB1e_B1e_ECs4hEEQusrzoB_23sweet_grass_integration
FNDA:5,_RINvMs1_NtCsbY6LdEOIC22_23sweet_grass_compression7sessionNtB6_7Session3newNtNtCs6bBekJvxEMJ_5alloc6string6StringECs4hEEQusrzoB_23sweet_grass_integration
FNDA:2,_RINvMs1_NtCsbY6LdEOIC22_23sweet_grass_compression7sessionNtB6_7Session3newReECs4hEEQusrzoB_23sweet_grass_integration
FNDA:0,_RINvMNtCsbY6LdEOIC22_23sweet_grass_compression7sessionNtB3_13SessionVertex11with_parentNtNtCs6bBekJvxEMJ_5alloc6string6StringECsdjAd9q7fPo9_19sweet_grass_service
FNDA:0,_RINvMNtCsbY6LdEOIC22_23sweet_grass_compression7sessionNtB3_13SessionVertex3newRNtNtCs6bBekJvxEMJ_5alloc6string6StringB1e_B1e_ECsdjAd9q7fPo9_19sweet_grass_service
FNDA:0,_RINvMs1_NtCsbY6LdEOIC22_23sweet_grass_compression7sessionNtB6_7Session3newRNtNtCs6bBekJvxEMJ_5alloc6string6StringECsdjAd9q7fPo9_19sweet_grass_service
FNDA:1,_RINvMNtCsbY6LdEOIC22_23sweet_grass_compression7sessionNtB3_13SessionVertex11with_parentNtNtCs6bBekJvxEMJ_5alloc6string6StringECsZK8v8cnrxE_19sweet_grass_service
FNDA:4,_RINvMNtCsbY6LdEOIC22_23sweet_grass_compression7sessionNtB3_13SessionVertex3newRNtNtCs6bBekJvxEMJ_5alloc6string6StringB1e_B1e_ECsZK8v8cnrxE_19sweet_grass_service
FNDA:1,_RINvMNtCsbY6LdEOIC22_23sweet_grass_compression7sessionNtB3_13SessionVertex3newReB1e_B1e_ECsZK8v8cnrxE_19sweet_grass_service
FNDA:5,_RINvMs1_NtCsbY6LdEOIC22_23sweet_grass_compression7sessionNtB6_7Session3newRNtNtCs6bBekJvxEMJ_5alloc6string6StringECsZK8v8cnrxE_19sweet_grass_service
FNDA:1,_RINvMs1_NtCsbY6LdEOIC22_23sweet_grass_compression7sessionNtB6_7Session3newReECsZK8v8cnrxE_19sweet_grass_service
FNF:45
FNH:41
DA:48,55
DA:49,55
DA:50,55
DA:51,55
DA:52,55
DA:53,55
DA:54,55
DA:55,55
DA:56,55
DA:57,55
DA:58,55
DA:59,55
DA:60,55
DA:61,55
DA:62,55
DA:63,55
DA:64,55
DA:65,55
DA:66,55
DA:70,24
DA:71,24
DA:72,24
DA:73,24
DA:77,21
DA:78,21
DA:79,21
DA:80,21
DA:84,3
DA:85,3
DA:86,3
DA:87,3
DA:91,44
DA:92,44
DA:93,44
DA:94,44
DA:98,45
DA:99,45
DA:100,45
DA:120,0
DA:121,0
DA:122,0
DA:145,0
DA:146,0
DA:147,0
DA:182,40
DA:183,40
DA:184,40
DA:185,40
DA:186,40
DA:187,40
DA:188,40
DA:189,40
DA:190,40
DA:191,40
DA:192,40
DA:193,40
DA:196,55
DA:197,55
DA:198,55
DA:202,32
DA:203,32
DA:204,32
DA:208,37
DA:209,58
DA:210,37
DA:214,27
DA:215,37
DA:216,27
DA:217,27
DA:218,27
DA:219,37
DA:220,27
DA:221,27
DA:222,27
DA:226,27
DA:227,36
DA:228,27
DA:232,29
DA:233,29
DA:235,69
DA:236,58
DA:237,18
DA:238,18
DA:241,29
DA:242,29
DA:246,21
DA:247,45
DA:248,21
DA:252,76
DA:253,114
DA:254,76
DA:255,76
DA:256,76
DA:257,114
DA:258,76
DA:259,76
DA:263,28
DA:264,28
DA:265,7
DA:266,21
DA:267,21
DA:268,21
DA:269,21
DA:270,37
DA:271,21
DA:272,21
DA:273,21
DA:274,21
DA:275,23
DA:276,21
DA:277,21
DA:278,28
DA:280,39
DA:281,39
DA:282,39
DA:283,39
DA:284,39
DA:285,39
DA:286,2
DA:287,37
DA:289,37
DA:290,21
DA:292,16
DA:293,16
DA:294,16
DA:295,16
DA:296,16
DA:297,16
DA:298,16
DA:299,16
DA:302,37
DA:303,37
DA:304,39
DA:308,26
DA:309,26
DA:310,6
DA:311,20
DA:312,20
DA:313,34
DA:314,34
DA:315,20
DA:316,20
DA:317,26
DA:321,0
DA:322,0
DA:323,0
DA:327,0
DA:328,0
DA:329,0
DA:332,11
DA:333,11
DA:334,11
DA:335,11
DA:343,9
DA:344,9
DA:345,9
DA:348,1
DA:349,1
DA:350,1
DA:351,1
DA:352,1
DA:353,1
DA:356,1
DA:357,1
DA:358,1
DA:359,1
DA:360,1
DA:361,1
DA:362,1
DA:363,1
DA:364,1
DA:365,1
DA:366,1
DA:367,1
DA:370,1
DA:371,1
DA:372,1
DA:373,1
DA:374,1
DA:375,1
DA:376,1
DA:377,1
DA:378,1
DA:379,1
DA:380,1
DA:381,1
DA:382,1
DA:383,1
DA:384,1
DA:385,1
DA:386,1
DA:387,1
DA:388,1
DA:391,1
DA:392,1
DA:393,1
DA:394,1
DA:395,1
DA:396,1
DA:397,1
DA:398,1
DA:399,1
DA:400,1
DA:401,1
DA:402,1
DA:403,1
DA:404,1
DA:405,1
DA:406,1
DA:407,1
DA:408,1
DA:409,1
DA:412,1
DA:413,1
DA:414,1
DA:415,1
DA:416,1
DA:417,1
DA:418,1
DA:419,1
DA:420,1
DA:423,1
DA:424,1
DA:425,1
DA:426,1
DA:428,1
DA:429,1
DA:430,1
DA:431,1
DA:432,1
BRF:0
BRH:0
LF:245
LH:233
end_of_record
SF:/home/strandgate/Development/ecoPrimals/phase2/sweetGrass/crates/sweet-grass-compression/src/strategy.rs
FN:129,_RNvMs0_NtCsbY6LdEOIC22_23sweet_grass_compression8strategyNtB5_16CompressionLevel13with_max_size
FN:119,_RNvMs0_NtCsbY6LdEOIC22_23sweet_grass_compression8strategyNtB5_16CompressionLevel3new
FN:171,_RNvMs1_NtCsbY6LdEOIC22_23sweet_grass_compression8strategyNtB5_16GroupingStrategy10fixed_size
FN:163,_RNvMs1_NtCsbY6LdEOIC22_23sweet_grass_compression8strategyNtB5_16GroupingStrategy8temporal
FN:97,_RNvMs_NtCsbY6LdEOIC22_23sweet_grass_compression8strategyNtB4_10BranchSpec13with_vertices
FN:48,_RNvXNtCsbY6LdEOIC22_23sweet_grass_compression8strategyNtB2_13DiscardReasonNtNtCs9sjCchOt1K7_4core3fmt7Display3fmt
FN:205,_RNvXs2_NtCsbY6LdEOIC22_23sweet_grass_compression8strategyNtB5_17CompressionConfigNtNtCs9sjCchOt1K7_4core7default7Default7default
FN:79,_RINvMs_NtCsbY6LdEOIC22_23sweet_grass_compression8strategyNtB5_10BranchSpec3newNtNtCs6bBekJvxEMJ_5alloc6string6StringB1e_EB7_
FN:90,_RINvMs_NtCsbY6LdEOIC22_23sweet_grass_compression8strategyNtB5_10BranchSpec8with_tipNtNtCs6bBekJvxEMJ_5alloc6string6StringEB7_
FN:163,_RNvMs1_NtCslQATw0AokWy_23sweet_grass_compression8strategyNtB5_16GroupingStrategy8temporal
FN:237,_RNvNtNtCslQATw0AokWy_23sweet_grass_compression8strategy5testss_16test_branch_spec
FN:258,_RNvNtNtCslQATw0AokWy_23sweet_grass_compression8strategy5testss_19test_default_config
FN:250,_RNvNtNtCslQATw0AokWy_23sweet_grass_compression8strategy5testss_22test_compression_level
FN:225,_RNvNtNtCslQATw0AokWy_23sweet_grass_compression8strategy5testss_27test_discard_reason_display
FN:129,_RNvMs0_NtCslQATw0AokWy_23sweet_grass_compression8strategyNtB5_16CompressionLevel13with_max_size
FN:119,_RNvMs0_NtCslQATw0AokWy_23sweet_grass_compression8strategyNtB5_16CompressionLevel3new
FN:171,_RNvMs1_NtCslQATw0AokWy_23sweet_grass_compression8strategyNtB5_16GroupingStrategy10fixed_size
FN:97,_RNvMs_NtCslQATw0AokWy_23sweet_grass_compression8strategyNtB4_10BranchSpec13with_vertices
FN:48,_RNvXNtCslQATw0AokWy_23sweet_grass_compression8strategyNtB2_13DiscardReasonNtNtCs9sjCchOt1K7_4core3fmt7Display3fmt
FN:205,_RNvXs2_NtCslQATw0AokWy_23sweet_grass_compression8strategyNtB5_17CompressionConfigNtNtCs9sjCchOt1K7_4core7default7Default7default
FN:79,_RINvMs_NtCslQATw0AokWy_23sweet_grass_compression8strategyNtB5_10BranchSpec3newNtNtCs6bBekJvxEMJ_5alloc6string6StringB1e_EB7_
FN:79,_RINvMs_NtCslQATw0AokWy_23sweet_grass_compression8strategyNtB5_10BranchSpec3newReB1e_EB7_
FN:90,_RINvMs_NtCslQATw0AokWy_23sweet_grass_compression8strategyNtB5_10BranchSpec8with_tipNtNtCs6bBekJvxEMJ_5alloc6string6StringEB7_
FN:90,_RINvMs_NtCslQATw0AokWy_23sweet_grass_compression8strategyNtB5_10BranchSpec8with_tipReEB7_
FNDA:0,_RNvMs0_NtCsbY6LdEOIC22_23sweet_grass_compression8strategyNtB5_16CompressionLevel13with_max_size
FNDA:0,_RNvMs0_NtCsbY6LdEOIC22_23sweet_grass_compression8strategyNtB5_16CompressionLevel3new
FNDA:0,_RNvMs1_NtCsbY6LdEOIC22_23sweet_grass_compression8strategyNtB5_16GroupingStrategy10fixed_size
FNDA:0,_RNvMs1_NtCsbY6LdEOIC22_23sweet_grass_compression8strategyNtB5_16GroupingStrategy8temporal
FNDA:0,_RNvMs_NtCsbY6LdEOIC22_23sweet_grass_compression8strategyNtB4_10BranchSpec13with_vertices
FNDA:3,_RNvXNtCsbY6LdEOIC22_23sweet_grass_compression8strategyNtB2_13DiscardReasonNtNtCs9sjCchOt1K7_4core3fmt7Display3fmt
FNDA:80,_RNvXs2_NtCsbY6LdEOIC22_23sweet_grass_compression8strategyNtB5_17CompressionConfigNtNtCs9sjCchOt1K7_4core7default7Default7default
FNDA:0,_RINvMs_NtCsbY6LdEOIC22_23sweet_grass_compression8strategyNtB5_10BranchSpec3newNtNtCs6bBekJvxEMJ_5alloc6string6StringB1e_EB7_
FNDA:0,_RINvMs_NtCsbY6LdEOIC22_23sweet_grass_compression8strategyNtB5_10BranchSpec8with_tipNtNtCs6bBekJvxEMJ_5alloc6string6StringEB7_
FNDA:0,_RNvMs1_NtCslQATw0AokWy_23sweet_grass_compression8strategyNtB5_16GroupingStrategy8temporal
FNDA:1,_RNvNtNtCslQATw0AokWy_23sweet_grass_compression8strategy5testss_16test_branch_spec
FNDA:1,_RNvNtNtCslQATw0AokWy_23sweet_grass_compression8strategy5testss_19test_default_config
FNDA:1,_RNvNtNtCslQATw0AokWy_23sweet_grass_compression8strategy5testss_22test_compression_level
FNDA:1,_RNvNtNtCslQATw0AokWy_23sweet_grass_compression8strategy5testss_27test_discard_reason_display
FNDA:1,_RNvMs0_NtCslQATw0AokWy_23sweet_grass_compression8strategyNtB5_16CompressionLevel13with_max_size
FNDA:1,_RNvMs0_NtCslQATw0AokWy_23sweet_grass_compression8strategyNtB5_16CompressionLevel3new
FNDA:0,_RNvMs1_NtCslQATw0AokWy_23sweet_grass_compression8strategyNtB5_16GroupingStrategy10fixed_size
FNDA:1,_RNvMs_NtCslQATw0AokWy_23sweet_grass_compression8strategyNtB4_10BranchSpec13with_vertices
FNDA:2,_RNvXNtCslQATw0AokWy_23sweet_grass_compression8strategyNtB2_13DiscardReasonNtNtCs9sjCchOt1K7_4core3fmt7Display3fmt
FNDA:23,_RNvXs2_NtCslQATw0AokWy_23sweet_grass_compression8strategyNtB5_17CompressionConfigNtNtCs9sjCchOt1K7_4core7default7Default7default
FNDA:2,_RINvMs_NtCslQATw0AokWy_23sweet_grass_compression8strategyNtB5_10BranchSpec3newNtNtCs6bBekJvxEMJ_5alloc6string6StringB1e_EB7_
FNDA:1,_RINvMs_NtCslQATw0AokWy_23sweet_grass_compression8strategyNtB5_10BranchSpec3newReB1e_EB7_
FNDA:2,_RINvMs_NtCslQATw0AokWy_23sweet_grass_compression8strategyNtB5_10BranchSpec8with_tipNtNtCs6bBekJvxEMJ_5alloc6string6StringEB7_
FNDA:2,_RINvMs_NtCslQATw0AokWy_23sweet_grass_compression8strategyNtB5_10BranchSpec8with_tipReEB7_
FNF:13
FNH:11
DA:48,5
DA:49,5
DA:50,2
DA:51,3
DA:52,0
DA:53,0
DA:54,0
DA:55,0
DA:57,5
DA:79,3
DA:80,3
DA:81,3
DA:82,3
DA:83,3
DA:84,3
DA:85,3
DA:86,3
DA:90,4
DA:91,4
DA:92,4
DA:93,4
DA:97,1
DA:98,1
DA:99,1
DA:100,1
DA:119,1
DA:120,1
DA:121,1
DA:122,1
DA:123,1
DA:124,1
DA:125,1
DA:129,1
DA:130,1
DA:131,1
DA:132,1
DA:163,0
DA:164,0
DA:165,0
DA:166,0
DA:167,0
DA:171,0
DA:172,0
DA:173,0
DA:205,103
DA:206,103
DA:207,103
DA:208,103
DA:209,103
DA:210,103
DA:211,103
DA:212,103
DA:213,103
DA:214,103
DA:215,103
DA:216,103
DA:225,1
DA:226,1
DA:227,1
DA:228,1
DA:229,1
DA:230,1
DA:231,1
DA:232,1
DA:233,1
DA:234,1
DA:237,1
DA:238,1
DA:239,1
DA:240,1
DA:241,1
DA:242,1
DA:243,1
DA:244,1
DA:245,1
DA:246,1
DA:247,1
DA:250,1
DA:251,1
DA:252,1
DA:253,1
DA:254,1
DA:255,1
DA:258,1
DA:259,1
DA:260,1
DA:261,1
DA:262,1
DA:263,1
DA:264,1
BRF:0
BRH:0
LF:90
LH:78
end_of_record
SF:/home/strandgate/Development/ecoPrimals/phase2/sweetGrass/crates/sweet-grass-core/src/activity.rs
FN:20,_RNvMNtCsa0ZJ84hKss5_16sweet_grass_core8activityNtB2_10ActivityId3new
FN:38,_RNvMNtCsa0ZJ84hKss5_16sweet_grass_core8activityNtB2_10ActivityId6as_str
FN:26,_RNvMNtCsa0ZJ84hKss5_16sweet_grass_core8activityNtB2_10ActivityId9from_task
FN:230,_RNvMs4_NtCsa0ZJ84hKss5_16sweet_grass_core8activityNtB5_10UsedEntity3new
FN:241,_RNvMs4_NtCsa0ZJ84hKss5_16sweet_grass_core8activityNtB5_10UsedEntity9with_role
FN:248,_RNvMs4_NtCsa0ZJ84hKss5_16sweet_grass_core8activityNtB5_10UsedEntity9with_time
FN:354,_RNvMs5_NtCsa0ZJ84hKss5_16sweet_grass_core8activityNtB5_8Activity11duration_ns
FN:361,_RNvMs5_NtCsa0ZJ84hKss5_16sweet_grass_core8activityNtB5_8Activity11is_complete
FN:367,_RNvMs5_NtCsa0ZJ84hKss5_16sweet_grass_core8activityNtB5_8Activity13primary_agent
FN:348,_RNvMs5_NtCsa0ZJ84hKss5_16sweet_grass_core8activityNtB5_8Activity7builder
FN:414,_RNvMs6_NtCsa0ZJ84hKss5_16sweet_grass_core8activityNtB5_15ActivityBuilder10started_at
FN:428,_RNvMs6_NtCsa0ZJ84hKss5_16sweet_grass_core8activityNtB5_15ActivityBuilder13compute_units
FN:407,_RNvMs6_NtCsa0ZJ84hKss5_16sweet_grass_core8activityNtB5_15ActivityBuilder15associated_with
FN:386,_RNvMs6_NtCsa0ZJ84hKss5_16sweet_grass_core8activityNtB5_15ActivityBuilder3new
FN:400,_RNvMs6_NtCsa0ZJ84hKss5_16sweet_grass_core8activityNtB5_15ActivityBuilder4uses
FN:456,_RNvMs6_NtCsa0ZJ84hKss5_16sweet_grass_core8activityNtB5_15ActivityBuilder5build
FN:421,_RNvMs6_NtCsa0ZJ84hKss5_16sweet_grass_core8activityNtB5_15ActivityBuilder8ended_at
FN:449,_RNvMs6_NtCsa0ZJ84hKss5_16sweet_grass_core8activityNtB5_15ActivityBuilder8metadata
FN:50,_RNvXs0_NtCsa0ZJ84hKss5_16sweet_grass_core8activityNtB5_10ActivityIdNtNtCs9sjCchOt1K7_4core3fmt7Display3fmt
FN:146,_RNvXs1_NtCsa0ZJ84hKss5_16sweet_grass_core8activityNtB5_12ActivityTypeNtNtCs9sjCchOt1K7_4core7default7Default7default
FN:152,_RNvXs2_NtCsa0ZJ84hKss5_16sweet_grass_core8activityNtB5_12ActivityTypeNtNtCs9sjCchOt1K7_4core3fmt7Display3fmt
FN:180,_RNvXs3_NtCsa0ZJ84hKss5_16sweet_grass_core8activityNtB5_10EntityRoleNtNtCs9sjCchOt1K7_4core7default7Default7default
FN:44,_RNvXs_NtCsa0ZJ84hKss5_16sweet_grass_core8activityNtB4_10ActivityIdNtNtCs9sjCchOt1K7_4core7default7Default7default
FN:356,_RNCNvMs5_NtCsa0ZJ84hKss5_16sweet_grass_core8activityNtB7_8Activity11duration_ns0B9_
FN:368,_RNCNvMs5_NtCsa0ZJ84hKss5_16sweet_grass_core8activityNtB7_8Activity13primary_agent0B9_
FN:32,_RINvMNtCsa0ZJ84hKss5_16sweet_grass_core8activityNtB3_10ActivityId11from_stringpEB5_
FN:435,_RINvMs6_NtCsa0ZJ84hKss5_16sweet_grass_core8activityNtB6_15ActivityBuilder13rhizo_sessionpEB8_
FN:442,_RINvMs6_NtCsa0ZJ84hKss5_16sweet_grass_core8activityNtB6_15ActivityBuilder14toadstool_taskpEB8_
FN:32,_RINvMNtCsa0ZJ84hKss5_16sweet_grass_core8activityNtB3_10ActivityId11from_stringNtNtCs6bBekJvxEMJ_5alloc6string6StringECs7hxHRAYyWAP_26sweet_grass_store_postgres
FN:435,_RINvMs6_NtCsa0ZJ84hKss5_16sweet_grass_core8activityNtB6_15ActivityBuilder13rhizo_sessionRNtNtCs6bBekJvxEMJ_5alloc6string6StringECsbY6LdEOIC22_23sweet_grass_compression
FN:435,_RINvMs6_NtCsa0ZJ84hKss5_16sweet_grass_core8activityNtB6_15ActivityBuilder13rhizo_sessionRNtNtCs6bBekJvxEMJ_5alloc6string6StringECslQATw0AokWy_23sweet_grass_compression
FN:356,_RNCNvMs5_NtCsduQ6capmcSI_16sweet_grass_core8activityNtB7_8Activity11duration_ns0B9_
FN:368,_RNCNvMs5_NtCsduQ6capmcSI_16sweet_grass_core8activityNtB7_8Activity13primary_agent0B9_
FN:32,_RINvMNtCsduQ6capmcSI_16sweet_grass_core8activityNtB3_10ActivityId11from_stringpEB5_
FN:435,_RINvMs6_NtCsduQ6capmcSI_16sweet_grass_core8activityNtB6_15ActivityBuilder13rhizo_sessionpEB8_
FN:442,_RINvMs6_NtCsduQ6capmcSI_16sweet_grass_core8activityNtB6_15ActivityBuilder14toadstool_taskpEB8_
FN:26,_RNvMNtCsduQ6capmcSI_16sweet_grass_core8activityNtB2_10ActivityId9from_task
FN:230,_RNvMs4_NtCsduQ6capmcSI_16sweet_grass_core8activityNtB5_10UsedEntity3new
FN:241,_RNvMs4_NtCsduQ6capmcSI_16sweet_grass_core8activityNtB5_10UsedEntity9with_role
FN:248,_RNvMs4_NtCsduQ6capmcSI_16sweet_grass_core8activityNtB5_10UsedEntity9with_time
FN:400,_RNvMs6_NtCsduQ6capmcSI_16sweet_grass_core8activityNtB5_15ActivityBuilder4uses
FN:449,_RNvMs6_NtCsduQ6capmcSI_16sweet_grass_core8activityNtB5_15ActivityBuilder8metadata
FN:50,_RNvXs0_NtCsduQ6capmcSI_16sweet_grass_core8activityNtB5_10ActivityIdNtNtCs9sjCchOt1K7_4core3fmt7Display3fmt
FN:146,_RNvXs1_NtCsduQ6capmcSI_16sweet_grass_core8activityNtB5_12ActivityTypeNtNtCs9sjCchOt1K7_4core7default7Default7default
FN:152,_RNvXs2_NtCsduQ6capmcSI_16sweet_grass_core8activityNtB5_12ActivityTypeNtNtCs9sjCchOt1K7_4core3fmt7Display3fmt
FN:180,_RNvXs3_NtCsduQ6capmcSI_16sweet_grass_core8activityNtB5_10EntityRoleNtNtCs9sjCchOt1K7_4core7default7Default7default
FN:44,_RNvXs_NtCsduQ6capmcSI_16sweet_grass_core8activityNtB4_10ActivityIdNtNtCs9sjCchOt1K7_4core7default7Default7default
FN:485,_RNvNtNtCsduQ6capmcSI_16sweet_grass_core8activity5testss_21test_activity_builder
FN:498,_RNvNtNtCsduQ6capmcSI_16sweet_grass_core8activity5testss_22test_activity_duration
FN:509,_RNvNtNtCsduQ6capmcSI_16sweet_grass_core8activity5testss_24test_activity_incomplete
FN:477,_RNvNtNtCsduQ6capmcSI_16sweet_grass_core8activity5testss_27test_activity_id_generation
FN:516,_RNvNtNtCsduQ6capmcSI_16sweet_grass_core8activity5testss_27test_activity_serialization
FN:20,_RNvMNtCsduQ6capmcSI_16sweet_grass_core8activityNtB2_10ActivityId3new
FN:38,_RNvMNtCsduQ6capmcSI_16sweet_grass_core8activityNtB2_10ActivityId6as_str
FN:354,_RNvMs5_NtCsduQ6capmcSI_16sweet_grass_core8activityNtB5_8Activity11duration_ns
FN:361,_RNvMs5_NtCsduQ6capmcSI_16sweet_grass_core8activityNtB5_8Activity11is_complete
FN:367,_RNvMs5_NtCsduQ6capmcSI_16sweet_grass_core8activityNtB5_8Activity13primary_agent
FN:348,_RNvMs5_NtCsduQ6capmcSI_16sweet_grass_core8activityNtB5_8Activity7builder
FN:414,_RNvMs6_NtCsduQ6capmcSI_16sweet_grass_core8activityNtB5_15ActivityBuilder10started_at
FN:428,_RNvMs6_NtCsduQ6capmcSI_16sweet_grass_core8activityNtB5_15ActivityBuilder13compute_units
FN:407,_RNvMs6_NtCsduQ6capmcSI_16sweet_grass_core8activityNtB5_15ActivityBuilder15associated_with
FN:386,_RNvMs6_NtCsduQ6capmcSI_16sweet_grass_core8activityNtB5_15ActivityBuilder3new
FN:456,_RNvMs6_NtCsduQ6capmcSI_16sweet_grass_core8activityNtB5_15ActivityBuilder5build
FN:421,_RNvMs6_NtCsduQ6capmcSI_16sweet_grass_core8activityNtB5_15ActivityBuilder8ended_at
FNDA:19,_RNvMNtCsa0ZJ84hKss5_16sweet_grass_core8activityNtB2_10ActivityId3new
FNDA:10,_RNvMNtCsa0ZJ84hKss5_16sweet_grass_core8activityNtB2_10ActivityId6as_str
FNDA:1,_RNvMNtCsa0ZJ84hKss5_16sweet_grass_core8activityNtB2_10ActivityId9from_task
FNDA:14,_RNvMs4_NtCsa0ZJ84hKss5_16sweet_grass_core8activityNtB5_10UsedEntity3new
FNDA:0,_RNvMs4_NtCsa0ZJ84hKss5_16sweet_grass_core8activityNtB5_10UsedEntity9with_role
FNDA:0,_RNvMs4_NtCsa0ZJ84hKss5_16sweet_grass_core8activityNtB5_10UsedEntity9with_time
FNDA:0,_RNvMs5_NtCsa0ZJ84hKss5_16sweet_grass_core8activityNtB5_8Activity11duration_ns
FNDA:0,_RNvMs5_NtCsa0ZJ84hKss5_16sweet_grass_core8activityNtB5_8Activity11is_complete
FNDA:0,_RNvMs5_NtCsa0ZJ84hKss5_16sweet_grass_core8activityNtB5_8Activity13primary_agent
FNDA:19,_RNvMs5_NtCsa0ZJ84hKss5_16sweet_grass_core8activityNtB5_8Activity7builder
FNDA:10,_RNvMs6_NtCsa0ZJ84hKss5_16sweet_grass_core8activityNtB5_15ActivityBuilder10started_at
FNDA:12,_RNvMs6_NtCsa0ZJ84hKss5_16sweet_grass_core8activityNtB5_15ActivityBuilder13compute_units
FNDA:18,_RNvMs6_NtCsa0ZJ84hKss5_16sweet_grass_core8activityNtB5_15ActivityBuilder15associated_with
FNDA:19,_RNvMs6_NtCsa0ZJ84hKss5_16sweet_grass_core8activityNtB5_15ActivityBuilder3new
FNDA:10,_RNvMs6_NtCsa0ZJ84hKss5_16sweet_grass_core8activityNtB5_15ActivityBuilder4uses
FNDA:19,_RNvMs6_NtCsa0ZJ84hKss5_16sweet_grass_core8activityNtB5_15ActivityBuilder5build
FNDA:7,_RNvMs6_NtCsa0ZJ84hKss5_16sweet_grass_core8activityNtB5_15ActivityBuilder8ended_at
FNDA:0,_RNvMs6_NtCsa0ZJ84hKss5_16sweet_grass_core8activityNtB5_15ActivityBuilder8metadata
FNDA:0,_RNvXs0_NtCsa0ZJ84hKss5_16sweet_grass_core8activityNtB5_10ActivityIdNtNtCs9sjCchOt1K7_4core3fmt7Display3fmt
FNDA:0,_RNvXs1_NtCsa0ZJ84hKss5_16sweet_grass_core8activityNtB5_12ActivityTypeNtNtCs9sjCchOt1K7_4core7default7Default7default
FNDA:35,_RNvXs2_NtCsa0ZJ84hKss5_16sweet_grass_core8activityNtB5_12ActivityTypeNtNtCs9sjCchOt1K7_4core3fmt7Display3fmt
FNDA:14,_RNvXs3_NtCsa0ZJ84hKss5_16sweet_grass_core8activityNtB5_10EntityRoleNtNtCs9sjCchOt1K7_4core7default7Default7default
FNDA:0,_RNvXs_NtCsa0ZJ84hKss5_16sweet_grass_core8activityNtB4_10ActivityIdNtNtCs9sjCchOt1K7_4core7default7Default7default
FNDA:0,_RNCNvMs5_NtCsa0ZJ84hKss5_16sweet_grass_core8activityNtB7_8Activity11duration_ns0B9_
FNDA:0,_RNCNvMs5_NtCsa0ZJ84hKss5_16sweet_grass_core8activityNtB7_8Activity13primary_agent0B9_
FNDA:0,_RINvMNtCsa0ZJ84hKss5_16sweet_grass_core8activityNtB3_10ActivityId11from_stringpEB5_
FNDA:0,_RINvMs6_NtCsa0ZJ84hKss5_16sweet_grass_core8activityNtB6_15ActivityBuilder13rhizo_sessionpEB8_
FNDA:0,_RINvMs6_NtCsa0ZJ84hKss5_16sweet_grass_core8activityNtB6_15ActivityBuilder14toadstool_taskpEB8_
FNDA:0,_RINvMNtCsa0ZJ84hKss5_16sweet_grass_core8activityNtB3_10ActivityId11from_stringNtNtCs6bBekJvxEMJ_5alloc6string6StringECs7hxHRAYyWAP_26sweet_grass_store_postgres
FNDA:4,_RINvMs6_NtCsa0ZJ84hKss5_16sweet_grass_core8activityNtB6_15ActivityBuilder13rhizo_sessionRNtNtCs6bBekJvxEMJ_5alloc6string6StringECsbY6LdEOIC22_23sweet_grass_compression
FNDA:6,_RINvMs6_NtCsa0ZJ84hKss5_16sweet_grass_core8activityNtB6_15ActivityBuilder13rhizo_sessionRNtNtCs6bBekJvxEMJ_5alloc6string6StringECslQATw0AokWy_23sweet_grass_compression
FNDA:1,_RNCNvMs5_NtCsduQ6capmcSI_16sweet_grass_core8activityNtB7_8Activity11duration_ns0B9_
FNDA:1,_RNCNvMs5_NtCsduQ6capmcSI_16sweet_grass_core8activityNtB7_8Activity13primary_agent0B9_
FNDA:0,_RINvMNtCsduQ6capmcSI_16sweet_grass_core8activityNtB3_10ActivityId11from_stringpEB5_
FNDA:0,_RINvMs6_NtCsduQ6capmcSI_16sweet_grass_core8activityNtB6_15ActivityBuilder13rhizo_sessionpEB8_
FNDA:0,_RINvMs6_NtCsduQ6capmcSI_16sweet_grass_core8activityNtB6_15ActivityBuilder14toadstool_taskpEB8_
FNDA:0,_RNvMNtCsduQ6capmcSI_16sweet_grass_core8activityNtB2_10ActivityId9from_task
FNDA:0,_RNvMs4_NtCsduQ6capmcSI_16sweet_grass_core8activityNtB5_10UsedEntity3new
FNDA:0,_RNvMs4_NtCsduQ6capmcSI_16sweet_grass_core8activityNtB5_10UsedEntity9with_role
FNDA:0,_RNvMs4_NtCsduQ6capmcSI_16sweet_grass_core8activityNtB5_10UsedEntity9with_time
FNDA:0,_RNvMs6_NtCsduQ6capmcSI_16sweet_grass_core8activityNtB5_15ActivityBuilder4uses
FNDA:0,_RNvMs6_NtCsduQ6capmcSI_16sweet_grass_core8activityNtB5_15ActivityBuilder8metadata
FNDA:0,_RNvXs0_NtCsduQ6capmcSI_16sweet_grass_core8activityNtB5_10ActivityIdNtNtCs9sjCchOt1K7_4core3fmt7Display3fmt
FNDA:0,_RNvXs1_NtCsduQ6capmcSI_16sweet_grass_core8activityNtB5_12ActivityTypeNtNtCs9sjCchOt1K7_4core7default7Default7default
FNDA:0,_RNvXs2_NtCsduQ6capmcSI_16sweet_grass_core8activityNtB5_12ActivityTypeNtNtCs9sjCchOt1K7_4core3fmt7Display3fmt
FNDA:0,_RNvXs3_NtCsduQ6capmcSI_16sweet_grass_core8activityNtB5_10EntityRoleNtNtCs9sjCchOt1K7_4core7default7Default7default
FNDA:0,_RNvXs_NtCsduQ6capmcSI_16sweet_grass_core8activityNtB4_10ActivityIdNtNtCs9sjCchOt1K7_4core7default7Default7default
FNDA:1,_RNvNtNtCsduQ6capmcSI_16sweet_grass_core8activity5testss_21test_activity_builder
FNDA:1,_RNvNtNtCsduQ6capmcSI_16sweet_grass_core8activity5testss_22test_activity_duration
FNDA:1,_RNvNtNtCsduQ6capmcSI_16sweet_grass_core8activity5testss_24test_activity_incomplete
FNDA:1,_RNvNtNtCsduQ6capmcSI_16sweet_grass_core8activity5testss_27test_activity_id_generation
FNDA:1,_RNvNtNtCsduQ6capmcSI_16sweet_grass_core8activity5testss_27test_activity_serialization
FNDA:6,_RNvMNtCsduQ6capmcSI_16sweet_grass_core8activityNtB2_10ActivityId3new
FNDA:1,_RNvMNtCsduQ6capmcSI_16sweet_grass_core8activityNtB2_10ActivityId6as_str
FNDA:2,_RNvMs5_NtCsduQ6capmcSI_16sweet_grass_core8activityNtB5_8Activity11duration_ns
FNDA:2,_RNvMs5_NtCsduQ6capmcSI_16sweet_grass_core8activityNtB5_8Activity11is_complete
FNDA:1,_RNvMs5_NtCsduQ6capmcSI_16sweet_grass_core8activityNtB5_8Activity13primary_agent
FNDA:4,_RNvMs5_NtCsduQ6capmcSI_16sweet_grass_core8activityNtB5_8Activity7builder
FNDA:1,_RNvMs6_NtCsduQ6capmcSI_16sweet_grass_core8activityNtB5_15ActivityBuilder10started_at
FNDA:2,_RNvMs6_NtCsduQ6capmcSI_16sweet_grass_core8activityNtB5_15ActivityBuilder13compute_units
FNDA:1,_RNvMs6_NtCsduQ6capmcSI_16sweet_grass_core8activityNtB5_15ActivityBuilder15associated_with
FNDA:4,_RNvMs6_NtCsduQ6capmcSI_16sweet_grass_core8activityNtB5_15ActivityBuilder3new
FNDA:4,_RNvMs6_NtCsduQ6capmcSI_16sweet_grass_core8activityNtB5_15ActivityBuilder5build
FNDA:1,_RNvMs6_NtCsduQ6capmcSI_16sweet_grass_core8activityNtB5_15ActivityBuilder8ended_at
FNF:33
FNH:25
DA:20,25
DA:21,25
DA:22,25
DA:26,1
DA:27,1
DA:28,1
DA:32,0
DA:33,0
DA:34,0
DA:38,11
DA:39,11
DA:40,11
DA:44,0
DA:45,0
DA:46,0
DA:50,0
DA:51,0
DA:52,0
DA:146,0
DA:147,0
DA:148,0
DA:152,35
DA:153,35
DA:154,0
DA:155,35
DA:157,35
DA:180,14
DA:181,14
DA:182,14
DA:230,14
DA:231,14
DA:232,14
DA:233,14
DA:234,14
DA:235,14
DA:236,14
DA:237,14
DA:241,0
DA:242,0
DA:243,0
DA:244,0
DA:248,0
DA:249,0
DA:250,0
DA:251,0
DA:348,23
DA:349,23
DA:350,23
DA:354,2
DA:355,2
DA:356,2
DA:357,2
DA:361,2
DA:362,2
DA:363,2
DA:367,1
DA:368,1
DA:369,1
DA:386,23
DA:387,23
DA:388,23
DA:389,23
DA:390,23
DA:391,23
DA:392,23
DA:393,23
DA:394,23
DA:395,23
DA:396,23
DA:400,10
DA:401,10
DA:402,10
DA:403,10
DA:407,19
DA:408,19
DA:409,19
DA:410,19
DA:414,11
DA:415,11
DA:416,11
DA:417,11
DA:421,8
DA:422,8
DA:423,8
DA:424,8
DA:428,14
DA:429,14
DA:430,14
DA:431,14
DA:435,10
DA:436,10
DA:437,10
DA:438,10
DA:442,0
DA:443,0
DA:444,0
DA:445,0
DA:449,0
DA:450,0
DA:451,0
DA:452,0
DA:456,23
DA:457,23
DA:458,23
DA:459,23
DA:460,23
DA:461,23
DA:462,23
DA:463,23
DA:464,23
DA:465,23
DA:466,23
DA:467,23
DA:477,1
DA:478,1
DA:479,1
DA:480,1
DA:481,1
DA:482,1
DA:485,1
DA:486,1
DA:487,1
DA:488,1
DA:489,1
DA:490,1
DA:491,1
DA:492,1
DA:493,1
DA:494,1
DA:495,1
DA:498,1
DA:499,1
DA:500,1
DA:501,1
DA:502,1
DA:503,1
DA:504,1
DA:505,1
DA:506,1
DA:509,1
DA:510,1
DA:511,1
DA:512,1
DA:513,1
DA:516,1
DA:517,1
DA:518,1
DA:519,1
DA:520,1
DA:521,1
DA:522,1
DA:523,1
DA:525,1
DA:526,1
DA:527,1
BRF:0
BRH:0
LF:157
LH:128
end_of_record
SF:/home/strandgate/Development/ecoPrimals/phase2/sweetGrass/crates/sweet-grass-core/src/agent.rs
FN:15,_RINvMNtCsa0ZJ84hKss5_16sweet_grass_core5agentNtB3_3Did3newNtNtCs6bBekJvxEMJ_5alloc6string6StringEB5_
FN:15,_RINvMNtCsa0ZJ84hKss5_16sweet_grass_core5agentNtB3_3Did3newReEB5_
FN:21,_RNvMNtCsa0ZJ84hKss5_16sweet_grass_core5agentNtB2_3Did6as_str
FN:33,_RNvMNtCsa0ZJ84hKss5_16sweet_grass_core5agentNtB2_3Did6method
FN:27,_RNvMNtCsa0ZJ84hKss5_16sweet_grass_core5agentNtB2_3Did8is_valid
FN:161,_RNvMs5_NtCsa0ZJ84hKss5_16sweet_grass_core5agentNtB5_9AgentRole14default_weight
FN:221,_RNvMs6_NtCsa0ZJ84hKss5_16sweet_grass_core5agentNtB5_16AgentAssociation12is_delegated
FN:207,_RNvMs6_NtCsa0ZJ84hKss5_16sweet_grass_core5agentNtB5_16AgentAssociation12on_behalf_of
FN:196,_RNvMs6_NtCsa0ZJ84hKss5_16sweet_grass_core5agentNtB5_16AgentAssociation3new
FN:245,_RNvMs7_NtCsa0ZJ84hKss5_16sweet_grass_core5agentNtB5_5Agent6person
FN:48,_RNvXs0_NtCsa0ZJ84hKss5_16sweet_grass_core5agentNtB5_3DidINtNtCs9sjCchOt1K7_4core7convert4FromReE4from
FN:54,_RNvXs1_NtCsa0ZJ84hKss5_16sweet_grass_core5agentNtB5_3DidINtNtCs9sjCchOt1K7_4core7convert4FromNtNtCs6bBekJvxEMJ_5alloc6string6StringE4from
FN:98,_RNvXs2_NtCsa0ZJ84hKss5_16sweet_grass_core5agentNtB5_9AgentTypeNtNtCs9sjCchOt1K7_4core7default7Default7default
FN:144,_RNvXs3_NtCsa0ZJ84hKss5_16sweet_grass_core5agentNtB5_9AgentRoleNtNtCs9sjCchOt1K7_4core7default7Default7default
FN:150,_RNvXs4_NtCsa0ZJ84hKss5_16sweet_grass_core5agentNtB5_9AgentRoleNtNtCs9sjCchOt1K7_4core3fmt7Display3fmt
FN:42,_RNvXs_NtCsa0ZJ84hKss5_16sweet_grass_core5agentNtB4_3DidNtNtCs9sjCchOt1K7_4core3fmt7Display3fmt
FN:214,_RINvMs6_NtCsa0ZJ84hKss5_16sweet_grass_core5agentNtB6_16AgentAssociation9with_planpEB8_
FN:273,_RINvMs7_NtCsa0ZJ84hKss5_16sweet_grass_core5agentNtB6_5Agent12organizationpEB8_
FN:255,_RINvMs7_NtCsa0ZJ84hKss5_16sweet_grass_core5agentNtB6_5Agent8softwareppEB8_
FN:214,_RINvMs6_NtCsduQ6capmcSI_16sweet_grass_core5agentNtB6_16AgentAssociation9with_planpEB8_
FN:273,_RINvMs7_NtCsduQ6capmcSI_16sweet_grass_core5agentNtB6_5Agent12organizationpEB8_
FN:21,_RNvMNtCsduQ6capmcSI_16sweet_grass_core5agentNtB2_3Did6as_str
FN:54,_RNvXs1_NtCsduQ6capmcSI_16sweet_grass_core5agentNtB5_3DidINtNtCs9sjCchOt1K7_4core7convert4FromNtNtCs6bBekJvxEMJ_5alloc6string6StringE4from
FN:98,_RNvXs2_NtCsduQ6capmcSI_16sweet_grass_core5agentNtB5_9AgentTypeNtNtCs9sjCchOt1K7_4core7default7Default7default
FN:144,_RNvXs3_NtCsduQ6capmcSI_16sweet_grass_core5agentNtB5_9AgentRoleNtNtCs9sjCchOt1K7_4core7default7Default7default
FN:150,_RNvXs4_NtCsduQ6capmcSI_16sweet_grass_core5agentNtB5_9AgentRoleNtNtCs9sjCchOt1K7_4core3fmt7Display3fmt
FN:42,_RNvXs_NtCsduQ6capmcSI_16sweet_grass_core5agentNtB4_3DidNtNtCs9sjCchOt1K7_4core3fmt7Display3fmt
FN:299,_RNvNtNtCsduQ6capmcSI_16sweet_grass_core5agent5testss_16test_did_invalid
FN:334,_RNvNtNtCsduQ6capmcSI_16sweet_grass_core5agent5testss_17test_agent_person
FN:292,_RNvNtNtCsduQ6capmcSI_16sweet_grass_core5agent5testss_17test_did_creation
FN:344,_RNvNtNtCsduQ6capmcSI_16sweet_grass_core5agent5testss_19test_agent_software
FN:306,_RNvNtNtCsduQ6capmcSI_16sweet_grass_core5agent5testss_20test_did_from_string
FN:322,_RNvNtNtCsduQ6capmcSI_16sweet_grass_core5agent5testss_22test_agent_association
FN:313,_RNvNtNtCsduQ6capmcSI_16sweet_grass_core5agent5testss_23test_agent_role_weights
FN:357,_RNvNtNtCsduQ6capmcSI_16sweet_grass_core5agent5testss_24test_agent_serialization
FN:15,_RINvMNtCsduQ6capmcSI_16sweet_grass_core5agentNtB3_3Did3newNtNtCs6bBekJvxEMJ_5alloc6string6StringEB5_
FN:15,_RINvMNtCsduQ6capmcSI_16sweet_grass_core5agentNtB3_3Did3newReEB5_
FN:255,_RINvMs7_NtCsduQ6capmcSI_16sweet_grass_core5agentNtB6_5Agent8softwareReB14_EB8_
FN:33,_RNvMNtCsduQ6capmcSI_16sweet_grass_core5agentNtB2_3Did6method
FN:27,_RNvMNtCsduQ6capmcSI_16sweet_grass_core5agentNtB2_3Did8is_valid
FN:161,_RNvMs5_NtCsduQ6capmcSI_16sweet_grass_core5agentNtB5_9AgentRole14default_weight
FN:221,_RNvMs6_NtCsduQ6capmcSI_16sweet_grass_core5agentNtB5_16AgentAssociation12is_delegated
FN:207,_RNvMs6_NtCsduQ6capmcSI_16sweet_grass_core5agentNtB5_16AgentAssociation12on_behalf_of
FN:196,_RNvMs6_NtCsduQ6capmcSI_16sweet_grass_core5agentNtB5_16AgentAssociation3new
FN:245,_RNvMs7_NtCsduQ6capmcSI_16sweet_grass_core5agentNtB5_5Agent6person
FN:48,_RNvXs0_NtCsduQ6capmcSI_16sweet_grass_core5agentNtB5_3DidINtNtCs9sjCchOt1K7_4core7convert4FromReE4from
FN:15,_RINvMNtCsa0ZJ84hKss5_16sweet_grass_core5agentNtB3_3Did3newRNtNtCs6bBekJvxEMJ_5alloc6string6StringECsdjAd9q7fPo9_19sweet_grass_service
FN:15,_RINvMNtCsa0ZJ84hKss5_16sweet_grass_core5agentNtB3_3Did3newRNtNtCs6bBekJvxEMJ_5alloc6string6StringECsZK8v8cnrxE_19sweet_grass_service
FNDA:3827,_RINvMNtCsa0ZJ84hKss5_16sweet_grass_core5agentNtB3_3Did3newNtNtCs6bBekJvxEMJ_5alloc6string6StringEB5_
FNDA:436,_RINvMNtCsa0ZJ84hKss5_16sweet_grass_core5agentNtB3_3Did3newReEB5_
FNDA:1552,_RNvMNtCsa0ZJ84hKss5_16sweet_grass_core5agentNtB2_3Did6as_str
FNDA:0,_RNvMNtCsa0ZJ84hKss5_16sweet_grass_core5agentNtB2_3Did6method
FNDA:0,_RNvMNtCsa0ZJ84hKss5_16sweet_grass_core5agentNtB2_3Did8is_valid
FNDA:0,_RNvMs5_NtCsa0ZJ84hKss5_16sweet_grass_core5agentNtB5_9AgentRole14default_weight
FNDA:0,_RNvMs6_NtCsa0ZJ84hKss5_16sweet_grass_core5agentNtB5_16AgentAssociation12is_delegated
FNDA:0,_RNvMs6_NtCsa0ZJ84hKss5_16sweet_grass_core5agentNtB5_16AgentAssociation12on_behalf_of
FNDA:18,_RNvMs6_NtCsa0ZJ84hKss5_16sweet_grass_core5agentNtB5_16AgentAssociation3new
FNDA:0,_RNvMs7_NtCsa0ZJ84hKss5_16sweet_grass_core5agentNtB5_5Agent6person
FNDA:0,_RNvXs0_NtCsa0ZJ84hKss5_16sweet_grass_core5agentNtB5_3DidINtNtCs9sjCchOt1K7_4core7convert4FromReE4from
FNDA:0,_RNvXs1_NtCsa0ZJ84hKss5_16sweet_grass_core5agentNtB5_3DidINtNtCs9sjCchOt1K7_4core7convert4FromNtNtCs6bBekJvxEMJ_5alloc6string6StringE4from
FNDA:0,_RNvXs2_NtCsa0ZJ84hKss5_16sweet_grass_core5agentNtB5_9AgentTypeNtNtCs9sjCchOt1K7_4core7default7Default7default
FNDA:0,_RNvXs3_NtCsa0ZJ84hKss5_16sweet_grass_core5agentNtB5_9AgentRoleNtNtCs9sjCchOt1K7_4core7default7Default7default
FNDA:0,_RNvXs4_NtCsa0ZJ84hKss5_16sweet_grass_core5agentNtB5_9AgentRoleNtNtCs9sjCchOt1K7_4core3fmt7Display3fmt
FNDA:4,_RNvXs_NtCsa0ZJ84hKss5_16sweet_grass_core5agentNtB4_3DidNtNtCs9sjCchOt1K7_4core3fmt7Display3fmt
FNDA:0,_RINvMs6_NtCsa0ZJ84hKss5_16sweet_grass_core5agentNtB6_16AgentAssociation9with_planpEB8_
FNDA:0,_RINvMs7_NtCsa0ZJ84hKss5_16sweet_grass_core5agentNtB6_5Agent12organizationpEB8_
FNDA:0,_RINvMs7_NtCsa0ZJ84hKss5_16sweet_grass_core5agentNtB6_5Agent8softwareppEB8_
FNDA:0,_RINvMs6_NtCsduQ6capmcSI_16sweet_grass_core5agentNtB6_16AgentAssociation9with_planpEB8_
FNDA:0,_RINvMs7_NtCsduQ6capmcSI_16sweet_grass_core5agentNtB6_5Agent12organizationpEB8_
FNDA:0,_RNvMNtCsduQ6capmcSI_16sweet_grass_core5agentNtB2_3Did6as_str
FNDA:0,_RNvXs1_NtCsduQ6capmcSI_16sweet_grass_core5agentNtB5_3DidINtNtCs9sjCchOt1K7_4core7convert4FromNtNtCs6bBekJvxEMJ_5alloc6string6StringE4from
FNDA:0,_RNvXs2_NtCsduQ6capmcSI_16sweet_grass_core5agentNtB5_9AgentTypeNtNtCs9sjCchOt1K7_4core7default7Default7default
FNDA:0,_RNvXs3_NtCsduQ6capmcSI_16sweet_grass_core5agentNtB5_9AgentRoleNtNtCs9sjCchOt1K7_4core7default7Default7default
FNDA:0,_RNvXs4_NtCsduQ6capmcSI_16sweet_grass_core5agentNtB5_9AgentRoleNtNtCs9sjCchOt1K7_4core3fmt7Display3fmt
FNDA:0,_RNvXs_NtCsduQ6capmcSI_16sweet_grass_core5agentNtB4_3DidNtNtCs9sjCchOt1K7_4core3fmt7Display3fmt
FNDA:1,_RNvNtNtCsduQ6capmcSI_16sweet_grass_core5agent5testss_16test_did_invalid
FNDA:1,_RNvNtNtCsduQ6capmcSI_16sweet_grass_core5agent5testss_17test_agent_person
FNDA:1,_RNvNtNtCsduQ6capmcSI_16sweet_grass_core5agent5testss_17test_did_creation
FNDA:1,_RNvNtNtCsduQ6capmcSI_16sweet_grass_core5agent5testss_19test_agent_software
FNDA:1,_RNvNtNtCsduQ6capmcSI_16sweet_grass_core5agent5testss_20test_did_from_string
FNDA:1,_RNvNtNtCsduQ6capmcSI_16sweet_grass_core5agent5testss_22test_agent_association
FNDA:1,_RNvNtNtCsduQ6capmcSI_16sweet_grass_core5agent5testss_23test_agent_role_weights
FNDA:1,_RNvNtNtCsduQ6capmcSI_16sweet_grass_core5agent5testss_24test_agent_serialization
FNDA:768,_RINvMNtCsduQ6capmcSI_16sweet_grass_core5agentNtB3_3Did3newNtNtCs6bBekJvxEMJ_5alloc6string6StringEB5_
FNDA:19,_RINvMNtCsduQ6capmcSI_16sweet_grass_core5agentNtB3_3Did3newReEB5_
FNDA:1,_RINvMs7_NtCsduQ6capmcSI_16sweet_grass_core5agentNtB6_5Agent8softwareReB14_EB8_
FNDA:3,_RNvMNtCsduQ6capmcSI_16sweet_grass_core5agentNtB2_3Did6method
FNDA:6,_RNvMNtCsduQ6capmcSI_16sweet_grass_core5agentNtB2_3Did8is_valid
FNDA:3,_RNvMs5_NtCsduQ6capmcSI_16sweet_grass_core5agentNtB5_9AgentRole14default_weight
FNDA:1,_RNvMs6_NtCsduQ6capmcSI_16sweet_grass_core5agentNtB5_16AgentAssociation12is_delegated
FNDA:1,_RNvMs6_NtCsduQ6capmcSI_16sweet_grass_core5agentNtB5_16AgentAssociation12on_behalf_of
FNDA:2,_RNvMs6_NtCsduQ6capmcSI_16sweet_grass_core5agentNtB5_16AgentAssociation3new
FNDA:2,_RNvMs7_NtCsduQ6capmcSI_16sweet_grass_core5agentNtB5_5Agent6person
FNDA:1,_RNvXs0_NtCsduQ6capmcSI_16sweet_grass_core5agentNtB5_3DidINtNtCs9sjCchOt1K7_4core7convert4FromReE4from
FNDA:0,_RINvMNtCsa0ZJ84hKss5_16sweet_grass_core5agentNtB3_3Did3newRNtNtCs6bBekJvxEMJ_5alloc6string6StringECsdjAd9q7fPo9_19sweet_grass_service
FNDA:4,_RINvMNtCsa0ZJ84hKss5_16sweet_grass_core5agentNtB3_3Did3newRNtNtCs6bBekJvxEMJ_5alloc6string6StringECsZK8v8cnrxE_19sweet_grass_service
FNF:26
FNH:20
DA:15,5054
DA:16,5054
DA:17,5054
DA:21,1552
DA:22,1552
DA:23,1552
DA:27,6
DA:28,6
DA:29,6
DA:33,3
DA:34,3
DA:35,1
DA:36,2
DA:37,2
DA:38,3
DA:42,4
DA:43,4
DA:44,4
DA:48,1
DA:49,1
DA:50,1
DA:54,0
DA:55,0
DA:56,0
DA:98,0
DA:99,0
DA:100,0
DA:144,0
DA:145,0
DA:146,0
DA:150,0
DA:151,0
DA:152,0
DA:153,0
DA:155,0
DA:161,3
DA:162,3
DA:163,1
DA:164,1
DA:165,0
DA:166,0
DA:167,1
DA:168,0
DA:169,0
DA:170,0
DA:172,3
DA:196,20
DA:197,20
DA:198,20
DA:199,20
DA:200,20
DA:201,20
DA:202,20
DA:203,20
DA:207,1
DA:208,1
DA:209,1
DA:210,1
DA:214,0
DA:215,0
DA:216,0
DA:217,0
DA:221,1
DA:222,1
DA:223,1
DA:245,2
DA:246,2
DA:247,2
DA:248,2
DA:249,2
DA:250,2
DA:251,2
DA:255,1
DA:256,1
DA:257,1
DA:258,1
DA:259,1
DA:260,1
DA:261,1
DA:262,1
DA:263,1
DA:264,1
DA:265,1
DA:266,1
DA:267,1
DA:268,1
DA:269,1
DA:273,0
DA:274,0
DA:275,0
DA:276,0
DA:277,0
DA:278,0
DA:279,0
DA:280,0
DA:281,0
DA:282,0
DA:283,0
DA:292,1
DA:293,1
DA:294,1
DA:295,1
DA:296,1
DA:299,1
DA:300,1
DA:301,1
DA:302,1
DA:303,1
DA:306,1
DA:307,1
DA:308,1
DA:309,1
DA:310,1
DA:313,1
DA:314,1
DA:315,1
DA:316,1
DA:317,1
DA:318,1
DA:319,1
DA:322,1
DA:323,1
DA:324,1
DA:325,1
DA:326,1
DA:327,1
DA:328,1
DA:329,1
DA:330,1
DA:331,1
DA:334,1
DA:335,1
DA:336,1
DA:337,1
DA:338,1
DA:339,1
DA:340,1
DA:341,1
DA:344,1
DA:345,1
DA:346,1
DA:347,1
DA:348,1
DA:349,1
DA:350,1
DA:351,1
DA:352,1
DA:354,1
DA:357,1
DA:358,1
DA:359,1
DA:360,1
DA:361,1
DA:362,1
DA:363,1
DA:365,1
DA:366,1
DA:367,1
BRF:0
BRH:0
LF:158
LH:124
end_of_record
SF:/home/strandgate/Development/ecoPrimals/phase2/sweetGrass/crates/sweet-grass-core/src/braid.rs
FN:435,_RINvMs5_NtCsa0ZJ84hKss5_16sweet_grass_core5braidNtB6_12BraidBuilder9data_hashNtNtCs6bBekJvxEMJ_5alloc6string6StringECsbdDWz5NO8Tp_19sweet_grass_factory
FN:442,_RINvMs5_NtCsa0ZJ84hKss5_16sweet_grass_core5braidNtB6_12BraidBuilder9mime_typeReECsbdDWz5NO8Tp_19sweet_grass_factory
FN:48,_RNvMNtCsa0ZJ84hKss5_16sweet_grass_core5braidNtB2_7BraidId11from_string
FN:30,_RNvMNtCsa0ZJ84hKss5_16sweet_grass_core5braidNtB2_7BraidId3new
FN:42,_RNvMNtCsa0ZJ84hKss5_16sweet_grass_core5braidNtB2_7BraidId6as_str
FN:36,_RNvMNtCsa0ZJ84hKss5_16sweet_grass_core5braidNtB2_7BraidId9from_hash
FN:202,_RNvMs3_NtCsa0ZJ84hKss5_16sweet_grass_core5braidNtB5_14BraidSignature11new_ed25519
FN:215,_RNvMs3_NtCsa0ZJ84hKss5_16sweet_grass_core5braidNtB5_14BraidSignature8unsigned
FN:383,_RNvMs4_NtCsa0ZJ84hKss5_16sweet_grass_core5braidNtB5_5Braid11is_anchored
FN:395,_RNvMs4_NtCsa0ZJ84hKss5_16sweet_grass_core5braidNtB5_5Braid12content_hash
FN:401,_RNvMs4_NtCsa0ZJ84hKss5_16sweet_grass_core5braidNtB5_5Braid20compute_signing_hash
FN:377,_RNvMs4_NtCsa0ZJ84hKss5_16sweet_grass_core5braidNtB5_5Braid7builder
FN:389,_RNvMs4_NtCsa0ZJ84hKss5_16sweet_grass_core5braidNtB5_5Braid9is_signed
FN:456,_RNvMs5_NtCsa0ZJ84hKss5_16sweet_grass_core5braidNtB5_12BraidBuilder10braid_type
FN:470,_RNvMs5_NtCsa0ZJ84hKss5_16sweet_grass_core5braidNtB5_12BraidBuilder12derived_from
FN:463,_RNvMs5_NtCsa0ZJ84hKss5_16sweet_grass_core5braidNtB5_12BraidBuilder12generated_by
FN:477,_RNvMs5_NtCsa0ZJ84hKss5_16sweet_grass_core5braidNtB5_12BraidBuilder13attributed_to
FN:491,_RNvMs5_NtCsa0ZJ84hKss5_16sweet_grass_core5braidNtB5_12BraidBuilder4ecop
FN:449,_RNvMs5_NtCsa0ZJ84hKss5_16sweet_grass_core5braidNtB5_12BraidBuilder4size
FN:501,_RNvMs5_NtCsa0ZJ84hKss5_16sweet_grass_core5braidNtB5_12BraidBuilder5build
FN:484,_RNvMs5_NtCsa0ZJ84hKss5_16sweet_grass_core5braidNtB5_12BraidBuilder8metadata
FN:537,_RNvNtCsa0ZJ84hKss5_16sweet_grass_core5braid23current_timestamp_nanos
FN:60,_RNvXs0_NtCsa0ZJ84hKss5_16sweet_grass_core5braidNtB5_7BraidIdNtNtCs9sjCchOt1K7_4core3fmt7Display3fmt
FN:104,_RNvXs1_NtCsa0ZJ84hKss5_16sweet_grass_core5braidNtB5_9BraidTypeNtNtCs9sjCchOt1K7_4core7default7Default7default
FN:158,_RNvXs2_NtCsa0ZJ84hKss5_16sweet_grass_core5braidNtB5_12BraidContextNtNtCs9sjCchOt1K7_4core7default7Default7default
FN:54,_RNvXs_NtCsa0ZJ84hKss5_16sweet_grass_core5braidNtB4_7BraidIdNtNtCs9sjCchOt1K7_4core7default7Default7default
FN:549,_RINvNtNtCsa0ZJ84hKss5_16sweet_grass_core5braid3hex6encodeINtCs7YL0RsgwZ9U_13generic_array12GenericArrayhINtNtCs5ghkrjm3W6E_7typenum4uint4UIntIB1F_IB1F_IB1F_IB1F_IB1F_NtB1H_5UTermNtNtB1J_3bit2B1ENtB2S_2B0EB36_EB36_EB36_EB36_EEEB6_
FN:550,_RNCINvNtNtCsa0ZJ84hKss5_16sweet_grass_core5braid3hex6encodeINtCs7YL0RsgwZ9U_13generic_array12GenericArrayhINtNtCs5ghkrjm3W6E_7typenum4uint4UIntIB1H_IB1H_IB1H_IB1H_IB1H_NtB1J_5UTermNtNtB1L_3bit2B1ENtB2U_2B0EB38_EB38_EB38_EB38_EEE0B8_
FN:504,_RNCNvMs5_NtCsa0ZJ84hKss5_16sweet_grass_core5braidNtB7_12BraidBuilder5build0B9_
FN:510,_RNCNvMs5_NtCsa0ZJ84hKss5_16sweet_grass_core5braidNtB7_12BraidBuilder5builds0_0B9_
FN:511,_RNCNvMs5_NtCsa0ZJ84hKss5_16sweet_grass_core5braidNtB7_12BraidBuilder5builds1_0B9_
FN:507,_RNCNvMs5_NtCsa0ZJ84hKss5_16sweet_grass_core5braidNtB7_12BraidBuilder5builds_0B9_
FN:541,_RNCNvNtCsa0ZJ84hKss5_16sweet_grass_core5braid23current_timestamp_nanos0B5_
FN:435,_RINvMs5_NtCsa0ZJ84hKss5_16sweet_grass_core5braidNtB6_12BraidBuilder9data_hashpEB8_
FN:442,_RINvMs5_NtCsa0ZJ84hKss5_16sweet_grass_core5braidNtB6_12BraidBuilder9mime_typepEB8_
FN:435,_RINvMs5_NtCsa0ZJ84hKss5_16sweet_grass_core5braidNtB6_12BraidBuilder9data_hashNtNtCs6bBekJvxEMJ_5alloc6string6StringECscy77UfsAwxJ_11integration
FN:435,_RINvMs5_NtCsa0ZJ84hKss5_16sweet_grass_core5braidNtB6_12BraidBuilder9data_hashReECscy77UfsAwxJ_11integration
FN:442,_RINvMs5_NtCsa0ZJ84hKss5_16sweet_grass_core5braidNtB6_12BraidBuilder9mime_typeReECscy77UfsAwxJ_11integration
FN:435,_RINvMs5_NtCsa0ZJ84hKss5_16sweet_grass_core5braidNtB6_12BraidBuilder9data_hashRNtNtCs6bBekJvxEMJ_5alloc6string6StringECs7hxHRAYyWAP_26sweet_grass_store_postgres
FN:442,_RINvMs5_NtCsa0ZJ84hKss5_16sweet_grass_core5braidNtB6_12BraidBuilder9mime_typeRNtNtCs6bBekJvxEMJ_5alloc6string6StringECs7hxHRAYyWAP_26sweet_grass_store_postgres
FN:435,_RINvMs5_NtCsa0ZJ84hKss5_16sweet_grass_core5braidNtB6_12BraidBuilder9data_hashRNtNtCs6bBekJvxEMJ_5alloc6string6StringECsbY6LdEOIC22_23sweet_grass_compression
FN:442,_RINvMs5_NtCsa0ZJ84hKss5_16sweet_grass_core5braidNtB6_12BraidBuilder9mime_typeRNtNtCs6bBekJvxEMJ_5alloc6string6StringECsbY6LdEOIC22_23sweet_grass_compression
FN:435,_RINvMs5_NtCsa0ZJ84hKss5_16sweet_grass_core5braidNtB6_12BraidBuilder9data_hashRNtNtCs6bBekJvxEMJ_5alloc6string6StringECslQATw0AokWy_23sweet_grass_compression
FN:435,_RINvMs5_NtCsa0ZJ84hKss5_16sweet_grass_core5braidNtB6_12BraidBuilder9data_hashReECslQATw0AokWy_23sweet_grass_compression
FN:442,_RINvMs5_NtCsa0ZJ84hKss5_16sweet_grass_core5braidNtB6_12BraidBuilder9mime_typeRNtNtCs6bBekJvxEMJ_5alloc6string6StringECslQATw0AokWy_23sweet_grass_compression
FN:435,_RINvMs5_NtCsduQ6capmcSI_16sweet_grass_core5braidNtB6_12BraidBuilder9data_hashRNtNtCs6bBekJvxEMJ_5alloc6string6StringEB8_
FN:435,_RINvMs5_NtCsduQ6capmcSI_16sweet_grass_core5braidNtB6_12BraidBuilder9data_hashReEB8_
FN:442,_RINvMs5_NtCsduQ6capmcSI_16sweet_grass_core5braidNtB6_12BraidBuilder9mime_typeRNtNtCs6bBekJvxEMJ_5alloc6string6StringEB8_
FN:442,_RINvMs5_NtCsduQ6capmcSI_16sweet_grass_core5braidNtB6_12BraidBuilder9mime_typeReEB8_
FN:504,_RNCNvMs5_NtCsduQ6capmcSI_16sweet_grass_core5braidNtB7_12BraidBuilder5build0B9_
FN:510,_RNCNvMs5_NtCsduQ6capmcSI_16sweet_grass_core5braidNtB7_12BraidBuilder5builds0_0B9_
FN:511,_RNCNvMs5_NtCsduQ6capmcSI_16sweet_grass_core5braidNtB7_12BraidBuilder5builds1_0B9_
FN:507,_RNCNvMs5_NtCsduQ6capmcSI_16sweet_grass_core5braidNtB7_12BraidBuilder5builds_0B9_
FN:541,_RNCNvNtCsduQ6capmcSI_16sweet_grass_core5braid23current_timestamp_nanos0B5_
FN:549,_RINvNtNtCsduQ6capmcSI_16sweet_grass_core5braid3hex6encodepEB6_
FN:550,_RNCINvNtNtCsduQ6capmcSI_16sweet_grass_core5braid3hex6encodepE0B8_
FN:48,_RNvMNtCsduQ6capmcSI_16sweet_grass_core5braidNtB2_7BraidId11from_string
FN:202,_RNvMs3_NtCsduQ6capmcSI_16sweet_grass_core5braidNtB5_14BraidSignature11new_ed25519
FN:395,_RNvMs4_NtCsduQ6capmcSI_16sweet_grass_core5braidNtB5_5Braid12content_hash
FN:401,_RNvMs4_NtCsduQ6capmcSI_16sweet_grass_core5braidNtB5_5Braid20compute_signing_hash
FN:456,_RNvMs5_NtCsduQ6capmcSI_16sweet_grass_core5braidNtB5_12BraidBuilder10braid_type
FN:470,_RNvMs5_NtCsduQ6capmcSI_16sweet_grass_core5braidNtB5_12BraidBuilder12derived_from
FN:463,_RNvMs5_NtCsduQ6capmcSI_16sweet_grass_core5braidNtB5_12BraidBuilder12generated_by
FN:491,_RNvMs5_NtCsduQ6capmcSI_16sweet_grass_core5braidNtB5_12BraidBuilder4ecop
FN:484,_RNvMs5_NtCsduQ6capmcSI_16sweet_grass_core5braidNtB5_12BraidBuilder8metadata
FN:60,_RNvXs0_NtCsduQ6capmcSI_16sweet_grass_core5braidNtB5_7BraidIdNtNtCs9sjCchOt1K7_4core3fmt7Display3fmt
FN:54,_RNvXs_NtCsduQ6capmcSI_16sweet_grass_core5braidNtB4_7BraidIdNtNtCs9sjCchOt1K7_4core7default7Default7default
FN:641,_RNCNvNtNtCsduQ6capmcSI_16sweet_grass_core5braid9proptests15arb_sha256_hash0B7_
FN:646,_RNCNvNtNtCsduQ6capmcSI_16sweet_grass_core5braid9proptests7arb_did0B7_
FN:578,_RNvNtNtCsduQ6capmcSI_16sweet_grass_core5braid5testss_18test_braid_builder
FN:572,_RNvNtNtCsduQ6capmcSI_16sweet_grass_core5braid5testss_23test_braid_id_from_hash
FN:564,_RNvNtNtCsduQ6capmcSI_16sweet_grass_core5braid5testss_24test_braid_id_generation
FN:611,_RNvNtNtCsduQ6capmcSI_16sweet_grass_core5braid5testss_24test_braid_serialization
FN:603,_RNvNtNtCsduQ6capmcSI_16sweet_grass_core5braid5testss_26test_braid_context_default
FN:597,_RNvNtNtCsduQ6capmcSI_16sweet_grass_core5braid5testss_35test_braid_builder_missing_required
FN:30,_RNvMNtCsduQ6capmcSI_16sweet_grass_core5braidNtB2_7BraidId3new
FN:42,_RNvMNtCsduQ6capmcSI_16sweet_grass_core5braidNtB2_7BraidId6as_str
FN:36,_RNvMNtCsduQ6capmcSI_16sweet_grass_core5braidNtB2_7BraidId9from_hash
FN:215,_RNvMs3_NtCsduQ6capmcSI_16sweet_grass_core5braidNtB5_14BraidSignature8unsigned
FN:383,_RNvMs4_NtCsduQ6capmcSI_16sweet_grass_core5braidNtB5_5Braid11is_anchored
FN:377,_RNvMs4_NtCsduQ6capmcSI_16sweet_grass_core5braidNtB5_5Braid7builder
FN:389,_RNvMs4_NtCsduQ6capmcSI_16sweet_grass_core5braidNtB5_5Braid9is_signed
FN:477,_RNvMs5_NtCsduQ6capmcSI_16sweet_grass_core5braidNtB5_12BraidBuilder13attributed_to
FN:449,_RNvMs5_NtCsduQ6capmcSI_16sweet_grass_core5braidNtB5_12BraidBuilder4size
FN:501,_RNvMs5_NtCsduQ6capmcSI_16sweet_grass_core5braidNtB5_12BraidBuilder5build
FN:537,_RNvNtCsduQ6capmcSI_16sweet_grass_core5braid23current_timestamp_nanos
FN:104,_RNvXs1_NtCsduQ6capmcSI_16sweet_grass_core5braidNtB5_9BraidTypeNtNtCs9sjCchOt1K7_4core7default7Default7default
FN:158,_RNvXs2_NtCsduQ6capmcSI_16sweet_grass_core5braidNtB5_12BraidContextNtNtCs9sjCchOt1K7_4core7default7Default7default
FN:650,_RNvNtNtCsduQ6capmcSI_16sweet_grass_core5braid9proptests13arb_mime_type
FN:640,_RNvNtNtCsduQ6capmcSI_16sweet_grass_core5braid9proptests15arb_sha256_hash
FN:645,_RNvNtNtCsduQ6capmcSI_16sweet_grass_core5braid9proptests7arb_did
FN:435,_RINvMs5_NtCsa0ZJ84hKss5_16sweet_grass_core5braidNtB6_12BraidBuilder9data_hashNtNtCs6bBekJvxEMJ_5alloc6string6StringECshDWcvDuPayx_19sweet_grass_factory
FN:435,_RINvMs5_NtCsa0ZJ84hKss5_16sweet_grass_core5braidNtB6_12BraidBuilder9data_hashReECshDWcvDuPayx_19sweet_grass_factory
FN:442,_RINvMs5_NtCsa0ZJ84hKss5_16sweet_grass_core5braidNtB6_12BraidBuilder9mime_typeReECshDWcvDuPayx_19sweet_grass_factory
FN:435,_RINvMs5_NtCsa0ZJ84hKss5_16sweet_grass_core5braidNtB6_12BraidBuilder9data_hashReECs4hEEQusrzoB_23sweet_grass_integration
FN:435,_RINvMs5_NtCsa0ZJ84hKss5_16sweet_grass_core5braidNtB6_12BraidBuilder9data_hashReECs53T6FtQI1eQ_17sweet_grass_query
FN:442,_RINvMs5_NtCsa0ZJ84hKss5_16sweet_grass_core5braidNtB6_12BraidBuilder9mime_typeNtNtCs6bBekJvxEMJ_5alloc6string6StringECsdjAd9q7fPo9_19sweet_grass_service
FN:442,_RINvMs5_NtCsa0ZJ84hKss5_16sweet_grass_core5braidNtB6_12BraidBuilder9mime_typeNtNtCs6bBekJvxEMJ_5alloc6string6StringECsZK8v8cnrxE_19sweet_grass_service
FN:435,_RINvMs5_NtCsa0ZJ84hKss5_16sweet_grass_core5braidNtB6_12BraidBuilder9data_hashReECs2vbG1lxBQSc_17sweet_grass_store
FN:442,_RINvMs5_NtCsa0ZJ84hKss5_16sweet_grass_core5braidNtB6_12BraidBuilder9mime_typeReECs2vbG1lxBQSc_17sweet_grass_store
FN:435,_RINvMs5_NtCsa0ZJ84hKss5_16sweet_grass_core5braidNtB6_12BraidBuilder9data_hashReECsxcqoHi7A0v_22sweet_grass_store_sled
FN:442,_RINvMs5_NtCsa0ZJ84hKss5_16sweet_grass_core5braidNtB6_12BraidBuilder9mime_typeReECsxcqoHi7A0v_22sweet_grass_store_sled
FNDA:132,_RINvMs5_NtCsa0ZJ84hKss5_16sweet_grass_core5braidNtB6_12BraidBuilder9data_hashNtNtCs6bBekJvxEMJ_5alloc6string6StringECsbdDWz5NO8Tp_19sweet_grass_factory
FNDA:201,_RINvMs5_NtCsa0ZJ84hKss5_16sweet_grass_core5braidNtB6_12BraidBuilder9mime_typeReECsbdDWz5NO8Tp_19sweet_grass_factory
FNDA:10,_RNvMNtCsa0ZJ84hKss5_16sweet_grass_core5braidNtB2_7BraidId11from_string
FNDA:8,_RNvMNtCsa0ZJ84hKss5_16sweet_grass_core5braidNtB2_7BraidId3new
FNDA:709,_RNvMNtCsa0ZJ84hKss5_16sweet_grass_core5braidNtB2_7BraidId6as_str
FNDA:355,_RNvMNtCsa0ZJ84hKss5_16sweet_grass_core5braidNtB2_7BraidId9from_hash
FNDA:1,_RNvMs3_NtCsa0ZJ84hKss5_16sweet_grass_core5braidNtB5_14BraidSignature11new_ed25519
FNDA:355,_RNvMs3_NtCsa0ZJ84hKss5_16sweet_grass_core5braidNtB5_14BraidSignature8unsigned
FNDA:0,_RNvMs4_NtCsa0ZJ84hKss5_16sweet_grass_core5braidNtB5_5Braid11is_anchored
FNDA:0,_RNvMs4_NtCsa0ZJ84hKss5_16sweet_grass_core5braidNtB5_5Braid12content_hash
FNDA:1,_RNvMs4_NtCsa0ZJ84hKss5_16sweet_grass_core5braidNtB5_5Braid20compute_signing_hash
FNDA:295,_RNvMs4_NtCsa0ZJ84hKss5_16sweet_grass_core5braidNtB5_5Braid7builder
FNDA:2,_RNvMs4_NtCsa0ZJ84hKss5_16sweet_grass_core5braidNtB5_5Braid9is_signed
FNDA:4,_RNvMs5_NtCsa0ZJ84hKss5_16sweet_grass_core5braidNtB5_12BraidBuilder10braid_type
FNDA:0,_RNvMs5_NtCsa0ZJ84hKss5_16sweet_grass_core5braidNtB5_12BraidBuilder12derived_from
FNDA:16,_RNvMs5_NtCsa0ZJ84hKss5_16sweet_grass_core5braidNtB5_12BraidBuilder12generated_by
FNDA:355,_RNvMs5_NtCsa0ZJ84hKss5_16sweet_grass_core5braidNtB5_12BraidBuilder13attributed_to
FNDA:154,_RNvMs5_NtCsa0ZJ84hKss5_16sweet_grass_core5braidNtB5_12BraidBuilder4ecop
FNDA:355,_RNvMs5_NtCsa0ZJ84hKss5_16sweet_grass_core5braidNtB5_12BraidBuilder4size
FNDA:355,_RNvMs5_NtCsa0ZJ84hKss5_16sweet_grass_core5braidNtB5_12BraidBuilder5build
FNDA:154,_RNvMs5_NtCsa0ZJ84hKss5_16sweet_grass_core5braidNtB5_12BraidBuilder8metadata
FNDA:836,_RNvNtCsa0ZJ84hKss5_16sweet_grass_core5braid23current_timestamp_nanos
FNDA:9,_RNvXs0_NtCsa0ZJ84hKss5_16sweet_grass_core5braidNtB5_7BraidIdNtNtCs9sjCchOt1K7_4core3fmt7Display3fmt
FNDA:355,_RNvXs1_NtCsa0ZJ84hKss5_16sweet_grass_core5braidNtB5_9BraidTypeNtNtCs9sjCchOt1K7_4core7default7Default7default
FNDA:355,_RNvXs2_NtCsa0ZJ84hKss5_16sweet_grass_core5braidNtB5_12BraidContextNtNtCs9sjCchOt1K7_4core7default7Default7default
FNDA:0,_RNvXs_NtCsa0ZJ84hKss5_16sweet_grass_core5braidNtB4_7BraidIdNtNtCs9sjCchOt1K7_4core7default7Default7default
FNDA:1,_RINvNtNtCsa0ZJ84hKss5_16sweet_grass_core5braid3hex6encodeINtCs7YL0RsgwZ9U_13generic_array12GenericArrayhINtNtCs5ghkrjm3W6E_7typenum4uint4UIntIB1F_IB1F_IB1F_IB1F_IB1F_NtB1H_5UTermNtNtB1J_3bit2B1ENtB2S_2B0EB36_EB36_EB36_EB36_EEEB6_
FNDA:32,_RNCINvNtNtCsa0ZJ84hKss5_16sweet_grass_core5braid3hex6encodeINtCs7YL0RsgwZ9U_13generic_array12GenericArrayhINtNtCs5ghkrjm3W6E_7typenum4uint4UIntIB1H_IB1H_IB1H_IB1H_IB1H_NtB1J_5UTermNtNtB1L_3bit2B1ENtB2U_2B0EB38_EB38_EB38_EB38_EEE0B8_
FNDA:0,_RNCNvMs5_NtCsa0ZJ84hKss5_16sweet_grass_core5braidNtB7_12BraidBuilder5build0B9_
FNDA:0,_RNCNvMs5_NtCsa0ZJ84hKss5_16sweet_grass_core5braidNtB7_12BraidBuilder5builds0_0B9_
FNDA:0,_RNCNvMs5_NtCsa0ZJ84hKss5_16sweet_grass_core5braidNtB7_12BraidBuilder5builds1_0B9_
FNDA:0,_RNCNvMs5_NtCsa0ZJ84hKss5_16sweet_grass_core5braidNtB7_12BraidBuilder5builds_0B9_
FNDA:836,_RNCNvNtCsa0ZJ84hKss5_16sweet_grass_core5braid23current_timestamp_nanos0B5_
FNDA:0,_RINvMs5_NtCsa0ZJ84hKss5_16sweet_grass_core5braidNtB6_12BraidBuilder9data_hashpEB8_
FNDA:0,_RINvMs5_NtCsa0ZJ84hKss5_16sweet_grass_core5braidNtB6_12BraidBuilder9mime_typepEB8_
FNDA:0,_RINvMs5_NtCsa0ZJ84hKss5_16sweet_grass_core5braidNtB6_12BraidBuilder9data_hashNtNtCs6bBekJvxEMJ_5alloc6string6StringECscy77UfsAwxJ_11integration
FNDA:0,_RINvMs5_NtCsa0ZJ84hKss5_16sweet_grass_core5braidNtB6_12BraidBuilder9data_hashReECscy77UfsAwxJ_11integration
FNDA:0,_RINvMs5_NtCsa0ZJ84hKss5_16sweet_grass_core5braidNtB6_12BraidBuilder9mime_typeReECscy77UfsAwxJ_11integration
FNDA:0,_RINvMs5_NtCsa0ZJ84hKss5_16sweet_grass_core5braidNtB6_12BraidBuilder9data_hashRNtNtCs6bBekJvxEMJ_5alloc6string6StringECs7hxHRAYyWAP_26sweet_grass_store_postgres
FNDA:1,_RINvMs5_NtCsa0ZJ84hKss5_16sweet_grass_core5braidNtB6_12BraidBuilder9mime_typeRNtNtCs6bBekJvxEMJ_5alloc6string6StringECs7hxHRAYyWAP_26sweet_grass_store_postgres
FNDA:4,_RINvMs5_NtCsa0ZJ84hKss5_16sweet_grass_core5braidNtB6_12BraidBuilder9data_hashRNtNtCs6bBekJvxEMJ_5alloc6string6StringECsbY6LdEOIC22_23sweet_grass_compression
FNDA:4,_RINvMs5_NtCsa0ZJ84hKss5_16sweet_grass_core5braidNtB6_12BraidBuilder9mime_typeRNtNtCs6bBekJvxEMJ_5alloc6string6StringECsbY6LdEOIC22_23sweet_grass_compression
FNDA:6,_RINvMs5_NtCsa0ZJ84hKss5_16sweet_grass_core5braidNtB6_12BraidBuilder9data_hashRNtNtCs6bBekJvxEMJ_5alloc6string6StringECslQATw0AokWy_23sweet_grass_compression
FNDA:4,_RINvMs5_NtCsa0ZJ84hKss5_16sweet_grass_core5braidNtB6_12BraidBuilder9data_hashReECslQATw0AokWy_23sweet_grass_compression
FNDA:6,_RINvMs5_NtCsa0ZJ84hKss5_16sweet_grass_core5braidNtB6_12BraidBuilder9mime_typeRNtNtCs6bBekJvxEMJ_5alloc6string6StringECslQATw0AokWy_23sweet_grass_compression
FNDA:768,_RINvMs5_NtCsduQ6capmcSI_16sweet_grass_core5braidNtB6_12BraidBuilder9data_hashRNtNtCs6bBekJvxEMJ_5alloc6string6StringEB8_
FNDA:2,_RINvMs5_NtCsduQ6capmcSI_16sweet_grass_core5braidNtB6_12BraidBuilder9data_hashReEB8_
FNDA:512,_RINvMs5_NtCsduQ6capmcSI_16sweet_grass_core5braidNtB6_12BraidBuilder9mime_typeRNtNtCs6bBekJvxEMJ_5alloc6string6StringEB8_
FNDA:258,_RINvMs5_NtCsduQ6capmcSI_16sweet_grass_core5braidNtB6_12BraidBuilder9mime_typeReEB8_
FNDA:1,_RNCNvMs5_NtCsduQ6capmcSI_16sweet_grass_core5braidNtB7_12BraidBuilder5build0B9_
FNDA:0,_RNCNvMs5_NtCsduQ6capmcSI_16sweet_grass_core5braidNtB7_12BraidBuilder5builds0_0B9_
FNDA:0,_RNCNvMs5_NtCsduQ6capmcSI_16sweet_grass_core5braidNtB7_12BraidBuilder5builds1_0B9_
FNDA:0,_RNCNvMs5_NtCsduQ6capmcSI_16sweet_grass_core5braidNtB7_12BraidBuilder5builds_0B9_
FNDA:1547,_RNCNvNtCsduQ6capmcSI_16sweet_grass_core5braid23current_timestamp_nanos0B5_
FNDA:0,_RINvNtNtCsduQ6capmcSI_16sweet_grass_core5braid3hex6encodepEB6_
FNDA:0,_RNCINvNtNtCsduQ6capmcSI_16sweet_grass_core5braid3hex6encodepE0B8_
FNDA:0,_RNvMNtCsduQ6capmcSI_16sweet_grass_core5braidNtB2_7BraidId11from_string
FNDA:0,_RNvMs3_NtCsduQ6capmcSI_16sweet_grass_core5braidNtB5_14BraidSignature11new_ed25519
FNDA:0,_RNvMs4_NtCsduQ6capmcSI_16sweet_grass_core5braidNtB5_5Braid12content_hash
FNDA:0,_RNvMs4_NtCsduQ6capmcSI_16sweet_grass_core5braidNtB5_5Braid20compute_signing_hash
FNDA:0,_RNvMs5_NtCsduQ6capmcSI_16sweet_grass_core5braidNtB5_12BraidBuilder10braid_type
FNDA:0,_RNvMs5_NtCsduQ6capmcSI_16sweet_grass_core5braidNtB5_12BraidBuilder12derived_from
FNDA:0,_RNvMs5_NtCsduQ6capmcSI_16sweet_grass_core5braidNtB5_12BraidBuilder12generated_by
FNDA:0,_RNvMs5_NtCsduQ6capmcSI_16sweet_grass_core5braidNtB5_12BraidBuilder4ecop
FNDA:0,_RNvMs5_NtCsduQ6capmcSI_16sweet_grass_core5braidNtB5_12BraidBuilder8metadata
FNDA:0,_RNvXs0_NtCsduQ6capmcSI_16sweet_grass_core5braidNtB5_7BraidIdNtNtCs9sjCchOt1K7_4core3fmt7Display3fmt
FNDA:0,_RNvXs_NtCsduQ6capmcSI_16sweet_grass_core5braidNtB4_7BraidIdNtNtCs9sjCchOt1K7_4core7default7Default7default
FNDA:1280,_RNCNvNtNtCsduQ6capmcSI_16sweet_grass_core5braid9proptests15arb_sha256_hash0B7_
FNDA:768,_RNCNvNtNtCsduQ6capmcSI_16sweet_grass_core5braid9proptests7arb_did0B7_
FNDA:1,_RNvNtNtCsduQ6capmcSI_16sweet_grass_core5braid5testss_18test_braid_builder
FNDA:1,_RNvNtNtCsduQ6capmcSI_16sweet_grass_core5braid5testss_23test_braid_id_from_hash
FNDA:1,_RNvNtNtCsduQ6capmcSI_16sweet_grass_core5braid5testss_24test_braid_id_generation
FNDA:1,_RNvNtNtCsduQ6capmcSI_16sweet_grass_core5braid5testss_24test_braid_serialization
FNDA:1,_RNvNtNtCsduQ6capmcSI_16sweet_grass_core5braid5testss_26test_braid_context_default
FNDA:1,_RNvNtNtCsduQ6capmcSI_16sweet_grass_core5braid5testss_35test_braid_builder_missing_required
FNDA:514,_RNvMNtCsduQ6capmcSI_16sweet_grass_core5braidNtB2_7BraidId3new
FNDA:258,_RNvMNtCsduQ6capmcSI_16sweet_grass_core5braidNtB2_7BraidId6as_str
FNDA:1539,_RNvMNtCsduQ6capmcSI_16sweet_grass_core5braidNtB2_7BraidId9from_hash
FNDA:770,_RNvMs3_NtCsduQ6capmcSI_16sweet_grass_core5braidNtB5_14BraidSignature8unsigned
FNDA:1,_RNvMs4_NtCsduQ6capmcSI_16sweet_grass_core5braidNtB5_5Braid11is_anchored
FNDA:771,_RNvMs4_NtCsduQ6capmcSI_16sweet_grass_core5braidNtB5_5Braid7builder
FNDA:1,_RNvMs4_NtCsduQ6capmcSI_16sweet_grass_core5braidNtB5_5Braid9is_signed
FNDA:770,_RNvMs5_NtCsduQ6capmcSI_16sweet_grass_core5braidNtB5_12BraidBuilder13attributed_to
FNDA:770,_RNvMs5_NtCsduQ6capmcSI_16sweet_grass_core5braidNtB5_12BraidBuilder4size
FNDA:771,_RNvMs5_NtCsduQ6capmcSI_16sweet_grass_core5braidNtB5_12BraidBuilder5build
FNDA:1547,_RNvNtCsduQ6capmcSI_16sweet_grass_core5braid23current_timestamp_nanos
FNDA:771,_RNvXs1_NtCsduQ6capmcSI_16sweet_grass_core5braidNtB5_9BraidTypeNtNtCs9sjCchOt1K7_4core7default7Default7default
FNDA:771,_RNvXs2_NtCsduQ6capmcSI_16sweet_grass_core5braidNtB5_12BraidContextNtNtCs9sjCchOt1K7_4core7default7Default7default
FNDA:2,_RNvNtNtCsduQ6capmcSI_16sweet_grass_core5braid9proptests13arb_mime_type
FNDA:5,_RNvNtNtCsduQ6capmcSI_16sweet_grass_core5braid9proptests15arb_sha256_hash
FNDA:3,_RNvNtNtCsduQ6capmcSI_16sweet_grass_core5braid9proptests7arb_did
FNDA:12,_RINvMs5_NtCsa0ZJ84hKss5_16sweet_grass_core5braidNtB6_12BraidBuilder9data_hashNtNtCs6bBekJvxEMJ_5alloc6string6StringECshDWcvDuPayx_19sweet_grass_factory
FNDA:5,_RINvMs5_NtCsa0ZJ84hKss5_16sweet_grass_core5braidNtB6_12BraidBuilder9data_hashReECshDWcvDuPayx_19sweet_grass_factory
FNDA:17,_RINvMs5_NtCsa0ZJ84hKss5_16sweet_grass_core5braidNtB6_12BraidBuilder9mime_typeReECshDWcvDuPayx_19sweet_grass_factory
FNDA:16,_RINvMs5_NtCsa0ZJ84hKss5_16sweet_grass_core5braidNtB6_12BraidBuilder9data_hashReECs4hEEQusrzoB_23sweet_grass_integration
FNDA:65,_RINvMs5_NtCsa0ZJ84hKss5_16sweet_grass_core5braidNtB6_12BraidBuilder9data_hashReECs53T6FtQI1eQ_17sweet_grass_query
FNDA:0,_RINvMs5_NtCsa0ZJ84hKss5_16sweet_grass_core5braidNtB6_12BraidBuilder9mime_typeNtNtCs6bBekJvxEMJ_5alloc6string6StringECsdjAd9q7fPo9_19sweet_grass_service
FNDA:15,_RINvMs5_NtCsa0ZJ84hKss5_16sweet_grass_core5braidNtB6_12BraidBuilder9mime_typeNtNtCs6bBekJvxEMJ_5alloc6string6StringECsZK8v8cnrxE_19sweet_grass_service
FNDA:61,_RINvMs5_NtCsa0ZJ84hKss5_16sweet_grass_core5braidNtB6_12BraidBuilder9data_hashReECs2vbG1lxBQSc_17sweet_grass_store
FNDA:61,_RINvMs5_NtCsa0ZJ84hKss5_16sweet_grass_core5braidNtB6_12BraidBuilder9mime_typeReECs2vbG1lxBQSc_17sweet_grass_store
FNDA:50,_RINvMs5_NtCsa0ZJ84hKss5_16sweet_grass_core5braidNtB6_12BraidBuilder9data_hashReECsxcqoHi7A0v_22sweet_grass_store_sled
FNDA:50,_RINvMs5_NtCsa0ZJ84hKss5_16sweet_grass_core5braidNtB6_12BraidBuilder9mime_typeReECsxcqoHi7A0v_22sweet_grass_store_sled
FNF:44
FNH:38
DA:30,522
DA:31,522
DA:32,522
DA:36,1894
DA:37,1894
DA:38,1894
DA:42,967
DA:43,967
DA:44,967
DA:48,10
DA:49,10
DA:50,10
DA:54,0
DA:55,0
DA:56,0
DA:60,9
DA:61,9
DA:62,9
DA:104,1126
DA:105,1126
DA:106,1126
DA:158,1126
DA:159,1126
DA:160,1126
DA:161,1126
DA:162,1126
DA:163,1126
DA:164,1126
DA:165,1126
DA:166,1126
DA:167,1126
DA:168,1126
DA:169,1126
DA:170,1126
DA:171,1126
DA:172,1126
DA:173,1126
DA:174,1126
DA:175,1126
DA:176,1126
DA:202,1
DA:204,1
DA:205,1
DA:206,1
DA:207,1
DA:208,1
DA:209,1
DA:210,1
DA:211,1
DA:215,1125
DA:216,1125
DA:217,1125
DA:218,1125
DA:219,1125
DA:220,1125
DA:221,1125
DA:222,1125
DA:223,1125
DA:377,1066
DA:378,1066
DA:379,1066
DA:383,1
DA:384,1
DA:385,1
DA:389,3
DA:390,3
DA:391,3
DA:395,0
DA:396,0
DA:397,0
DA:401,1
DA:405,1
DA:406,1
DA:407,1
DA:408,1
DA:409,1
DA:410,1
DA:411,1
DA:412,1
DA:413,1
DA:414,1
DA:415,1
DA:435,1125
DA:436,1125
DA:437,1125
DA:438,1125
DA:442,1125
DA:443,1125
DA:444,1125
DA:445,1125
DA:449,1125
DA:450,1125
DA:451,1125
DA:452,1125
DA:456,4
DA:457,4
DA:458,4
DA:459,4
DA:463,16
DA:464,16
DA:465,16
DA:466,16
DA:470,0
DA:471,0
DA:472,0
DA:473,0
DA:477,1125
DA:478,1125
DA:479,1125
DA:480,1125
DA:484,154
DA:485,154
DA:486,154
DA:487,154
DA:491,154
DA:492,154
DA:493,154
DA:494,154
DA:501,1126
DA:502,1126
DA:503,1126
DA:504,1126
DA:505,1125
DA:506,1125
DA:507,1125
DA:508,1125
DA:509,1125
DA:510,1125
DA:511,1125
DA:512,0
DA:513,1125
DA:515,1125
DA:516,1125
DA:517,1125
DA:518,1125
DA:519,1125
DA:520,1125
DA:521,1125
DA:522,1125
DA:523,1125
DA:524,1125
DA:525,1125
DA:526,1125
DA:527,1125
DA:528,1125
DA:529,1125
DA:530,1125
DA:531,1126
DA:537,2383
DA:539,2383
DA:540,2383
DA:541,2383
DA:542,2383
DA:543,2383
DA:549,1
DA:550,32
DA:551,32
DA:552,32
DA:553,32
DA:554,1
DA:564,1
DA:565,1
DA:566,1
DA:567,1
DA:568,1
DA:569,1
DA:572,1
DA:573,1
DA:574,1
DA:575,1
DA:578,1
DA:579,1
DA:580,1
DA:581,1
DA:582,1
DA:583,1
DA:584,1
DA:585,1
DA:586,1
DA:587,1
DA:588,1
DA:589,1
DA:590,1
DA:591,1
DA:592,1
DA:593,1
DA:594,1
DA:597,1
DA:598,1
DA:599,1
DA:600,1
DA:603,1
DA:604,1
DA:605,1
DA:606,1
DA:607,1
DA:608,1
DA:611,1
DA:612,1
DA:613,1
DA:614,1
DA:615,1
DA:616,1
DA:617,1
DA:618,1
DA:619,1
DA:620,1
DA:621,1
DA:622,1
DA:623,1
DA:624,1
DA:626,1
DA:627,1
DA:628,1
DA:640,5
DA:641,1280
DA:642,5
DA:645,3
DA:646,768
DA:647,3
DA:650,2
DA:651,2
DA:652,2
DA:653,2
DA:654,2
DA:655,2
DA:656,2
DA:657,2
DA:658,2
BRF:0
BRH:0
LF:239
LH:224
end_of_record
SF:/home/strandgate/Development/ecoPrimals/phase2/sweetGrass/crates/sweet-grass-core/src/config.rs
FN:43,_RINvMNtCsa0ZJ84hKss5_16sweet_grass_core6configNtB3_10Capability6custompEB5_
FN:273,_RINvMs3_NtCsa0ZJ84hKss5_16sweet_grass_core6configNtB6_23SweetGrassConfigBuilder11rest_listenpEB8_
FN:266,_RINvMs3_NtCsa0ZJ84hKss5_16sweet_grass_core6configNtB6_23SweetGrassConfigBuilder12tarpc_listenpEB8_
FN:245,_RINvMs3_NtCsa0ZJ84hKss5_16sweet_grass_core6configNtB6_23SweetGrassConfigBuilder4namepEB8_
FN:510,_RINvNtNtCsa0ZJ84hKss5_16sweet_grass_core6config15humantime_serde11deserializepEB6_
FN:503,_RINvNtNtCsa0ZJ84hKss5_16sweet_grass_core6config15humantime_serde9serializepEB6_
FN:85,_RNCINvXs0_NvXNvNtCsa0ZJ84hKss5_16sweet_grass_core6configs1_1__NtBd_13NetworkConfigNtNtCs2tujhfQqw6K_10serde_core2de11Deserialize11deserializeNtB8_9___VisitorNtB1k_7Visitor9visit_seqpE0Bf_
FN:381,_RNCINvXs0_NvXNvNtCsa0ZJ84hKss5_16sweet_grass_core6configsb_1__NtBd_11QueryConfigNtNtCs2tujhfQqw6K_10serde_core2de11Deserialize11deserializeNtB8_9___VisitorNtB1i_7Visitor9visit_seqpE0Bf_
FN:463,_RNCINvXs0_NvXNvNtCsa0ZJ84hKss5_16sweet_grass_core6configsf_1__NtBd_14ListenerConfigNtNtCs2tujhfQqw6K_10serde_core2de11Deserialize11deserializeNtB8_9___VisitorNtB1l_7Visitor9visit_seqpE0Bf_
FN:49,_RNvMNtCsa0ZJ84hKss5_16sweet_grass_core6configNtB2_10Capability11from_string
FN:186,_RNvMs2_NtCsa0ZJ84hKss5_16sweet_grass_core6configNtB5_16SweetGrassConfig7builder
FN:197,_RNvMs2_NtCsa0ZJ84hKss5_16sweet_grass_core6configNtB5_16SweetGrassConfig8from_env
FN:280,_RNvMs3_NtCsa0ZJ84hKss5_16sweet_grass_core6configNtB5_23SweetGrassConfigBuilder15storage_backend
FN:259,_RNvMs3_NtCsa0ZJ84hKss5_16sweet_grass_core6configNtB5_23SweetGrassConfigBuilder16offer_capability
FN:252,_RNvMs3_NtCsa0ZJ84hKss5_16sweet_grass_core6configNtB5_23SweetGrassConfigBuilder18require_capability
FN:287,_RNvMs3_NtCsa0ZJ84hKss5_16sweet_grass_core6configNtB5_23SweetGrassConfigBuilder5build
FN:119,_RNvXs0_NtCsa0ZJ84hKss5_16sweet_grass_core6configNtB5_13NetworkConfigNtNtCs9sjCchOt1K7_4core7default7Default7default
FN:169,_RNvXs1_NtCsa0ZJ84hKss5_16sweet_grass_core6configNtB5_16SweetGrassConfigNtNtCs9sjCchOt1K7_4core7default7Default7default
FN:311,_RNvXs4_NtCsa0ZJ84hKss5_16sweet_grass_core6configNtB5_13StorageConfigNtNtCs9sjCchOt1K7_4core7default7Default7default
FN:366,_RNvXs5_NtCsa0ZJ84hKss5_16sweet_grass_core6configNtB5_17CompressionConfigNtNtCs9sjCchOt1K7_4core7default7Default7default
FN:404,_RNvXs6_NtCsa0ZJ84hKss5_16sweet_grass_core6configNtB5_11QueryConfigNtNtCs9sjCchOt1K7_4core7default7Default7default
FN:445,_RNvXs7_NtCsa0ZJ84hKss5_16sweet_grass_core6configNtB5_17AttributionConfigNtNtCs9sjCchOt1K7_4core7default7Default7default
FN:486,_RNvXs8_NtCsa0ZJ84hKss5_16sweet_grass_core6configNtB5_14ListenerConfigNtNtCs9sjCchOt1K7_4core7default7Default7default
FN:72,_RNvXs_NtCsa0ZJ84hKss5_16sweet_grass_core6configNtB4_10CapabilityNtNtCs9sjCchOt1K7_4core3fmt7Display3fmt
FN:273,_RINvMs3_NtCsduQ6capmcSI_16sweet_grass_core6configNtB6_23SweetGrassConfigBuilder11rest_listenpEB8_
FN:280,_RNvMs3_NtCsduQ6capmcSI_16sweet_grass_core6configNtB5_23SweetGrassConfigBuilder15storage_backend
FN:43,_RINvMNtCsduQ6capmcSI_16sweet_grass_core6configNtB3_10Capability6customReEB5_
FN:266,_RINvMs3_NtCsduQ6capmcSI_16sweet_grass_core6configNtB6_23SweetGrassConfigBuilder12tarpc_listenReEB8_
FN:245,_RINvMs3_NtCsduQ6capmcSI_16sweet_grass_core6configNtB6_23SweetGrassConfigBuilder4nameReEB8_
FN:85,_RNCINvXs0_NvXNvNtCsduQ6capmcSI_16sweet_grass_core6configs1_1__NtBd_13NetworkConfigNtNtCs2tujhfQqw6K_10serde_core2de11Deserialize11deserializeNtB8_9___VisitorNtB1k_7Visitor9visit_seqINtNtCs98BKYEhbmrI_10serde_json2de9SeqAccessNtNtB2Y_4read7StrReadEE0Bf_
FN:381,_RNCINvXs0_NvXNvNtCsduQ6capmcSI_16sweet_grass_core6configsb_1__NtBd_11QueryConfigNtNtCs2tujhfQqw6K_10serde_core2de11Deserialize11deserializeNtB8_9___VisitorNtB1i_7Visitor9visit_seqINtNtCs98BKYEhbmrI_10serde_json2de9SeqAccessNtNtB2W_4read7StrReadEE0Bf_
FN:463,_RNCINvXs0_NvXNvNtCsduQ6capmcSI_16sweet_grass_core6configsf_1__NtBd_14ListenerConfigNtNtCs2tujhfQqw6K_10serde_core2de11Deserialize11deserializeNtB8_9___VisitorNtB1l_7Visitor9visit_seqINtNtCs98BKYEhbmrI_10serde_json2de9SeqAccessNtNtB2Z_4read7StrReadEE0Bf_
FN:510,_RINvNtNtCsduQ6capmcSI_16sweet_grass_core6config15humantime_serde11deserializeQINtNtCs98BKYEhbmrI_10serde_json2de12DeserializerNtNtB1j_4read7StrReadEEB6_
FN:503,_RINvNtNtCsduQ6capmcSI_16sweet_grass_core6config15humantime_serde9serializeINtNtCs98BKYEhbmrI_10serde_json3ser18RawValueStrEmitterQINtNtCs6bBekJvxEMJ_5alloc3vec3VechENtB1d_15PrettyFormatterEEB6_
FN:503,_RINvNtNtCsduQ6capmcSI_16sweet_grass_core6config15humantime_serde9serializeINtNtCs98BKYEhbmrI_10serde_json3ser18RawValueStrEmitterQINtNtCs6bBekJvxEMJ_5alloc3vec3VechENtB1d_16CompactFormatterEEB6_
FN:503,_RINvNtNtCsduQ6capmcSI_16sweet_grass_core6config15humantime_serde9serializeQINtNtCs98BKYEhbmrI_10serde_json3ser10SerializerQINtNtCs6bBekJvxEMJ_5alloc3vec3VechEEEB6_
FN:503,_RINvNtNtCsduQ6capmcSI_16sweet_grass_core6config15humantime_serde9serializeQINtNtCs98BKYEhbmrI_10serde_json3ser10SerializerQINtNtCs6bBekJvxEMJ_5alloc3vec3VechENtB1e_15PrettyFormatterEEB6_
FN:527,_RNvNtNtCsduQ6capmcSI_16sweet_grass_core6config5testss_19test_default_config
FN:609,_RNvNtNtCsduQ6capmcSI_16sweet_grass_core6config5testss_20test_config_from_env
FN:662,_RNvNtNtCsduQ6capmcSI_16sweet_grass_core6config5testss_23test_capability_display
FN:675,_RNvNtNtCsduQ6capmcSI_16sweet_grass_core6config5testss_25test_capability_roundtrip
FN:545,_RNvNtNtCsduQ6capmcSI_16sweet_grass_core6config5testss_25test_config_serialization
FN:617,_RNvNtNtCsduQ6capmcSI_16sweet_grass_core6config5testss_27test_capability_from_string
FN:580,_RNvNtNtCsduQ6capmcSI_16sweet_grass_core6config5testss_28test_capability_based_config
FN:600,_RNvNtNtCsduQ6capmcSI_16sweet_grass_core6config5testss_28test_network_config_defaults
FN:565,_RNvNtNtCsduQ6capmcSI_16sweet_grass_core6config5testss_32test_attribution_config_defaults
FN:556,_RNvNtNtCsduQ6capmcSI_16sweet_grass_core6config5testss_32test_compression_config_defaults
FN:573,_RNvNtNtCsduQ6capmcSI_16sweet_grass_core6config5testss_32test_query_timeout_serialization
FN:535,_RNvNtNtCsduQ6capmcSI_16sweet_grass_core6config5testss_34test_storage_backend_serialization
FN:49,_RNvMNtCsduQ6capmcSI_16sweet_grass_core6configNtB2_10Capability11from_string
FN:186,_RNvMs2_NtCsduQ6capmcSI_16sweet_grass_core6configNtB5_16SweetGrassConfig7builder
FN:197,_RNvMs2_NtCsduQ6capmcSI_16sweet_grass_core6configNtB5_16SweetGrassConfig8from_env
FN:259,_RNvMs3_NtCsduQ6capmcSI_16sweet_grass_core6configNtB5_23SweetGrassConfigBuilder16offer_capability
FN:252,_RNvMs3_NtCsduQ6capmcSI_16sweet_grass_core6configNtB5_23SweetGrassConfigBuilder18require_capability
FN:287,_RNvMs3_NtCsduQ6capmcSI_16sweet_grass_core6configNtB5_23SweetGrassConfigBuilder5build
FN:119,_RNvXs0_NtCsduQ6capmcSI_16sweet_grass_core6configNtB5_13NetworkConfigNtNtCs9sjCchOt1K7_4core7default7Default7default
FN:169,_RNvXs1_NtCsduQ6capmcSI_16sweet_grass_core6configNtB5_16SweetGrassConfigNtNtCs9sjCchOt1K7_4core7default7Default7default
FN:311,_RNvXs4_NtCsduQ6capmcSI_16sweet_grass_core6configNtB5_13StorageConfigNtNtCs9sjCchOt1K7_4core7default7Default7default
FN:366,_RNvXs5_NtCsduQ6capmcSI_16sweet_grass_core6configNtB5_17CompressionConfigNtNtCs9sjCchOt1K7_4core7default7Default7default
FN:404,_RNvXs6_NtCsduQ6capmcSI_16sweet_grass_core6configNtB5_11QueryConfigNtNtCs9sjCchOt1K7_4core7default7Default7default
FN:445,_RNvXs7_NtCsduQ6capmcSI_16sweet_grass_core6configNtB5_17AttributionConfigNtNtCs9sjCchOt1K7_4core7default7Default7default
FN:486,_RNvXs8_NtCsduQ6capmcSI_16sweet_grass_core6configNtB5_14ListenerConfigNtNtCs9sjCchOt1K7_4core7default7Default7default
FN:72,_RNvXs_NtCsduQ6capmcSI_16sweet_grass_core6configNtB4_10CapabilityNtNtCs9sjCchOt1K7_4core3fmt7Display3fmt
FN:43,_RINvMNtCsa0ZJ84hKss5_16sweet_grass_core6configNtB3_10Capability6customReECs4hEEQusrzoB_23sweet_grass_integration
FNDA:0,_RINvMNtCsa0ZJ84hKss5_16sweet_grass_core6configNtB3_10Capability6custompEB5_
FNDA:0,_RINvMs3_NtCsa0ZJ84hKss5_16sweet_grass_core6configNtB6_23SweetGrassConfigBuilder11rest_listenpEB8_
FNDA:0,_RINvMs3_NtCsa0ZJ84hKss5_16sweet_grass_core6configNtB6_23SweetGrassConfigBuilder12tarpc_listenpEB8_
FNDA:0,_RINvMs3_NtCsa0ZJ84hKss5_16sweet_grass_core6configNtB6_23SweetGrassConfigBuilder4namepEB8_
FNDA:0,_RINvNtNtCsa0ZJ84hKss5_16sweet_grass_core6config15humantime_serde11deserializepEB6_
FNDA:0,_RINvNtNtCsa0ZJ84hKss5_16sweet_grass_core6config15humantime_serde9serializepEB6_
FNDA:0,_RNCINvXs0_NvXNvNtCsa0ZJ84hKss5_16sweet_grass_core6configs1_1__NtBd_13NetworkConfigNtNtCs2tujhfQqw6K_10serde_core2de11Deserialize11deserializeNtB8_9___VisitorNtB1k_7Visitor9visit_seqpE0Bf_
FNDA:0,_RNCINvXs0_NvXNvNtCsa0ZJ84hKss5_16sweet_grass_core6configsb_1__NtBd_11QueryConfigNtNtCs2tujhfQqw6K_10serde_core2de11Deserialize11deserializeNtB8_9___VisitorNtB1i_7Visitor9visit_seqpE0Bf_
FNDA:0,_RNCINvXs0_NvXNvNtCsa0ZJ84hKss5_16sweet_grass_core6configsf_1__NtBd_14ListenerConfigNtNtCs2tujhfQqw6K_10serde_core2de11Deserialize11deserializeNtB8_9___VisitorNtB1l_7Visitor9visit_seqpE0Bf_
FNDA:2,_RNvMNtCsa0ZJ84hKss5_16sweet_grass_core6configNtB2_10Capability11from_string
FNDA:0,_RNvMs2_NtCsa0ZJ84hKss5_16sweet_grass_core6configNtB5_16SweetGrassConfig7builder
FNDA:0,_RNvMs2_NtCsa0ZJ84hKss5_16sweet_grass_core6configNtB5_16SweetGrassConfig8from_env
FNDA:0,_RNvMs3_NtCsa0ZJ84hKss5_16sweet_grass_core6configNtB5_23SweetGrassConfigBuilder15storage_backend
FNDA:0,_RNvMs3_NtCsa0ZJ84hKss5_16sweet_grass_core6configNtB5_23SweetGrassConfigBuilder16offer_capability
FNDA:0,_RNvMs3_NtCsa0ZJ84hKss5_16sweet_grass_core6configNtB5_23SweetGrassConfigBuilder18require_capability
FNDA:0,_RNvMs3_NtCsa0ZJ84hKss5_16sweet_grass_core6configNtB5_23SweetGrassConfigBuilder5build
FNDA:0,_RNvXs0_NtCsa0ZJ84hKss5_16sweet_grass_core6configNtB5_13NetworkConfigNtNtCs9sjCchOt1K7_4core7default7Default7default
FNDA:0,_RNvXs1_NtCsa0ZJ84hKss5_16sweet_grass_core6configNtB5_16SweetGrassConfigNtNtCs9sjCchOt1K7_4core7default7Default7default
FNDA:0,_RNvXs4_NtCsa0ZJ84hKss5_16sweet_grass_core6configNtB5_13StorageConfigNtNtCs9sjCchOt1K7_4core7default7Default7default
FNDA:0,_RNvXs5_NtCsa0ZJ84hKss5_16sweet_grass_core6configNtB5_17CompressionConfigNtNtCs9sjCchOt1K7_4core7default7Default7default
FNDA:0,_RNvXs6_NtCsa0ZJ84hKss5_16sweet_grass_core6configNtB5_11QueryConfigNtNtCs9sjCchOt1K7_4core7default7Default7default
FNDA:0,_RNvXs7_NtCsa0ZJ84hKss5_16sweet_grass_core6configNtB5_17AttributionConfigNtNtCs9sjCchOt1K7_4core7default7Default7default
FNDA:0,_RNvXs8_NtCsa0ZJ84hKss5_16sweet_grass_core6configNtB5_14ListenerConfigNtNtCs9sjCchOt1K7_4core7default7Default7default
FNDA:0,_RNvXs_NtCsa0ZJ84hKss5_16sweet_grass_core6configNtB4_10CapabilityNtNtCs9sjCchOt1K7_4core3fmt7Display3fmt
FNDA:0,_RINvMs3_NtCsduQ6capmcSI_16sweet_grass_core6configNtB6_23SweetGrassConfigBuilder11rest_listenpEB8_
FNDA:0,_RNvMs3_NtCsduQ6capmcSI_16sweet_grass_core6configNtB5_23SweetGrassConfigBuilder15storage_backend
FNDA:1,_RINvMNtCsduQ6capmcSI_16sweet_grass_core6configNtB3_10Capability6customReEB5_
FNDA:1,_RINvMs3_NtCsduQ6capmcSI_16sweet_grass_core6configNtB6_23SweetGrassConfigBuilder12tarpc_listenReEB8_
FNDA:1,_RINvMs3_NtCsduQ6capmcSI_16sweet_grass_core6configNtB6_23SweetGrassConfigBuilder4nameReEB8_
FNDA:0,_RNCINvXs0_NvXNvNtCsduQ6capmcSI_16sweet_grass_core6configs1_1__NtBd_13NetworkConfigNtNtCs2tujhfQqw6K_10serde_core2de11Deserialize11deserializeNtB8_9___VisitorNtB1k_7Visitor9visit_seqINtNtCs98BKYEhbmrI_10serde_json2de9SeqAccessNtNtB2Y_4read7StrReadEE0Bf_
FNDA:0,_RNCINvXs0_NvXNvNtCsduQ6capmcSI_16sweet_grass_core6configsb_1__NtBd_11QueryConfigNtNtCs2tujhfQqw6K_10serde_core2de11Deserialize11deserializeNtB8_9___VisitorNtB1i_7Visitor9visit_seqINtNtCs98BKYEhbmrI_10serde_json2de9SeqAccessNtNtB2W_4read7StrReadEE0Bf_
FNDA:0,_RNCINvXs0_NvXNvNtCsduQ6capmcSI_16sweet_grass_core6configsf_1__NtBd_14ListenerConfigNtNtCs2tujhfQqw6K_10serde_core2de11Deserialize11deserializeNtB8_9___VisitorNtB1l_7Visitor9visit_seqINtNtCs98BKYEhbmrI_10serde_json2de9SeqAccessNtNtB2Z_4read7StrReadEE0Bf_
FNDA:3,_RINvNtNtCsduQ6capmcSI_16sweet_grass_core6config15humantime_serde11deserializeQINtNtCs98BKYEhbmrI_10serde_json2de12DeserializerNtNtB1j_4read7StrReadEEB6_
FNDA:0,_RINvNtNtCsduQ6capmcSI_16sweet_grass_core6config15humantime_serde9serializeINtNtCs98BKYEhbmrI_10serde_json3ser18RawValueStrEmitterQINtNtCs6bBekJvxEMJ_5alloc3vec3VechENtB1d_15PrettyFormatterEEB6_
FNDA:0,_RINvNtNtCsduQ6capmcSI_16sweet_grass_core6config15humantime_serde9serializeINtNtCs98BKYEhbmrI_10serde_json3ser18RawValueStrEmitterQINtNtCs6bBekJvxEMJ_5alloc3vec3VechENtB1d_16CompactFormatterEEB6_
FNDA:1,_RINvNtNtCsduQ6capmcSI_16sweet_grass_core6config15humantime_serde9serializeQINtNtCs98BKYEhbmrI_10serde_json3ser10SerializerQINtNtCs6bBekJvxEMJ_5alloc3vec3VechEEEB6_
FNDA:3,_RINvNtNtCsduQ6capmcSI_16sweet_grass_core6config15humantime_serde9serializeQINtNtCs98BKYEhbmrI_10serde_json3ser10SerializerQINtNtCs6bBekJvxEMJ_5alloc3vec3VechENtB1e_15PrettyFormatterEEB6_
FNDA:1,_RNvNtNtCsduQ6capmcSI_16sweet_grass_core6config5testss_19test_default_config
FNDA:1,_RNvNtNtCsduQ6capmcSI_16sweet_grass_core6config5testss_20test_config_from_env
FNDA:1,_RNvNtNtCsduQ6capmcSI_16sweet_grass_core6config5testss_23test_capability_display
FNDA:1,_RNvNtNtCsduQ6capmcSI_16sweet_grass_core6config5testss_25test_capability_roundtrip
FNDA:1,_RNvNtNtCsduQ6capmcSI_16sweet_grass_core6config5testss_25test_config_serialization
FNDA:1,_RNvNtNtCsduQ6capmcSI_16sweet_grass_core6config5testss_27test_capability_from_string
FNDA:1,_RNvNtNtCsduQ6capmcSI_16sweet_grass_core6config5testss_28test_capability_based_config
FNDA:1,_RNvNtNtCsduQ6capmcSI_16sweet_grass_core6config5testss_28test_network_config_defaults
FNDA:1,_RNvNtNtCsduQ6capmcSI_16sweet_grass_core6config5testss_32test_attribution_config_defaults
FNDA:1,_RNvNtNtCsduQ6capmcSI_16sweet_grass_core6config5testss_32test_compression_config_defaults
FNDA:1,_RNvNtNtCsduQ6capmcSI_16sweet_grass_core6config5testss_32test_query_timeout_serialization
FNDA:1,_RNvNtNtCsduQ6capmcSI_16sweet_grass_core6config5testss_34test_storage_backend_serialization
FNDA:21,_RNvMNtCsduQ6capmcSI_16sweet_grass_core6configNtB2_10Capability11from_string
FNDA:1,_RNvMs2_NtCsduQ6capmcSI_16sweet_grass_core6configNtB5_16SweetGrassConfig7builder
FNDA:1,_RNvMs2_NtCsduQ6capmcSI_16sweet_grass_core6configNtB5_16SweetGrassConfig8from_env
FNDA:1,_RNvMs3_NtCsduQ6capmcSI_16sweet_grass_core6configNtB5_23SweetGrassConfigBuilder16offer_capability
FNDA:1,_RNvMs3_NtCsduQ6capmcSI_16sweet_grass_core6configNtB5_23SweetGrassConfigBuilder18require_capability
FNDA:1,_RNvMs3_NtCsduQ6capmcSI_16sweet_grass_core6configNtB5_23SweetGrassConfigBuilder5build
FNDA:8,_RNvXs0_NtCsduQ6capmcSI_16sweet_grass_core6configNtB5_13NetworkConfigNtNtCs9sjCchOt1K7_4core7default7Default7default
FNDA:7,_RNvXs1_NtCsduQ6capmcSI_16sweet_grass_core6configNtB5_16SweetGrassConfigNtNtCs9sjCchOt1K7_4core7default7Default7default
FNDA:7,_RNvXs4_NtCsduQ6capmcSI_16sweet_grass_core6configNtB5_13StorageConfigNtNtCs9sjCchOt1K7_4core7default7Default7default
FNDA:8,_RNvXs5_NtCsduQ6capmcSI_16sweet_grass_core6configNtB5_17CompressionConfigNtNtCs9sjCchOt1K7_4core7default7Default7default
FNDA:8,_RNvXs6_NtCsduQ6capmcSI_16sweet_grass_core6configNtB5_11QueryConfigNtNtCs9sjCchOt1K7_4core7default7Default7default
FNDA:8,_RNvXs7_NtCsduQ6capmcSI_16sweet_grass_core6configNtB5_17AttributionConfigNtNtCs9sjCchOt1K7_4core7default7Default7default
FNDA:7,_RNvXs8_NtCsduQ6capmcSI_16sweet_grass_core6configNtB5_14ListenerConfigNtNtCs9sjCchOt1K7_4core7default7Default7default
FNDA:12,_RNvXs_NtCsduQ6capmcSI_16sweet_grass_core6configNtB4_10CapabilityNtNtCs9sjCchOt1K7_4core3fmt7Display3fmt
FNDA:2,_RINvMNtCsa0ZJ84hKss5_16sweet_grass_core6configNtB3_10Capability6customReECs4hEEQusrzoB_23sweet_grass_integration
FNF:36
FNH:31
DA:43,3
DA:44,3
DA:45,3
DA:49,23
DA:50,23
DA:51,23
DA:52,17
DA:53,13
DA:54,9
DA:55,7
DA:56,5
DA:57,5
DA:58,2
DA:59,2
DA:60,2
DA:61,3
DA:62,2
DA:64,1
DA:68,23
DA:72,12
DA:73,12
DA:74,2
DA:75,2
DA:76,2
DA:77,2
DA:78,2
DA:79,2
DA:81,12
DA:85,0
DA:119,8
DA:120,8
DA:121,8
DA:122,8
DA:123,8
DA:124,8
DA:125,8
DA:126,8
DA:127,8
DA:128,8
DA:129,8
DA:130,8
DA:131,8
DA:132,8
DA:133,8
DA:134,8
DA:135,8
DA:136,8
DA:169,7
DA:170,7
DA:171,7
DA:172,7
DA:173,7
DA:174,7
DA:175,7
DA:176,7
DA:177,7
DA:178,7
DA:179,7
DA:180,7
DA:186,1
DA:187,1
DA:188,1
DA:197,1
DA:198,1
DA:200,1
DA:201,0
DA:202,1
DA:204,1
DA:205,0
DA:206,1
DA:208,1
DA:209,0
DA:210,1
DA:212,1
DA:213,0
DA:214,1
DA:216,1
DA:217,1
DA:245,1
DA:246,1
DA:247,1
DA:248,1
DA:252,1
DA:253,1
DA:254,1
DA:255,1
DA:259,1
DA:260,1
DA:261,1
DA:262,1
DA:266,1
DA:267,1
DA:268,1
DA:269,1
DA:273,0
DA:274,0
DA:275,0
DA:276,0
DA:280,0
DA:281,0
DA:282,0
DA:283,0
DA:287,1
DA:288,1
DA:289,1
DA:311,7
DA:312,7
DA:313,7
DA:314,7
DA:315,7
DA:316,7
DA:317,7
DA:318,7
DA:366,8
DA:367,8
DA:368,8
DA:369,8
DA:370,8
DA:371,8
DA:372,8
DA:373,8
DA:374,8
DA:375,8
DA:376,8
DA:377,8
DA:381,0
DA:404,8
DA:405,8
DA:406,8
DA:407,8
DA:408,8
DA:409,8
DA:410,8
DA:411,8
DA:412,8
DA:413,8
DA:445,8
DA:446,8
DA:447,8
DA:448,8
DA:449,8
DA:450,8
DA:451,8
DA:452,8
DA:453,8
DA:454,8
DA:455,8
DA:456,8
DA:463,0
DA:486,7
DA:487,7
DA:488,7
DA:489,7
DA:490,7
DA:491,7
DA:492,7
DA:493,7
DA:494,7
DA:495,7
DA:503,4
DA:504,4
DA:505,4
DA:506,4
DA:507,4
DA:508,4
DA:510,3
DA:511,3
DA:512,3
DA:513,3
DA:514,3
DA:515,3
DA:516,3
DA:517,3
DA:518,3
DA:527,1
DA:528,1
DA:529,1
DA:530,1
DA:531,1
DA:532,1
DA:535,1
DA:536,1
DA:537,1
DA:538,1
DA:540,1
DA:541,1
DA:542,1
DA:545,1
DA:546,1
DA:547,1
DA:548,1
DA:549,1
DA:551,1
DA:552,1
DA:553,1
DA:556,1
DA:557,1
DA:558,1
DA:559,1
DA:560,1
DA:561,1
DA:562,1
DA:565,1
DA:566,1
DA:567,1
DA:568,1
DA:569,1
DA:570,1
DA:573,1
DA:574,1
DA:575,1
DA:576,1
DA:577,1
DA:580,1
DA:581,1
DA:582,1
DA:583,1
DA:584,1
DA:585,1
DA:586,1
DA:587,1
DA:588,1
DA:589,1
DA:590,1
DA:591,1
DA:592,1
DA:593,1
DA:594,1
DA:595,1
DA:596,1
DA:597,1
DA:600,1
DA:601,1
DA:602,1
DA:603,1
DA:604,1
DA:605,1
DA:606,1
DA:609,1
DA:610,1
DA:611,1
DA:612,1
DA:613,1
DA:614,1
DA:617,1
DA:618,1
DA:619,1
DA:620,1
DA:621,1
DA:622,1
DA:623,1
DA:624,1
DA:625,1
DA:626,1
DA:627,1
DA:628,1
DA:629,1
DA:630,1
DA:631,1
DA:632,1
DA:633,1
DA:634,1
DA:635,1
DA:636,1
DA:637,1
DA:638,1
DA:639,1
DA:640,1
DA:641,1
DA:642,1
DA:643,1
DA:644,1
DA:645,1
DA:646,1
DA:647,1
DA:648,1
DA:649,1
DA:650,1
DA:651,1
DA:652,1
DA:653,1
DA:654,1
DA:655,1
DA:656,1
DA:657,1
DA:658,1
DA:659,1
DA:662,1
DA:663,1
DA:664,1
DA:665,1
DA:666,1
DA:667,1
DA:668,1
DA:669,1
DA:670,1
DA:671,1
DA:672,1
DA:675,1
DA:676,1
DA:677,1
DA:678,1
DA:679,1
DA:680,1
DA:681,1
DA:682,1
DA:683,1
DA:685,7
DA:686,6
DA:687,6
DA:688,6
DA:690,1
BRF:0
BRH:0
LF:312
LH:297
end_of_record
SF:/home/strandgate/Development/ecoPrimals/phase2/sweetGrass/crates/sweet-grass-core/src/entity.rs
FN:128,_RNvMNtCsa0ZJ84hKss5_16sweet_grass_core6entityNtB2_15EntityReference11is_external
FN:110,_RNvMNtCsa0ZJ84hKss5_16sweet_grass_core6entityNtB2_15EntityReference12content_hash
FN:53,_RNvMNtCsa0ZJ84hKss5_16sweet_grass_core6entityNtB2_15EntityReference5by_id
FN:104,_RNvMNtCsa0ZJ84hKss5_16sweet_grass_core6entityNtB2_15EntityReference6inline
FN:122,_RNvMNtCsa0ZJ84hKss5_16sweet_grass_core6entityNtB2_15EntityReference9is_inline
FN:231,_RNvMs0_NtCsa0ZJ84hKss5_16sweet_grass_core6entityNtB5_12InlineEntity10decode_cow
FN:209,_RNvMs0_NtCsa0ZJ84hKss5_16sweet_grass_core6entityNtB5_12InlineEntity6decode
FN:254,_RNvMs0_NtCsa0ZJ84hKss5_16sweet_grass_core6entityNtB5_12InlineEntity6verify
FN:290,_RNvNtCsa0ZJ84hKss5_16sweet_grass_core6entity10hex_decode
FN:281,_RNvNtCsa0ZJ84hKss5_16sweet_grass_core6entity10hex_encode
FN:274,_RNvNtCsa0ZJ84hKss5_16sweet_grass_core6entity14compute_sha256
FN:146,_RNvXs_NtCsa0ZJ84hKss5_16sweet_grass_core6entityNtB4_8EncodingNtNtCs9sjCchOt1K7_4core7default7Default7default
FN:296,_RNCNCNvNtCsa0ZJ84hKss5_16sweet_grass_core6entity10hex_decode00B7_
FN:239,_RNCNvMs0_NtCsa0ZJ84hKss5_16sweet_grass_core6entityNtB7_12InlineEntity10decode_cow0B9_
FN:216,_RNCNvMs0_NtCsa0ZJ84hKss5_16sweet_grass_core6entityNtB7_12InlineEntity6decode0B9_
FN:296,_RNCNvNtCsa0ZJ84hKss5_16sweet_grass_core6entity10hex_decode0B5_
FN:283,_RNCNvNtCsa0ZJ84hKss5_16sweet_grass_core6entity10hex_encode0B5_
FN:68,_RINvMNtCsa0ZJ84hKss5_16sweet_grass_core6entityNtB3_15EntityReference13by_hash_typedppEB5_
FN:77,_RINvMNtCsa0ZJ84hKss5_16sweet_grass_core6entityNtB3_15EntityReference13by_loam_entryppEB5_
FN:95,_RINvMNtCsa0ZJ84hKss5_16sweet_grass_core6entityNtB3_15EntityReference17external_verifiedppEB5_
FN:59,_RINvMNtCsa0ZJ84hKss5_16sweet_grass_core6entityNtB3_15EntityReference7by_hashpEB5_
FN:86,_RINvMNtCsa0ZJ84hKss5_16sweet_grass_core6entityNtB3_15EntityReference8externalpEB5_
FN:199,_RINvMs0_NtCsa0ZJ84hKss5_16sweet_grass_core6entityNtB6_12InlineEntity4jsonpEB8_
FN:170,_RINvMs0_NtCsa0ZJ84hKss5_16sweet_grass_core6entityNtB6_12InlineEntity4textppEB8_
FN:183,_RINvMs0_NtCsa0ZJ84hKss5_16sweet_grass_core6entityNtB6_12InlineEntity5bytespEB8_
FN:59,_RINvMNtCsa0ZJ84hKss5_16sweet_grass_core6entityNtB3_15EntityReference7by_hashRNtNtCs6bBekJvxEMJ_5alloc6string6StringECscy77UfsAwxJ_11integration
FN:59,_RINvMNtCsa0ZJ84hKss5_16sweet_grass_core6entityNtB3_15EntityReference7by_hashRNtNtCs6bBekJvxEMJ_5alloc6string6StringECsbdDWz5NO8Tp_19sweet_grass_factory
FN:68,_RINvMNtCsduQ6capmcSI_16sweet_grass_core6entityNtB3_15EntityReference13by_hash_typedReB1j_EB5_
FN:95,_RINvMNtCsduQ6capmcSI_16sweet_grass_core6entityNtB3_15EntityReference17external_verifiedReB1n_EB5_
FN:59,_RINvMNtCsduQ6capmcSI_16sweet_grass_core6entityNtB3_15EntityReference7by_hashReEB5_
FN:86,_RINvMNtCsduQ6capmcSI_16sweet_grass_core6entityNtB3_15EntityReference8externalReEB5_
FN:199,_RINvMs0_NtCsduQ6capmcSI_16sweet_grass_core6entityNtB6_12InlineEntity4jsonNtNvNtB6_5testss_23test_inline_entity_json4DataEB8_
FN:170,_RINvMs0_NtCsduQ6capmcSI_16sweet_grass_core6entityNtB6_12InlineEntity4textRNtNtCs6bBekJvxEMJ_5alloc6string6StringReEB8_
FN:170,_RINvMs0_NtCsduQ6capmcSI_16sweet_grass_core6entityNtB6_12InlineEntity4textReB19_EB8_
FN:183,_RINvMs0_NtCsduQ6capmcSI_16sweet_grass_core6entityNtB6_12InlineEntity5bytesReEB8_
FN:296,_RNCNCNvNtCsduQ6capmcSI_16sweet_grass_core6entity10hex_decode00B7_
FN:239,_RNCNvMs0_NtCsduQ6capmcSI_16sweet_grass_core6entityNtB7_12InlineEntity10decode_cow0B9_
FN:216,_RNCNvMs0_NtCsduQ6capmcSI_16sweet_grass_core6entityNtB7_12InlineEntity6decode0B9_
FN:296,_RNCNvNtCsduQ6capmcSI_16sweet_grass_core6entity10hex_decode0B5_
FN:283,_RNCNvNtCsduQ6capmcSI_16sweet_grass_core6entity10hex_encode0B5_
FN:77,_RINvMNtCsduQ6capmcSI_16sweet_grass_core6entityNtB3_15EntityReference13by_loam_entryppEB5_
FN:53,_RNvMNtCsduQ6capmcSI_16sweet_grass_core6entityNtB2_15EntityReference5by_id
FN:146,_RNvXs_NtCsduQ6capmcSI_16sweet_grass_core6entityNtB4_8EncodingNtNtCs9sjCchOt1K7_4core7default7Default7default
FN:349,_RNvNtNtCsduQ6capmcSI_16sweet_grass_core6entity5testss_23test_inline_entity_json
FN:329,_RNvNtNtCsduQ6capmcSI_16sweet_grass_core6entity5testss_23test_inline_entity_text
FN:338,_RNvNtNtCsduQ6capmcSI_16sweet_grass_core6entity5testss_24test_inline_entity_bytes
FN:306,_RNvNtNtCsduQ6capmcSI_16sweet_grass_core6entity5testss_29test_entity_reference_by_hash
FN:314,_RNvNtNtCsduQ6capmcSI_16sweet_grass_core6entity5testss_30test_entity_reference_external
FN:395,_RNvNtNtCsduQ6capmcSI_16sweet_grass_core6entity5testss_32test_inline_entity_serialization
FN:372,_RNvNtNtCsduQ6capmcSI_16sweet_grass_core6entity5testss_34test_inline_entity_decode_cow_utf8
FN:361,_RNvNtNtCsduQ6capmcSI_16sweet_grass_core6entity5testss_35test_entity_reference_serialization
FN:385,_RNvNtNtCsduQ6capmcSI_16sweet_grass_core6entity5testss_36test_inline_entity_decode_cow_base64
FN:321,_RNvNtNtCsduQ6capmcSI_16sweet_grass_core6entity5testss_39test_entity_reference_external_verified
FN:128,_RNvMNtCsduQ6capmcSI_16sweet_grass_core6entityNtB2_15EntityReference11is_external
FN:110,_RNvMNtCsduQ6capmcSI_16sweet_grass_core6entityNtB2_15EntityReference12content_hash
FN:104,_RNvMNtCsduQ6capmcSI_16sweet_grass_core6entityNtB2_15EntityReference6inline
FN:122,_RNvMNtCsduQ6capmcSI_16sweet_grass_core6entityNtB2_15EntityReference9is_inline
FN:231,_RNvMs0_NtCsduQ6capmcSI_16sweet_grass_core6entityNtB5_12InlineEntity10decode_cow
FN:209,_RNvMs0_NtCsduQ6capmcSI_16sweet_grass_core6entityNtB5_12InlineEntity6decode
FN:254,_RNvMs0_NtCsduQ6capmcSI_16sweet_grass_core6entityNtB5_12InlineEntity6verify
FN:290,_RNvNtCsduQ6capmcSI_16sweet_grass_core6entity10hex_decode
FN:281,_RNvNtCsduQ6capmcSI_16sweet_grass_core6entity10hex_encode
FN:274,_RNvNtCsduQ6capmcSI_16sweet_grass_core6entity14compute_sha256
FN:77,_RINvMNtCsa0ZJ84hKss5_16sweet_grass_core6entityNtB3_15EntityReference13by_loam_entryNtNtCs6bBekJvxEMJ_5alloc6string6StringB1j_ECshDWcvDuPayx_19sweet_grass_factory
FN:59,_RINvMNtCsa0ZJ84hKss5_16sweet_grass_core6entityNtB3_15EntityReference7by_hashRNtNtCs6bBekJvxEMJ_5alloc6string6StringECshDWcvDuPayx_19sweet_grass_factory
FN:59,_RINvMNtCsa0ZJ84hKss5_16sweet_grass_core6entityNtB3_15EntityReference7by_hashReECshDWcvDuPayx_19sweet_grass_factory
FN:59,_RINvMNtCsa0ZJ84hKss5_16sweet_grass_core6entityNtB3_15EntityReference7by_hashReECs53T6FtQI1eQ_17sweet_grass_query
FN:59,_RINvMNtCsa0ZJ84hKss5_16sweet_grass_core6entityNtB3_15EntityReference7by_hashReECs2vbG1lxBQSc_17sweet_grass_store
FNDA:0,_RNvMNtCsa0ZJ84hKss5_16sweet_grass_core6entityNtB2_15EntityReference11is_external
FNDA:83,_RNvMNtCsa0ZJ84hKss5_16sweet_grass_core6entityNtB2_15EntityReference12content_hash
FNDA:8,_RNvMNtCsa0ZJ84hKss5_16sweet_grass_core6entityNtB2_15EntityReference5by_id
FNDA:0,_RNvMNtCsa0ZJ84hKss5_16sweet_grass_core6entityNtB2_15EntityReference6inline
FNDA:0,_RNvMNtCsa0ZJ84hKss5_16sweet_grass_core6entityNtB2_15EntityReference9is_inline
FNDA:0,_RNvMs0_NtCsa0ZJ84hKss5_16sweet_grass_core6entityNtB5_12InlineEntity10decode_cow
FNDA:0,_RNvMs0_NtCsa0ZJ84hKss5_16sweet_grass_core6entityNtB5_12InlineEntity6decode
FNDA:0,_RNvMs0_NtCsa0ZJ84hKss5_16sweet_grass_core6entityNtB5_12InlineEntity6verify
FNDA:0,_RNvNtCsa0ZJ84hKss5_16sweet_grass_core6entity10hex_decode
FNDA:0,_RNvNtCsa0ZJ84hKss5_16sweet_grass_core6entity10hex_encode
FNDA:0,_RNvNtCsa0ZJ84hKss5_16sweet_grass_core6entity14compute_sha256
FNDA:0,_RNvXs_NtCsa0ZJ84hKss5_16sweet_grass_core6entityNtB4_8EncodingNtNtCs9sjCchOt1K7_4core7default7Default7default
FNDA:0,_RNCNCNvNtCsa0ZJ84hKss5_16sweet_grass_core6entity10hex_decode00B7_
FNDA:0,_RNCNvMs0_NtCsa0ZJ84hKss5_16sweet_grass_core6entityNtB7_12InlineEntity10decode_cow0B9_
FNDA:0,_RNCNvMs0_NtCsa0ZJ84hKss5_16sweet_grass_core6entityNtB7_12InlineEntity6decode0B9_
FNDA:0,_RNCNvNtCsa0ZJ84hKss5_16sweet_grass_core6entity10hex_decode0B5_
FNDA:0,_RNCNvNtCsa0ZJ84hKss5_16sweet_grass_core6entity10hex_encode0B5_
FNDA:0,_RINvMNtCsa0ZJ84hKss5_16sweet_grass_core6entityNtB3_15EntityReference13by_hash_typedppEB5_
FNDA:0,_RINvMNtCsa0ZJ84hKss5_16sweet_grass_core6entityNtB3_15EntityReference13by_loam_entryppEB5_
FNDA:0,_RINvMNtCsa0ZJ84hKss5_16sweet_grass_core6entityNtB3_15EntityReference17external_verifiedppEB5_
FNDA:0,_RINvMNtCsa0ZJ84hKss5_16sweet_grass_core6entityNtB3_15EntityReference7by_hashpEB5_
FNDA:0,_RINvMNtCsa0ZJ84hKss5_16sweet_grass_core6entityNtB3_15EntityReference8externalpEB5_
FNDA:0,_RINvMs0_NtCsa0ZJ84hKss5_16sweet_grass_core6entityNtB6_12InlineEntity4jsonpEB8_
FNDA:0,_RINvMs0_NtCsa0ZJ84hKss5_16sweet_grass_core6entityNtB6_12InlineEntity4textppEB8_
FNDA:0,_RINvMs0_NtCsa0ZJ84hKss5_16sweet_grass_core6entityNtB6_12InlineEntity5bytespEB8_
FNDA:0,_RINvMNtCsa0ZJ84hKss5_16sweet_grass_core6entityNtB3_15EntityReference7by_hashRNtNtCs6bBekJvxEMJ_5alloc6string6StringECscy77UfsAwxJ_11integration
FNDA:44,_RINvMNtCsa0ZJ84hKss5_16sweet_grass_core6entityNtB3_15EntityReference7by_hashRNtNtCs6bBekJvxEMJ_5alloc6string6StringECsbdDWz5NO8Tp_19sweet_grass_factory
FNDA:1,_RINvMNtCsduQ6capmcSI_16sweet_grass_core6entityNtB3_15EntityReference13by_hash_typedReB1j_EB5_
FNDA:1,_RINvMNtCsduQ6capmcSI_16sweet_grass_core6entityNtB3_15EntityReference17external_verifiedReB1n_EB5_
FNDA:1,_RINvMNtCsduQ6capmcSI_16sweet_grass_core6entityNtB3_15EntityReference7by_hashReEB5_
FNDA:1,_RINvMNtCsduQ6capmcSI_16sweet_grass_core6entityNtB3_15EntityReference8externalReEB5_
FNDA:1,_RINvMs0_NtCsduQ6capmcSI_16sweet_grass_core6entityNtB6_12InlineEntity4jsonNtNvNtB6_5testss_23test_inline_entity_json4DataEB8_
FNDA:1,_RINvMs0_NtCsduQ6capmcSI_16sweet_grass_core6entityNtB6_12InlineEntity4textRNtNtCs6bBekJvxEMJ_5alloc6string6StringReEB8_
FNDA:3,_RINvMs0_NtCsduQ6capmcSI_16sweet_grass_core6entityNtB6_12InlineEntity4textReB19_EB8_
FNDA:2,_RINvMs0_NtCsduQ6capmcSI_16sweet_grass_core6entityNtB6_12InlineEntity5bytesReEB8_
FNDA:0,_RNCNCNvNtCsduQ6capmcSI_16sweet_grass_core6entity10hex_decode00B7_
FNDA:0,_RNCNvMs0_NtCsduQ6capmcSI_16sweet_grass_core6entityNtB7_12InlineEntity10decode_cow0B9_
FNDA:0,_RNCNvMs0_NtCsduQ6capmcSI_16sweet_grass_core6entityNtB7_12InlineEntity6decode0B9_
FNDA:0,_RNCNvNtCsduQ6capmcSI_16sweet_grass_core6entity10hex_decode0B5_
FNDA:256,_RNCNvNtCsduQ6capmcSI_16sweet_grass_core6entity10hex_encode0B5_
FNDA:0,_RINvMNtCsduQ6capmcSI_16sweet_grass_core6entityNtB3_15EntityReference13by_loam_entryppEB5_
FNDA:0,_RNvMNtCsduQ6capmcSI_16sweet_grass_core6entityNtB2_15EntityReference5by_id
FNDA:0,_RNvXs_NtCsduQ6capmcSI_16sweet_grass_core6entityNtB4_8EncodingNtNtCs9sjCchOt1K7_4core7default7Default7default
FNDA:1,_RNvNtNtCsduQ6capmcSI_16sweet_grass_core6entity5testss_23test_inline_entity_json
FNDA:1,_RNvNtNtCsduQ6capmcSI_16sweet_grass_core6entity5testss_23test_inline_entity_text
FNDA:1,_RNvNtNtCsduQ6capmcSI_16sweet_grass_core6entity5testss_24test_inline_entity_bytes
FNDA:1,_RNvNtNtCsduQ6capmcSI_16sweet_grass_core6entity5testss_29test_entity_reference_by_hash
FNDA:1,_RNvNtNtCsduQ6capmcSI_16sweet_grass_core6entity5testss_30test_entity_reference_external
FNDA:1,_RNvNtNtCsduQ6capmcSI_16sweet_grass_core6entity5testss_32test_inline_entity_serialization
FNDA:1,_RNvNtNtCsduQ6capmcSI_16sweet_grass_core6entity5testss_34test_inline_entity_decode_cow_utf8
FNDA:1,_RNvNtNtCsduQ6capmcSI_16sweet_grass_core6entity5testss_35test_entity_reference_serialization
FNDA:1,_RNvNtNtCsduQ6capmcSI_16sweet_grass_core6entity5testss_36test_inline_entity_decode_cow_base64
FNDA:1,_RNvNtNtCsduQ6capmcSI_16sweet_grass_core6entity5testss_39test_entity_reference_external_verified
FNDA:3,_RNvMNtCsduQ6capmcSI_16sweet_grass_core6entityNtB2_15EntityReference11is_external
FNDA:5,_RNvMNtCsduQ6capmcSI_16sweet_grass_core6entityNtB2_15EntityReference12content_hash
FNDA:1,_RNvMNtCsduQ6capmcSI_16sweet_grass_core6entityNtB2_15EntityReference6inline
FNDA:2,_RNvMNtCsduQ6capmcSI_16sweet_grass_core6entityNtB2_15EntityReference9is_inline
FNDA:2,_RNvMs0_NtCsduQ6capmcSI_16sweet_grass_core6entityNtB5_12InlineEntity10decode_cow
FNDA:3,_RNvMs0_NtCsduQ6capmcSI_16sweet_grass_core6entityNtB5_12InlineEntity6decode
FNDA:2,_RNvMs0_NtCsduQ6capmcSI_16sweet_grass_core6entityNtB5_12InlineEntity6verify
FNDA:0,_RNvNtCsduQ6capmcSI_16sweet_grass_core6entity10hex_decode
FNDA:8,_RNvNtCsduQ6capmcSI_16sweet_grass_core6entity10hex_encode
FNDA:8,_RNvNtCsduQ6capmcSI_16sweet_grass_core6entity14compute_sha256
FNDA:1,_RINvMNtCsa0ZJ84hKss5_16sweet_grass_core6entityNtB3_15EntityReference13by_loam_entryNtNtCs6bBekJvxEMJ_5alloc6string6StringB1j_ECshDWcvDuPayx_19sweet_grass_factory
FNDA:4,_RINvMNtCsa0ZJ84hKss5_16sweet_grass_core6entityNtB3_15EntityReference7by_hashRNtNtCs6bBekJvxEMJ_5alloc6string6StringECshDWcvDuPayx_19sweet_grass_factory
FNDA:1032,_RINvMNtCsa0ZJ84hKss5_16sweet_grass_core6entityNtB3_15EntityReference7by_hashReECshDWcvDuPayx_19sweet_grass_factory
FNDA:42,_RINvMNtCsa0ZJ84hKss5_16sweet_grass_core6entityNtB3_15EntityReference7by_hashReECs53T6FtQI1eQ_17sweet_grass_query
FNDA:2,_RINvMNtCsa0ZJ84hKss5_16sweet_grass_core6entityNtB3_15EntityReference7by_hashReECs2vbG1lxBQSc_17sweet_grass_store
FNF:35
FNH:29
DA:53,8
DA:54,8
DA:55,8
DA:59,1125
DA:60,1125
DA:61,1125
DA:62,1125
DA:63,1125
DA:64,1125
DA:68,1
DA:69,1
DA:70,1
DA:71,1
DA:72,1
DA:73,1
DA:77,1
DA:78,1
DA:79,1
DA:80,1
DA:81,1
DA:82,1
DA:86,1
DA:87,1
DA:88,1
DA:89,1
DA:90,1
DA:91,1
DA:95,1
DA:96,1
DA:97,1
DA:98,1
DA:99,1
DA:100,1
DA:104,1
DA:105,1
DA:106,1
DA:110,88
DA:111,88
DA:112,2
DA:113,84
DA:114,0
DA:115,2
DA:116,0
DA:118,88
DA:122,2
DA:123,2
DA:124,2
DA:128,3
DA:129,3
DA:130,3
DA:146,0
DA:147,0
DA:148,0
DA:170,4
DA:171,4
DA:172,4
DA:173,4
DA:174,4
DA:175,4
DA:176,4
DA:177,4
DA:178,4
DA:179,4
DA:183,2
DA:185,2
DA:186,2
DA:187,2
DA:188,2
DA:189,2
DA:190,2
DA:191,2
DA:192,2
DA:199,1
DA:200,1
DA:201,1
DA:202,1
DA:209,3
DA:210,3
DA:211,1
DA:214,2
DA:215,2
DA:216,2
DA:218,0
DA:220,3
DA:231,2
DA:233,2
DA:234,1
DA:237,1
DA:238,1
DA:239,1
DA:240,1
DA:243,0
DA:244,0
DA:247,2
DA:254,2
DA:255,2
DA:256,2
DA:257,2
DA:258,2
DA:274,8
DA:276,8
DA:277,8
DA:278,8
DA:281,8
DA:283,256
DA:284,256
DA:285,256
DA:286,256
DA:287,8
DA:290,0
DA:291,0
DA:292,0
DA:293,0
DA:294,0
DA:295,0
DA:296,0
DA:297,0
DA:298,0
DA:306,1
DA:307,1
DA:308,1
DA:309,1
DA:310,1
DA:311,1
DA:314,1
DA:315,1
DA:316,1
DA:317,1
DA:318,1
DA:321,1
DA:322,1
DA:323,1
DA:324,1
DA:325,1
DA:326,1
DA:329,1
DA:330,1
DA:331,1
DA:332,1
DA:333,1
DA:334,1
DA:335,1
DA:338,1
DA:339,1
DA:340,1
DA:341,1
DA:343,1
DA:344,1
DA:345,1
DA:346,1
DA:349,1
DA:355,1
DA:356,1
DA:357,1
DA:358,1
DA:361,1
DA:362,1
DA:363,1
DA:364,1
DA:365,1
DA:367,1
DA:368,1
DA:369,1
DA:372,1
DA:374,1
DA:375,1
DA:376,1
DA:377,1
DA:378,1
DA:379,0
DA:381,1
DA:382,1
DA:385,1
DA:387,1
DA:388,1
DA:389,1
DA:390,1
DA:391,1
DA:392,1
DA:395,1
DA:396,1
DA:397,1
DA:398,1
DA:399,1
DA:400,1
DA:401,1
DA:402,1
DA:403,1
BRF:0
BRH:0
LF:194
LH:171
end_of_record
SF:/home/strandgate/Development/ecoPrimals/phase2/sweetGrass/crates/sweet-grass-core/src/error.rs
FN:191,_RNvMNtCsa0ZJ84hKss5_16sweet_grass_core5errorNtB2_15SweetGrassError12is_not_found
FN:163,_RNvMNtCsa0ZJ84hKss5_16sweet_grass_core5errorNtB2_15SweetGrassError12is_retriable
FN:179,_RNvMNtCsa0ZJ84hKss5_16sweet_grass_core5errorNtB2_15SweetGrassError13is_validation
FN:202,_RNvNtNtCsduQ6capmcSI_16sweet_grass_core5error5testss_18test_error_display
FN:343,_RNvNtNtCsduQ6capmcSI_16sweet_grass_core5error5testss_18test_error_from_io
FN:221,_RNvNtNtCsduQ6capmcSI_16sweet_grass_core5error5testss_20test_error_not_found
FN:208,_RNvNtNtCsduQ6capmcSI_16sweet_grass_core5error5testss_20test_error_retriable
FN:235,_RNvNtNtCsduQ6capmcSI_16sweet_grass_core5error5testss_20test_from_json_error
FN:350,_RNvNtNtCsduQ6capmcSI_16sweet_grass_core5error5testss_21test_error_debug_impl
FN:214,_RNvNtNtCsduQ6capmcSI_16sweet_grass_core5error5testss_21test_error_validation
FN:228,_RNvNtNtCsduQ6capmcSI_16sweet_grass_core5error5testss_25test_query_depth_exceeded
FN:332,_RNvNtNtCsduQ6capmcSI_16sweet_grass_core5error5testss_26test_invalid_config_fields
FN:323,_RNvNtNtCsduQ6capmcSI_16sweet_grass_core5error5testss_27test_query_timeout_duration
FN:242,_RNvNtNtCsduQ6capmcSI_16sweet_grass_core5error5testss_31test_all_error_variants_display
FN:312,_RNvNtNtCsduQ6capmcSI_16sweet_grass_core5error5testss_35test_not_found_errors_comprehensive
FN:280,_RNvNtNtCsduQ6capmcSI_16sweet_grass_core5error5testss_35test_retriable_errors_comprehensive
FN:299,_RNvNtNtCsduQ6capmcSI_16sweet_grass_core5error5testss_36test_validation_errors_comprehensive
FN:191,_RNvMNtCsduQ6capmcSI_16sweet_grass_core5errorNtB2_15SweetGrassError12is_not_found
FN:163,_RNvMNtCsduQ6capmcSI_16sweet_grass_core5errorNtB2_15SweetGrassError12is_retriable
FN:179,_RNvMNtCsduQ6capmcSI_16sweet_grass_core5errorNtB2_15SweetGrassError13is_validation
FNDA:0,_RNvMNtCsa0ZJ84hKss5_16sweet_grass_core5errorNtB2_15SweetGrassError12is_not_found
FNDA:0,_RNvMNtCsa0ZJ84hKss5_16sweet_grass_core5errorNtB2_15SweetGrassError12is_retriable
FNDA:0,_RNvMNtCsa0ZJ84hKss5_16sweet_grass_core5errorNtB2_15SweetGrassError13is_validation
FNDA:1,_RNvNtNtCsduQ6capmcSI_16sweet_grass_core5error5testss_18test_error_display
FNDA:1,_RNvNtNtCsduQ6capmcSI_16sweet_grass_core5error5testss_18test_error_from_io
FNDA:1,_RNvNtNtCsduQ6capmcSI_16sweet_grass_core5error5testss_20test_error_not_found
FNDA:1,_RNvNtNtCsduQ6capmcSI_16sweet_grass_core5error5testss_20test_error_retriable
FNDA:1,_RNvNtNtCsduQ6capmcSI_16sweet_grass_core5error5testss_20test_from_json_error
FNDA:1,_RNvNtNtCsduQ6capmcSI_16sweet_grass_core5error5testss_21test_error_debug_impl
FNDA:1,_RNvNtNtCsduQ6capmcSI_16sweet_grass_core5error5testss_21test_error_validation
FNDA:1,_RNvNtNtCsduQ6capmcSI_16sweet_grass_core5error5testss_25test_query_depth_exceeded
FNDA:1,_RNvNtNtCsduQ6capmcSI_16sweet_grass_core5error5testss_26test_invalid_config_fields
FNDA:1,_RNvNtNtCsduQ6capmcSI_16sweet_grass_core5error5testss_27test_query_timeout_duration
FNDA:1,_RNvNtNtCsduQ6capmcSI_16sweet_grass_core5error5testss_31test_all_error_variants_display
FNDA:1,_RNvNtNtCsduQ6capmcSI_16sweet_grass_core5error5testss_35test_not_found_errors_comprehensive
FNDA:1,_RNvNtNtCsduQ6capmcSI_16sweet_grass_core5error5testss_35test_retriable_errors_comprehensive
FNDA:1,_RNvNtNtCsduQ6capmcSI_16sweet_grass_core5error5testss_36test_validation_errors_comprehensive
FNDA:7,_RNvMNtCsduQ6capmcSI_16sweet_grass_core5errorNtB2_15SweetGrassError12is_not_found
FNDA:14,_RNvMNtCsduQ6capmcSI_16sweet_grass_core5errorNtB2_15SweetGrassError12is_retriable
FNDA:9,_RNvMNtCsduQ6capmcSI_16sweet_grass_core5errorNtB2_15SweetGrassError13is_validation
FNF:17
FNH:17
DA:163,14
DA:164,5
DA:165,14
DA:175,14
DA:179,9
DA:180,3
DA:181,9
DA:187,9
DA:191,7
DA:192,7
DA:193,7
DA:202,1
DA:203,1
DA:204,1
DA:205,1
DA:208,1
DA:209,1
DA:210,1
DA:211,1
DA:214,1
DA:215,1
DA:216,1
DA:217,1
DA:218,1
DA:221,1
DA:222,1
DA:223,1
DA:224,1
DA:225,1
DA:228,1
DA:229,1
DA:230,1
DA:231,1
DA:232,1
DA:235,1
DA:236,1
DA:237,1
DA:238,1
DA:239,1
DA:242,1
DA:243,1
DA:244,1
DA:245,1
DA:246,1
DA:247,1
DA:248,1
DA:249,1
DA:250,1
DA:251,1
DA:252,1
DA:253,1
DA:254,1
DA:255,1
DA:256,1
DA:257,1
DA:258,1
DA:259,1
DA:260,1
DA:261,1
DA:262,1
DA:263,1
DA:264,1
DA:265,1
DA:266,1
DA:267,1
DA:268,1
DA:269,1
DA:270,1
DA:271,1
DA:273,24
DA:275,23
DA:277,1
DA:280,1
DA:281,1
DA:282,1
DA:283,1
DA:284,1
DA:285,1
DA:286,1
DA:287,1
DA:288,1
DA:289,1
DA:292,1
DA:293,1
DA:294,1
DA:295,1
DA:296,1
DA:299,1
DA:300,1
DA:301,1
DA:302,1
DA:303,1
DA:304,1
DA:307,1
DA:308,1
DA:309,1
DA:312,1
DA:313,1
DA:314,1
DA:315,1
DA:318,1
DA:319,1
DA:320,1
DA:323,1
DA:324,1
DA:325,1
DA:326,1
DA:327,1
DA:328,1
DA:329,1
DA:332,1
DA:333,1
DA:334,1
DA:335,1
DA:336,1
DA:337,1
DA:338,1
DA:339,1
DA:340,1
DA:343,1
DA:344,1
DA:345,1
DA:346,1
DA:347,1
DA:350,1
DA:351,1
DA:352,1
DA:353,1
DA:354,1
DA:355,1
BRF:0
BRH:0
LF:130
LH:130
end_of_record
SF:/home/strandgate/Development/ecoPrimals/phase2/sweetGrass/crates/sweet-grass-core/src/primal.rs
FN:29,_RNvMNtCsa0ZJ84hKss5_16sweet_grass_core6primalNtB2_11PrimalState10is_running
FN:41,_RNvMNtCsa0ZJ84hKss5_16sweet_grass_core6primalNtB2_11PrimalState8can_stop
FN:35,_RNvMNtCsa0ZJ84hKss5_16sweet_grass_core6primalNtB2_11PrimalState9can_start
FN:79,_RNvMs0_NtCsa0ZJ84hKss5_16sweet_grass_core6primalNtB5_12HealthStatus10is_healthy
FN:85,_RNvMs0_NtCsa0ZJ84hKss5_16sweet_grass_core6primalNtB5_12HealthStatus14is_operational
FN:137,_RNvMs2_NtCsa0ZJ84hKss5_16sweet_grass_core6primalNtB5_12HealthReport10with_check
FN:130,_RNvMs2_NtCsa0ZJ84hKss5_16sweet_grass_core6primalNtB5_12HealthReport11with_status
FN:275,_RNvMs4_NtCsa0ZJ84hKss5_16sweet_grass_core6primalNtB5_10SweetGrass12health_check
FN:324,_RNvMs4_NtCsa0ZJ84hKss5_16sweet_grass_core6primalNtB5_10SweetGrass13check_storage
FN:318,_RNvMs4_NtCsa0ZJ84hKss5_16sweet_grass_core6primalNtB5_10SweetGrass13flush_storage
FN:260,_RNvMs4_NtCsa0ZJ84hKss5_16sweet_grass_core6primalNtB5_10SweetGrass13health_status
FN:312,_RNvMs4_NtCsa0ZJ84hKss5_16sweet_grass_core6primalNtB5_10SweetGrass14stop_listeners
FN:289,_RNvMs4_NtCsa0ZJ84hKss5_16sweet_grass_core6primalNtB5_10SweetGrass18initialize_storage
FN:296,_RNvMs4_NtCsa0ZJ84hKss5_16sweet_grass_core6primalNtB5_10SweetGrass20initialize_listeners
FN:185,_RNvMs4_NtCsa0ZJ84hKss5_16sweet_grass_core6primalNtB5_10SweetGrass3new
FN:239,_RNvMs4_NtCsa0ZJ84hKss5_16sweet_grass_core6primalNtB5_10SweetGrass4stop
FN:215,_RNvMs4_NtCsa0ZJ84hKss5_16sweet_grass_core6primalNtB5_10SweetGrass5start
FN:194,_RNvMs4_NtCsa0ZJ84hKss5_16sweet_grass_core6primalNtB5_10SweetGrass5state
FN:200,_RNvMs4_NtCsa0ZJ84hKss5_16sweet_grass_core6primalNtB5_10SweetGrass6config
FN:206,_RNvMs4_NtCsa0ZJ84hKss5_16sweet_grass_core6primalNtB5_10SweetGrass7version
FN:91,_RNvXs1_NtCsa0ZJ84hKss5_16sweet_grass_core6primalNtB5_12HealthStatusNtNtCs9sjCchOt1K7_4core3fmt7Display3fmt
FN:47,_RNvXs_NtCsa0ZJ84hKss5_16sweet_grass_core6primalNtB4_11PrimalStateNtNtCs9sjCchOt1K7_4core3fmt7Display3fmt
FN:118,_RINvMs2_NtCsa0ZJ84hKss5_16sweet_grass_core6primalNtB6_12HealthReport3newppEB8_
FN:167,_RINvMs3_NtCsa0ZJ84hKss5_16sweet_grass_core6primalNtB6_11HealthCheck4failppEB8_
FN:157,_RINvMs3_NtCsa0ZJ84hKss5_16sweet_grass_core6primalNtB6_11HealthCheck4passpEB8_
FN:275,_RNCNvMs4_NtCsa0ZJ84hKss5_16sweet_grass_core6primalNtB7_10SweetGrass12health_check0B9_
FN:324,_RNCNvMs4_NtCsa0ZJ84hKss5_16sweet_grass_core6primalNtB7_10SweetGrass13check_storage0B9_
FN:318,_RNCNvMs4_NtCsa0ZJ84hKss5_16sweet_grass_core6primalNtB7_10SweetGrass13flush_storage0B9_
FN:312,_RNCNvMs4_NtCsa0ZJ84hKss5_16sweet_grass_core6primalNtB7_10SweetGrass14stop_listeners0B9_
FN:289,_RNCNvMs4_NtCsa0ZJ84hKss5_16sweet_grass_core6primalNtB7_10SweetGrass18initialize_storage0B9_
FN:296,_RNCNvMs4_NtCsa0ZJ84hKss5_16sweet_grass_core6primalNtB7_10SweetGrass20initialize_listeners0B9_
FN:239,_RNCNvMs4_NtCsa0ZJ84hKss5_16sweet_grass_core6primalNtB7_10SweetGrass4stop0B9_
FN:215,_RNCNvMs4_NtCsa0ZJ84hKss5_16sweet_grass_core6primalNtB7_10SweetGrass5start0B9_
FN:91,_RNvXs1_NtCsduQ6capmcSI_16sweet_grass_core6primalNtB5_12HealthStatusNtNtCs9sjCchOt1K7_4core3fmt7Display3fmt
FN:118,_RINvMs2_NtCsduQ6capmcSI_16sweet_grass_core6primalNtB6_12HealthReport3newRNtNtCs6bBekJvxEMJ_5alloc6string6StringReEB8_
FN:118,_RINvMs2_NtCsduQ6capmcSI_16sweet_grass_core6primalNtB6_12HealthReport3newReB18_EB8_
FN:167,_RINvMs3_NtCsduQ6capmcSI_16sweet_grass_core6primalNtB6_11HealthCheck4failReB18_EB8_
FN:157,_RINvMs3_NtCsduQ6capmcSI_16sweet_grass_core6primalNtB6_11HealthCheck4passReEB8_
FN:275,_RNCNvMs4_NtCsduQ6capmcSI_16sweet_grass_core6primalNtB7_10SweetGrass12health_check0B9_
FN:324,_RNCNvMs4_NtCsduQ6capmcSI_16sweet_grass_core6primalNtB7_10SweetGrass13check_storage0B9_
FN:318,_RNCNvMs4_NtCsduQ6capmcSI_16sweet_grass_core6primalNtB7_10SweetGrass13flush_storage0B9_
FN:312,_RNCNvMs4_NtCsduQ6capmcSI_16sweet_grass_core6primalNtB7_10SweetGrass14stop_listeners0B9_
FN:289,_RNCNvMs4_NtCsduQ6capmcSI_16sweet_grass_core6primalNtB7_10SweetGrass18initialize_storage0B9_
FN:296,_RNCNvMs4_NtCsduQ6capmcSI_16sweet_grass_core6primalNtB7_10SweetGrass20initialize_listeners0B9_
FN:239,_RNCNvMs4_NtCsduQ6capmcSI_16sweet_grass_core6primalNtB7_10SweetGrass4stop0B9_
FN:215,_RNCNvMs4_NtCsduQ6capmcSI_16sweet_grass_core6primalNtB7_10SweetGrass5start0B9_
FN:407,_RNCNvNtNtCsduQ6capmcSI_16sweet_grass_core6primal5testss_17test_health_check0B7_
FN:380,_RNCNvNtNtCsduQ6capmcSI_16sweet_grass_core6primal5testss_25test_sweetgrass_lifecycle0B7_
FN:29,_RNvMNtCsduQ6capmcSI_16sweet_grass_core6primalNtB2_11PrimalState10is_running
FN:41,_RNvMNtCsduQ6capmcSI_16sweet_grass_core6primalNtB2_11PrimalState8can_stop
FN:35,_RNvMNtCsduQ6capmcSI_16sweet_grass_core6primalNtB2_11PrimalState9can_start
FN:79,_RNvMs0_NtCsduQ6capmcSI_16sweet_grass_core6primalNtB5_12HealthStatus10is_healthy
FN:85,_RNvMs0_NtCsduQ6capmcSI_16sweet_grass_core6primalNtB5_12HealthStatus14is_operational
FN:137,_RNvMs2_NtCsduQ6capmcSI_16sweet_grass_core6primalNtB5_12HealthReport10with_check
FN:130,_RNvMs2_NtCsduQ6capmcSI_16sweet_grass_core6primalNtB5_12HealthReport11with_status
FN:275,_RNvMs4_NtCsduQ6capmcSI_16sweet_grass_core6primalNtB5_10SweetGrass12health_check
FN:324,_RNvMs4_NtCsduQ6capmcSI_16sweet_grass_core6primalNtB5_10SweetGrass13check_storage
FN:318,_RNvMs4_NtCsduQ6capmcSI_16sweet_grass_core6primalNtB5_10SweetGrass13flush_storage
FN:260,_RNvMs4_NtCsduQ6capmcSI_16sweet_grass_core6primalNtB5_10SweetGrass13health_status
FN:312,_RNvMs4_NtCsduQ6capmcSI_16sweet_grass_core6primalNtB5_10SweetGrass14stop_listeners
FN:289,_RNvMs4_NtCsduQ6capmcSI_16sweet_grass_core6primalNtB5_10SweetGrass18initialize_storage
FN:296,_RNvMs4_NtCsduQ6capmcSI_16sweet_grass_core6primalNtB5_10SweetGrass20initialize_listeners
FN:185,_RNvMs4_NtCsduQ6capmcSI_16sweet_grass_core6primalNtB5_10SweetGrass3new
FN:239,_RNvMs4_NtCsduQ6capmcSI_16sweet_grass_core6primalNtB5_10SweetGrass4stop
FN:215,_RNvMs4_NtCsduQ6capmcSI_16sweet_grass_core6primalNtB5_10SweetGrass5start
FN:194,_RNvMs4_NtCsduQ6capmcSI_16sweet_grass_core6primalNtB5_10SweetGrass5state
FN:200,_RNvMs4_NtCsduQ6capmcSI_16sweet_grass_core6primalNtB5_10SweetGrass6config
FN:206,_RNvMs4_NtCsduQ6capmcSI_16sweet_grass_core6primalNtB5_10SweetGrass7version
FN:47,_RNvXs_NtCsduQ6capmcSI_16sweet_grass_core6primalNtB4_11PrimalStateNtNtCs9sjCchOt1K7_4core3fmt7Display3fmt
FN:407,_RNvNtNtCsduQ6capmcSI_16sweet_grass_core6primal5testss_17test_health_check
FN:353,_RNvNtNtCsduQ6capmcSI_16sweet_grass_core6primal5testss_18test_health_status
FN:371,_RNvNtNtCsduQ6capmcSI_16sweet_grass_core6primal5testss_24test_sweetgrass_creation
FN:347,_RNvNtNtCsduQ6capmcSI_16sweet_grass_core6primal5testss_25test_primal_state_display
FN:380,_RNvNtNtCsduQ6capmcSI_16sweet_grass_core6primal5testss_25test_sweetgrass_lifecycle
FN:423,_RNvNtNtCsduQ6capmcSI_16sweet_grass_core6primal5testss_26test_health_report_builder
FN:336,_RNvNtNtCsduQ6capmcSI_16sweet_grass_core6primal5testss_29test_primal_state_transitions
FNDA:0,_RNvMNtCsa0ZJ84hKss5_16sweet_grass_core6primalNtB2_11PrimalState10is_running
FNDA:0,_RNvMNtCsa0ZJ84hKss5_16sweet_grass_core6primalNtB2_11PrimalState8can_stop
FNDA:0,_RNvMNtCsa0ZJ84hKss5_16sweet_grass_core6primalNtB2_11PrimalState9can_start
FNDA:0,_RNvMs0_NtCsa0ZJ84hKss5_16sweet_grass_core6primalNtB5_12HealthStatus10is_healthy
FNDA:0,_RNvMs0_NtCsa0ZJ84hKss5_16sweet_grass_core6primalNtB5_12HealthStatus14is_operational
FNDA:0,_RNvMs2_NtCsa0ZJ84hKss5_16sweet_grass_core6primalNtB5_12HealthReport10with_check
FNDA:0,_RNvMs2_NtCsa0ZJ84hKss5_16sweet_grass_core6primalNtB5_12HealthReport11with_status
FNDA:0,_RNvMs4_NtCsa0ZJ84hKss5_16sweet_grass_core6primalNtB5_10SweetGrass12health_check
FNDA:0,_RNvMs4_NtCsa0ZJ84hKss5_16sweet_grass_core6primalNtB5_10SweetGrass13check_storage
FNDA:0,_RNvMs4_NtCsa0ZJ84hKss5_16sweet_grass_core6primalNtB5_10SweetGrass13flush_storage
FNDA:0,_RNvMs4_NtCsa0ZJ84hKss5_16sweet_grass_core6primalNtB5_10SweetGrass13health_status
FNDA:0,_RNvMs4_NtCsa0ZJ84hKss5_16sweet_grass_core6primalNtB5_10SweetGrass14stop_listeners
FNDA:0,_RNvMs4_NtCsa0ZJ84hKss5_16sweet_grass_core6primalNtB5_10SweetGrass18initialize_storage
FNDA:0,_RNvMs4_NtCsa0ZJ84hKss5_16sweet_grass_core6primalNtB5_10SweetGrass20initialize_listeners
FNDA:0,_RNvMs4_NtCsa0ZJ84hKss5_16sweet_grass_core6primalNtB5_10SweetGrass3new
FNDA:0,_RNvMs4_NtCsa0ZJ84hKss5_16sweet_grass_core6primalNtB5_10SweetGrass4stop
FNDA:0,_RNvMs4_NtCsa0ZJ84hKss5_16sweet_grass_core6primalNtB5_10SweetGrass5start
FNDA:0,_RNvMs4_NtCsa0ZJ84hKss5_16sweet_grass_core6primalNtB5_10SweetGrass5state
FNDA:0,_RNvMs4_NtCsa0ZJ84hKss5_16sweet_grass_core6primalNtB5_10SweetGrass6config
FNDA:0,_RNvMs4_NtCsa0ZJ84hKss5_16sweet_grass_core6primalNtB5_10SweetGrass7version
FNDA:0,_RNvXs1_NtCsa0ZJ84hKss5_16sweet_grass_core6primalNtB5_12HealthStatusNtNtCs9sjCchOt1K7_4core3fmt7Display3fmt
FNDA:0,_RNvXs_NtCsa0ZJ84hKss5_16sweet_grass_core6primalNtB4_11PrimalStateNtNtCs9sjCchOt1K7_4core3fmt7Display3fmt
FNDA:0,_RINvMs2_NtCsa0ZJ84hKss5_16sweet_grass_core6primalNtB6_12HealthReport3newppEB8_
FNDA:0,_RINvMs3_NtCsa0ZJ84hKss5_16sweet_grass_core6primalNtB6_11HealthCheck4failppEB8_
FNDA:0,_RINvMs3_NtCsa0ZJ84hKss5_16sweet_grass_core6primalNtB6_11HealthCheck4passpEB8_
FNDA:0,_RNCNvMs4_NtCsa0ZJ84hKss5_16sweet_grass_core6primalNtB7_10SweetGrass12health_check0B9_
FNDA:0,_RNCNvMs4_NtCsa0ZJ84hKss5_16sweet_grass_core6primalNtB7_10SweetGrass13check_storage0B9_
FNDA:0,_RNCNvMs4_NtCsa0ZJ84hKss5_16sweet_grass_core6primalNtB7_10SweetGrass13flush_storage0B9_
FNDA:0,_RNCNvMs4_NtCsa0ZJ84hKss5_16sweet_grass_core6primalNtB7_10SweetGrass14stop_listeners0B9_
FNDA:0,_RNCNvMs4_NtCsa0ZJ84hKss5_16sweet_grass_core6primalNtB7_10SweetGrass18initialize_storage0B9_
FNDA:0,_RNCNvMs4_NtCsa0ZJ84hKss5_16sweet_grass_core6primalNtB7_10SweetGrass20initialize_listeners0B9_
FNDA:0,_RNCNvMs4_NtCsa0ZJ84hKss5_16sweet_grass_core6primalNtB7_10SweetGrass4stop0B9_
FNDA:0,_RNCNvMs4_NtCsa0ZJ84hKss5_16sweet_grass_core6primalNtB7_10SweetGrass5start0B9_
FNDA:0,_RNvXs1_NtCsduQ6capmcSI_16sweet_grass_core6primalNtB5_12HealthStatusNtNtCs9sjCchOt1K7_4core3fmt7Display3fmt
FNDA:2,_RINvMs2_NtCsduQ6capmcSI_16sweet_grass_core6primalNtB6_12HealthReport3newRNtNtCs6bBekJvxEMJ_5alloc6string6StringReEB8_
FNDA:1,_RINvMs2_NtCsduQ6capmcSI_16sweet_grass_core6primalNtB6_12HealthReport3newReB18_EB8_
FNDA:1,_RINvMs3_NtCsduQ6capmcSI_16sweet_grass_core6primalNtB6_11HealthCheck4failReB18_EB8_
FNDA:3,_RINvMs3_NtCsduQ6capmcSI_16sweet_grass_core6primalNtB6_11HealthCheck4passReEB8_
FNDA:2,_RNCNvMs4_NtCsduQ6capmcSI_16sweet_grass_core6primalNtB7_10SweetGrass12health_check0B9_
FNDA:2,_RNCNvMs4_NtCsduQ6capmcSI_16sweet_grass_core6primalNtB7_10SweetGrass13check_storage0B9_
FNDA:1,_RNCNvMs4_NtCsduQ6capmcSI_16sweet_grass_core6primalNtB7_10SweetGrass13flush_storage0B9_
FNDA:1,_RNCNvMs4_NtCsduQ6capmcSI_16sweet_grass_core6primalNtB7_10SweetGrass14stop_listeners0B9_
FNDA:3,_RNCNvMs4_NtCsduQ6capmcSI_16sweet_grass_core6primalNtB7_10SweetGrass18initialize_storage0B9_
FNDA:3,_RNCNvMs4_NtCsduQ6capmcSI_16sweet_grass_core6primalNtB7_10SweetGrass20initialize_listeners0B9_
FNDA:2,_RNCNvMs4_NtCsduQ6capmcSI_16sweet_grass_core6primalNtB7_10SweetGrass4stop0B9_
FNDA:4,_RNCNvMs4_NtCsduQ6capmcSI_16sweet_grass_core6primalNtB7_10SweetGrass5start0B9_
FNDA:1,_RNCNvNtNtCsduQ6capmcSI_16sweet_grass_core6primal5testss_17test_health_check0B7_
FNDA:1,_RNCNvNtNtCsduQ6capmcSI_16sweet_grass_core6primal5testss_25test_sweetgrass_lifecycle0B7_
FNDA:3,_RNvMNtCsduQ6capmcSI_16sweet_grass_core6primalNtB2_11PrimalState10is_running
FNDA:4,_RNvMNtCsduQ6capmcSI_16sweet_grass_core6primalNtB2_11PrimalState8can_stop
FNDA:8,_RNvMNtCsduQ6capmcSI_16sweet_grass_core6primalNtB2_11PrimalState9can_start
FNDA:6,_RNvMs0_NtCsduQ6capmcSI_16sweet_grass_core6primalNtB5_12HealthStatus10is_healthy
FNDA:3,_RNvMs0_NtCsduQ6capmcSI_16sweet_grass_core6primalNtB5_12HealthStatus14is_operational
FNDA:4,_RNvMs2_NtCsduQ6capmcSI_16sweet_grass_core6primalNtB5_12HealthReport10with_check
FNDA:3,_RNvMs2_NtCsduQ6capmcSI_16sweet_grass_core6primalNtB5_12HealthReport11with_status
FNDA:2,_RNvMs4_NtCsduQ6capmcSI_16sweet_grass_core6primalNtB5_10SweetGrass12health_check
FNDA:2,_RNvMs4_NtCsduQ6capmcSI_16sweet_grass_core6primalNtB5_10SweetGrass13check_storage
FNDA:1,_RNvMs4_NtCsduQ6capmcSI_16sweet_grass_core6primalNtB5_10SweetGrass13flush_storage
FNDA:3,_RNvMs4_NtCsduQ6capmcSI_16sweet_grass_core6primalNtB5_10SweetGrass13health_status
FNDA:1,_RNvMs4_NtCsduQ6capmcSI_16sweet_grass_core6primalNtB5_10SweetGrass14stop_listeners
FNDA:3,_RNvMs4_NtCsduQ6capmcSI_16sweet_grass_core6primalNtB5_10SweetGrass18initialize_storage
FNDA:3,_RNvMs4_NtCsduQ6capmcSI_16sweet_grass_core6primalNtB5_10SweetGrass20initialize_listeners
FNDA:3,_RNvMs4_NtCsduQ6capmcSI_16sweet_grass_core6primalNtB5_10SweetGrass3new
FNDA:2,_RNvMs4_NtCsduQ6capmcSI_16sweet_grass_core6primalNtB5_10SweetGrass4stop
FNDA:4,_RNvMs4_NtCsduQ6capmcSI_16sweet_grass_core6primalNtB5_10SweetGrass5start
FNDA:4,_RNvMs4_NtCsduQ6capmcSI_16sweet_grass_core6primalNtB5_10SweetGrass5state
FNDA:1,_RNvMs4_NtCsduQ6capmcSI_16sweet_grass_core6primalNtB5_10SweetGrass6config
FNDA:2,_RNvMs4_NtCsduQ6capmcSI_16sweet_grass_core6primalNtB5_10SweetGrass7version
FNDA:4,_RNvXs_NtCsduQ6capmcSI_16sweet_grass_core6primalNtB4_11PrimalStateNtNtCs9sjCchOt1K7_4core3fmt7Display3fmt
FNDA:1,_RNvNtNtCsduQ6capmcSI_16sweet_grass_core6primal5testss_17test_health_check
FNDA:1,_RNvNtNtCsduQ6capmcSI_16sweet_grass_core6primal5testss_18test_health_status
FNDA:1,_RNvNtNtCsduQ6capmcSI_16sweet_grass_core6primal5testss_24test_sweetgrass_creation
FNDA:1,_RNvNtNtCsduQ6capmcSI_16sweet_grass_core6primal5testss_25test_primal_state_display
FNDA:1,_RNvNtNtCsduQ6capmcSI_16sweet_grass_core6primal5testss_25test_sweetgrass_lifecycle
FNDA:1,_RNvNtNtCsduQ6capmcSI_16sweet_grass_core6primal5testss_26test_health_report_builder
FNDA:1,_RNvNtNtCsduQ6capmcSI_16sweet_grass_core6primal5testss_29test_primal_state_transitions
FNF:42
FNH:41
DA:29,3
DA:30,3
DA:31,3
DA:35,8
DA:36,8
DA:37,8
DA:41,4
DA:42,4
DA:43,4
DA:47,4
DA:48,4
DA:49,1
DA:50,0
DA:51,1
DA:52,0
DA:53,2
DA:54,0
DA:56,4
DA:79,6
DA:80,6
DA:81,6
DA:85,3
DA:86,3
DA:87,3
DA:91,0
DA:92,0
DA:93,0
DA:94,0
DA:95,0
DA:97,0
DA:118,3
DA:119,3
DA:120,3
DA:121,3
DA:122,3
DA:123,3
DA:124,3
DA:125,3
DA:126,3
DA:130,3
DA:131,3
DA:132,3
DA:133,3
DA:137,4
DA:138,4
DA:139,4
DA:140,4
DA:157,3
DA:158,3
DA:159,3
DA:160,3
DA:161,3
DA:162,3
DA:163,3
DA:167,1
DA:168,1
DA:169,1
DA:170,1
DA:171,1
DA:172,1
DA:173,1
DA:185,3
DA:186,3
DA:187,3
DA:188,3
DA:189,3
DA:190,3
DA:194,4
DA:195,4
DA:196,4
DA:200,1
DA:201,1
DA:202,1
DA:206,2
DA:207,2
DA:208,2
DA:215,4
DA:216,4
DA:217,1
DA:218,3
DA:219,3
DA:220,3
DA:221,3
DA:224,3
DA:227,3
DA:229,3
DA:230,3
DA:231,3
DA:232,4
DA:239,2
DA:240,2
DA:241,1
DA:242,1
DA:243,1
DA:244,1
DA:245,1
DA:248,1
DA:251,1
DA:253,1
DA:254,1
DA:255,1
DA:256,2
DA:260,3
DA:261,3
DA:262,2
DA:264,1
DA:265,1
DA:266,1
DA:268,3
DA:275,2
DA:276,2
DA:277,2
DA:280,2
DA:281,2
DA:282,2
DA:283,2
DA:284,2
DA:289,3
DA:290,3
DA:292,3
DA:293,3
DA:296,3
DA:297,3
DA:298,3
DA:299,3
DA:300,3
DA:301,0
DA:302,3
DA:303,3
DA:304,0
DA:305,3
DA:306,3
DA:307,0
DA:308,3
DA:309,3
DA:312,1
DA:313,1
DA:314,1
DA:315,1
DA:318,1
DA:319,1
DA:320,1
DA:321,1
DA:324,2
DA:325,2
DA:326,2
DA:327,2
DA:336,1
DA:337,1
DA:338,1
DA:339,1
DA:340,1
DA:342,1
DA:343,1
DA:344,1
DA:347,1
DA:348,1
DA:349,1
DA:350,1
DA:353,1
DA:354,1
DA:355,1
DA:357,1
DA:358,1
DA:359,1
DA:360,1
DA:361,1
DA:363,1
DA:364,1
DA:365,1
DA:366,1
DA:367,1
DA:368,1
DA:371,1
DA:372,1
DA:373,1
DA:374,1
DA:375,1
DA:376,1
DA:377,1
DA:380,1
DA:381,1
DA:382,1
DA:383,1
DA:384,1
DA:385,1
DA:386,1
DA:387,1
DA:388,1
DA:389,1
DA:390,1
DA:391,1
DA:392,1
DA:393,1
DA:394,1
DA:395,1
DA:396,1
DA:397,1
DA:398,1
DA:399,1
DA:400,1
DA:401,1
DA:402,1
DA:403,1
DA:404,1
DA:407,1
DA:408,1
DA:409,1
DA:410,1
DA:411,1
DA:412,1
DA:413,1
DA:414,1
DA:415,1
DA:416,1
DA:417,1
DA:418,1
DA:419,1
DA:420,1
DA:423,1
DA:424,1
DA:425,1
DA:426,1
DA:427,1
DA:428,1
DA:429,1
DA:430,1
DA:431,1
DA:432,1
DA:433,1
BRF:0
BRH:0
LF:263
LH:251
end_of_record
SF:/home/strandgate/Development/ecoPrimals/phase2/sweetGrass/crates/sweet-grass-core/src/primal_info.rs
FN:130,_RNCNCNvMNtCsa0ZJ84hKss5_16sweet_grass_core11primal_infoNtB6_13SelfKnowledge10parse_port00B8_
FN:128,_RNCNvMNtCsa0ZJ84hKss5_16sweet_grass_core11primal_infoNtB4_13SelfKnowledge10parse_port0B6_
FN:96,_RNCNvMNtCsa0ZJ84hKss5_16sweet_grass_core11primal_infoNtB4_13SelfKnowledge8from_env0B6_
FN:98,_RNCNvMNtCsa0ZJ84hKss5_16sweet_grass_core11primal_infoNtB4_13SelfKnowledge8from_envs_0B6_
FN:127,_RNvMNtCsduQ6capmcSI_16sweet_grass_core11primal_infoNtB2_13SelfKnowledge10parse_port
FN:107,_RNvMNtCsduQ6capmcSI_16sweet_grass_core11primal_infoNtB2_13SelfKnowledge18parse_capabilities
FN:144,_RNvMNtCsduQ6capmcSI_16sweet_grass_core11primal_infoNtB2_13SelfKnowledge6offers
FN:136,_RNvMNtCsduQ6capmcSI_16sweet_grass_core11primal_infoNtB2_13SelfKnowledge6uptime
FN:94,_RNvMNtCsduQ6capmcSI_16sweet_grass_core11primal_infoNtB2_13SelfKnowledge8from_env
FN:150,_RNvXs_NtCsduQ6capmcSI_16sweet_grass_core11primal_infoNtB4_13SelfKnowledgeNtNtCs9sjCchOt1K7_4core7default7Default7default
FN:168,_RINvNtNtCsduQ6capmcSI_16sweet_grass_core11primal_info5tests14with_clean_envNCNvB2_s_32test_self_knowledge_invalid_port0EB6_
FN:168,_RINvNtNtCsduQ6capmcSI_16sweet_grass_core11primal_info5tests14with_clean_envNCNvB2_s_35test_self_knowledge_from_env_custom0EB6_
FN:168,_RINvNtNtCsduQ6capmcSI_16sweet_grass_core11primal_info5tests14with_clean_envNCNvB2_s_37test_self_knowledge_custom_capability0EB6_
FN:168,_RINvNtNtCsduQ6capmcSI_16sweet_grass_core11primal_info5tests14with_clean_envNCNvB2_s_37test_self_knowledge_from_env_defaults0EB6_
FN:254,_RNCNvNtNtCsduQ6capmcSI_16sweet_grass_core11primal_info5testss_32test_self_knowledge_invalid_port0B7_
FN:221,_RNCNvNtNtCsduQ6capmcSI_16sweet_grass_core11primal_info5testss_35test_self_knowledge_from_env_custom0B7_
FN:241,_RNCNvNtNtCsduQ6capmcSI_16sweet_grass_core11primal_info5testss_37test_self_knowledge_custom_capability0B7_
FN:209,_RNCNvNtNtCsduQ6capmcSI_16sweet_grass_core11primal_info5testss_37test_self_knowledge_from_env_defaults0B7_
FN:130,_RNCNCNvMNtCsduQ6capmcSI_16sweet_grass_core11primal_infoNtB6_13SelfKnowledge10parse_port00B8_
FN:128,_RNCNvMNtCsduQ6capmcSI_16sweet_grass_core11primal_infoNtB4_13SelfKnowledge10parse_port0B6_
FN:96,_RNCNvMNtCsduQ6capmcSI_16sweet_grass_core11primal_infoNtB4_13SelfKnowledge8from_env0B6_
FN:98,_RNCNvMNtCsduQ6capmcSI_16sweet_grass_core11primal_infoNtB4_13SelfKnowledge8from_envs_0B6_
FN:271,_RNvNtNtCsduQ6capmcSI_16sweet_grass_core11primal_info5testss_26test_self_knowledge_offers
FN:264,_RNvNtNtCsduQ6capmcSI_16sweet_grass_core11primal_info5testss_26test_self_knowledge_uptime
FN:253,_RNvNtNtCsduQ6capmcSI_16sweet_grass_core11primal_info5testss_32test_self_knowledge_invalid_port
FN:220,_RNvNtNtCsduQ6capmcSI_16sweet_grass_core11primal_info5testss_35test_self_knowledge_from_env_custom
FN:240,_RNvNtNtCsduQ6capmcSI_16sweet_grass_core11primal_info5testss_37test_self_knowledge_custom_capability
FN:208,_RNvNtNtCsduQ6capmcSI_16sweet_grass_core11primal_info5testss_37test_self_knowledge_from_env_defaults
FN:127,_RNvMNtCsa0ZJ84hKss5_16sweet_grass_core11primal_infoNtB2_13SelfKnowledge10parse_port
FN:107,_RNvMNtCsa0ZJ84hKss5_16sweet_grass_core11primal_infoNtB2_13SelfKnowledge18parse_capabilities
FN:144,_RNvMNtCsa0ZJ84hKss5_16sweet_grass_core11primal_infoNtB2_13SelfKnowledge6offers
FN:136,_RNvMNtCsa0ZJ84hKss5_16sweet_grass_core11primal_infoNtB2_13SelfKnowledge6uptime
FN:94,_RNvMNtCsa0ZJ84hKss5_16sweet_grass_core11primal_infoNtB2_13SelfKnowledge8from_env
FN:150,_RNvXs_NtCsa0ZJ84hKss5_16sweet_grass_core11primal_infoNtB4_13SelfKnowledgeNtNtCs9sjCchOt1K7_4core7default7Default7default
FNDA:0,_RNCNCNvMNtCsa0ZJ84hKss5_16sweet_grass_core11primal_infoNtB6_13SelfKnowledge10parse_port00B8_
FNDA:0,_RNCNvMNtCsa0ZJ84hKss5_16sweet_grass_core11primal_infoNtB4_13SelfKnowledge10parse_port0B6_
FNDA:1,_RNCNvMNtCsa0ZJ84hKss5_16sweet_grass_core11primal_infoNtB4_13SelfKnowledge8from_env0B6_
FNDA:1,_RNCNvMNtCsa0ZJ84hKss5_16sweet_grass_core11primal_infoNtB4_13SelfKnowledge8from_envs_0B6_
FNDA:7,_RNvMNtCsduQ6capmcSI_16sweet_grass_core11primal_infoNtB2_13SelfKnowledge10parse_port
FNDA:4,_RNvMNtCsduQ6capmcSI_16sweet_grass_core11primal_infoNtB2_13SelfKnowledge18parse_capabilities
FNDA:5,_RNvMNtCsduQ6capmcSI_16sweet_grass_core11primal_infoNtB2_13SelfKnowledge6offers
FNDA:1,_RNvMNtCsduQ6capmcSI_16sweet_grass_core11primal_infoNtB2_13SelfKnowledge6uptime
FNDA:4,_RNvMNtCsduQ6capmcSI_16sweet_grass_core11primal_infoNtB2_13SelfKnowledge8from_env
FNDA:2,_RNvXs_NtCsduQ6capmcSI_16sweet_grass_core11primal_infoNtB4_13SelfKnowledgeNtNtCs9sjCchOt1K7_4core7default7Default7default
FNDA:1,_RINvNtNtCsduQ6capmcSI_16sweet_grass_core11primal_info5tests14with_clean_envNCNvB2_s_32test_self_knowledge_invalid_port0EB6_
FNDA:1,_RINvNtNtCsduQ6capmcSI_16sweet_grass_core11primal_info5tests14with_clean_envNCNvB2_s_35test_self_knowledge_from_env_custom0EB6_
FNDA:1,_RINvNtNtCsduQ6capmcSI_16sweet_grass_core11primal_info5tests14with_clean_envNCNvB2_s_37test_self_knowledge_custom_capability0EB6_
FNDA:1,_RINvNtNtCsduQ6capmcSI_16sweet_grass_core11primal_info5tests14with_clean_envNCNvB2_s_37test_self_knowledge_from_env_defaults0EB6_
FNDA:1,_RNCNvNtNtCsduQ6capmcSI_16sweet_grass_core11primal_info5testss_32test_self_knowledge_invalid_port0B7_
FNDA:1,_RNCNvNtNtCsduQ6capmcSI_16sweet_grass_core11primal_info5testss_35test_self_knowledge_from_env_custom0B7_
FNDA:1,_RNCNvNtNtCsduQ6capmcSI_16sweet_grass_core11primal_info5testss_37test_self_knowledge_custom_capability0B7_
FNDA:1,_RNCNvNtNtCsduQ6capmcSI_16sweet_grass_core11primal_info5testss_37test_self_knowledge_from_env_defaults0B7_
FNDA:1,_RNCNCNvMNtCsduQ6capmcSI_16sweet_grass_core11primal_infoNtB6_13SelfKnowledge10parse_port00B8_
FNDA:3,_RNCNvMNtCsduQ6capmcSI_16sweet_grass_core11primal_infoNtB4_13SelfKnowledge10parse_port0B6_
FNDA:3,_RNCNvMNtCsduQ6capmcSI_16sweet_grass_core11primal_infoNtB4_13SelfKnowledge8from_env0B6_
FNDA:3,_RNCNvMNtCsduQ6capmcSI_16sweet_grass_core11primal_infoNtB4_13SelfKnowledge8from_envs_0B6_
FNDA:1,_RNvNtNtCsduQ6capmcSI_16sweet_grass_core11primal_info5testss_26test_self_knowledge_offers
FNDA:1,_RNvNtNtCsduQ6capmcSI_16sweet_grass_core11primal_info5testss_26test_self_knowledge_uptime
FNDA:1,_RNvNtNtCsduQ6capmcSI_16sweet_grass_core11primal_info5testss_32test_self_knowledge_invalid_port
FNDA:1,_RNvNtNtCsduQ6capmcSI_16sweet_grass_core11primal_info5testss_35test_self_knowledge_from_env_custom
FNDA:1,_RNvNtNtCsduQ6capmcSI_16sweet_grass_core11primal_info5testss_37test_self_knowledge_custom_capability
FNDA:1,_RNvNtNtCsduQ6capmcSI_16sweet_grass_core11primal_info5testss_37test_self_knowledge_from_env_defaults
FNDA:4,_RNvMNtCsa0ZJ84hKss5_16sweet_grass_core11primal_infoNtB2_13SelfKnowledge10parse_port
FNDA:2,_RNvMNtCsa0ZJ84hKss5_16sweet_grass_core11primal_infoNtB2_13SelfKnowledge18parse_capabilities
FNDA:1,_RNvMNtCsa0ZJ84hKss5_16sweet_grass_core11primal_infoNtB2_13SelfKnowledge6offers
FNDA:0,_RNvMNtCsa0ZJ84hKss5_16sweet_grass_core11primal_infoNtB2_13SelfKnowledge6uptime
FNDA:2,_RNvMNtCsa0ZJ84hKss5_16sweet_grass_core11primal_infoNtB2_13SelfKnowledge8from_env
FNDA:1,_RNvXs_NtCsa0ZJ84hKss5_16sweet_grass_core11primal_infoNtB4_13SelfKnowledgeNtNtCs9sjCchOt1K7_4core7default7Default7default
FNF:21
FNH:21
DA:94,6
DA:95,6
DA:96,6
DA:97,6
DA:98,6
DA:99,6
DA:100,6
DA:101,5
DA:102,5
DA:104,6
DA:107,6
DA:108,6
DA:109,6
DA:110,6
DA:111,3
DA:112,3
DA:113,3
DA:114,3
DA:115,6
DA:116,6
DA:118,6
DA:119,6
DA:120,6
DA:123,3
DA:124,6
DA:127,11
DA:128,11
DA:129,3
DA:130,3
DA:131,11
DA:132,11
DA:136,1
DA:137,1
DA:138,1
DA:139,1
DA:140,1
DA:144,6
DA:145,6
DA:146,6
DA:150,3
DA:151,3
DA:152,3
DA:153,3
DA:154,3
DA:155,3
DA:156,3
DA:157,3
DA:158,3
DA:159,3
DA:168,4
DA:169,4
DA:170,4
DA:171,4
DA:172,4
DA:173,4
DA:174,4
DA:175,4
DA:176,4
DA:177,4
DA:178,4
DA:179,4
DA:180,4
DA:181,4
DA:182,4
DA:183,4
DA:184,4
DA:185,4
DA:186,4
DA:187,4
DA:190,4
DA:191,2
DA:192,2
DA:193,4
DA:194,2
DA:195,2
DA:196,4
DA:197,3
DA:198,3
DA:199,4
DA:200,2
DA:201,2
DA:202,4
DA:203,2
DA:204,2
DA:205,4
DA:208,1
DA:209,1
DA:210,1
DA:211,1
DA:212,1
DA:213,1
DA:214,1
DA:215,1
DA:216,1
DA:217,1
DA:220,1
DA:221,1
DA:222,1
DA:223,1
DA:224,1
DA:225,1
DA:226,1
DA:227,1
DA:228,1
DA:229,1
DA:230,1
DA:231,1
DA:232,1
DA:233,1
DA:234,1
DA:235,1
DA:236,1
DA:237,1
DA:240,1
DA:241,1
DA:242,1
DA:243,1
DA:244,1
DA:245,1
DA:246,1
DA:248,1
DA:249,1
DA:250,1
DA:253,1
DA:254,1
DA:255,1
DA:256,1
DA:257,1
DA:258,1
DA:259,1
DA:260,1
DA:261,1
DA:264,1
DA:265,1
DA:266,1
DA:267,1
DA:268,1
DA:271,1
DA:272,1
DA:273,1
DA:274,1
DA:275,1
DA:276,1
BRF:0
BRH:0
LF:156
LH:156
end_of_record
SF:/home/strandgate/Development/ecoPrimals/phase2/sweetGrass/crates/sweet-grass-core/src/privacy.rs
FN:105,_RNCNvXs0_NtCsa0ZJ84hKss5_16sweet_grass_core7privacyNtB7_14SystemTimeSecsINtNtCs9sjCchOt1K7_4core7convert4FromNtNtCseJswNlh1fGO_3std4time10SystemTimeE4from0B9_
FN:92,_RNvXs_NtCsa0ZJ84hKss5_16sweet_grass_core7privacyNtNtCs9sjCchOt1K7_4core4time8DurationINtNtBO_7convert4FromNtB4_12DurationSecsE4from
FN:238,_RNvMs1_NtCsa0ZJ84hKss5_16sweet_grass_core7privacyNtB5_15PrivacyMetadata10has_access
FN:254,_RNvMs1_NtCsa0ZJ84hKss5_16sweet_grass_core7privacyNtB5_15PrivacyMetadata24is_processing_restricted
FN:232,_RNvMs1_NtCsa0ZJ84hKss5_16sweet_grass_core7privacyNtB5_15PrivacyMetadata7builder
FN:313,_RNvMs2_NtCsa0ZJ84hKss5_16sweet_grass_core7privacyNtB5_22PrivacyMetadataBuilder10visibility
FN:342,_RNvMs2_NtCsa0ZJ84hKss5_16sweet_grass_core7privacyNtB5_22PrivacyMetadataBuilder12grant_access
FN:334,_RNvMs2_NtCsa0ZJ84hKss5_16sweet_grass_core7privacyNtB5_22PrivacyMetadataBuilder15consent_details
FN:356,_RNvMs2_NtCsa0ZJ84hKss5_16sweet_grass_core7privacyNtB5_22PrivacyMetadataBuilder16allow_derivation
FN:327,_RNvMs2_NtCsa0ZJ84hKss5_16sweet_grass_core7privacyNtB5_22PrivacyMetadataBuilder16consent_obtained
FN:349,_RNvMs2_NtCsa0ZJ84hKss5_16sweet_grass_core7privacyNtB5_22PrivacyMetadataBuilder19restrict_processing
FN:297,_RNvMs2_NtCsa0ZJ84hKss5_16sweet_grass_core7privacyNtB5_22PrivacyMetadataBuilder3new
FN:363,_RNvMs2_NtCsa0ZJ84hKss5_16sweet_grass_core7privacyNtB5_22PrivacyMetadataBuilder5build
FN:320,_RNvMs2_NtCsa0ZJ84hKss5_16sweet_grass_core7privacyNtB5_22PrivacyMetadataBuilder9retention
FN:86,_RNvXNtCsa0ZJ84hKss5_16sweet_grass_core7privacyNtB2_12DurationSecsINtNtCs9sjCchOt1K7_4core7convert4FromNtNtB16_4time8DurationE4from
FN:102,_RNvXs0_NtCsa0ZJ84hKss5_16sweet_grass_core7privacyNtB5_14SystemTimeSecsINtNtCs9sjCchOt1K7_4core7convert4FromNtNtCseJswNlh1fGO_3std4time10SystemTimeE4from
FN:369,_RNvXs3_NtCsa0ZJ84hKss5_16sweet_grass_core7privacyNtB5_22PrivacyMetadataBuilderNtNtCs9sjCchOt1K7_4core7default7Default7default
FN:105,_RNCNvXs0_NtCsduQ6capmcSI_16sweet_grass_core7privacyNtB7_14SystemTimeSecsINtNtCs9sjCchOt1K7_4core7convert4FromNtNtCseJswNlh1fGO_3std4time10SystemTimeE4from0B9_
FN:334,_RNvMs2_NtCsduQ6capmcSI_16sweet_grass_core7privacyNtB5_22PrivacyMetadataBuilder15consent_details
FN:102,_RNvXs0_NtCsduQ6capmcSI_16sweet_grass_core7privacyNtB5_14SystemTimeSecsINtNtCs9sjCchOt1K7_4core7convert4FromNtNtCseJswNlh1fGO_3std4time10SystemTimeE4from
FN:369,_RNvXs3_NtCsduQ6capmcSI_16sweet_grass_core7privacyNtB5_22PrivacyMetadataBuilderNtNtCs9sjCchOt1K7_4core7default7Default7default
FN:92,_RNvXs_NtCsduQ6capmcSI_16sweet_grass_core7privacyNtNtCs9sjCchOt1K7_4core4time8DurationINtNtBO_7convert4FromNtB4_12DurationSecsE4from
FN:238,_RNvMs1_NtCsduQ6capmcSI_16sweet_grass_core7privacyNtB5_15PrivacyMetadata10has_access
FN:254,_RNvMs1_NtCsduQ6capmcSI_16sweet_grass_core7privacyNtB5_15PrivacyMetadata24is_processing_restricted
FN:232,_RNvMs1_NtCsduQ6capmcSI_16sweet_grass_core7privacyNtB5_15PrivacyMetadata7builder
FN:313,_RNvMs2_NtCsduQ6capmcSI_16sweet_grass_core7privacyNtB5_22PrivacyMetadataBuilder10visibility
FN:342,_RNvMs2_NtCsduQ6capmcSI_16sweet_grass_core7privacyNtB5_22PrivacyMetadataBuilder12grant_access
FN:356,_RNvMs2_NtCsduQ6capmcSI_16sweet_grass_core7privacyNtB5_22PrivacyMetadataBuilder16allow_derivation
FN:327,_RNvMs2_NtCsduQ6capmcSI_16sweet_grass_core7privacyNtB5_22PrivacyMetadataBuilder16consent_obtained
FN:349,_RNvMs2_NtCsduQ6capmcSI_16sweet_grass_core7privacyNtB5_22PrivacyMetadataBuilder19restrict_processing
FN:297,_RNvMs2_NtCsduQ6capmcSI_16sweet_grass_core7privacyNtB5_22PrivacyMetadataBuilder3new
FN:363,_RNvMs2_NtCsduQ6capmcSI_16sweet_grass_core7privacyNtB5_22PrivacyMetadataBuilder5build
FN:320,_RNvMs2_NtCsduQ6capmcSI_16sweet_grass_core7privacyNtB5_22PrivacyMetadataBuilder9retention
FN:86,_RNvXNtCsduQ6capmcSI_16sweet_grass_core7privacyNtB2_12DurationSecsINtNtCs9sjCchOt1K7_4core7convert4FromNtNtB16_4time8DurationE4from
FN:422,_RNvNtNtCsduQ6capmcSI_16sweet_grass_core7privacy5testss_18test_public_access
FN:406,_RNvNtNtCsduQ6capmcSI_16sweet_grass_core7privacy5testss_19test_access_control
FN:467,_RNvNtNtCsduQ6capmcSI_16sweet_grass_core7privacy5testss_20test_erasure_request
FN:380,_RNvNtNtCsduQ6capmcSI_16sweet_grass_core7privacy5testss_26test_privacy_level_default
FN:434,_RNvNtNtCsduQ6capmcSI_16sweet_grass_core7privacy5testss_28test_processing_restrictions
FN:444,_RNvNtNtCsduQ6capmcSI_16sweet_grass_core7privacy5testss_28test_restrict_all_processing
FN:479,_RNvNtNtCsduQ6capmcSI_16sweet_grass_core7privacy5testss_29test_duration_secs_conversion
FN:386,_RNvNtNtCsduQ6capmcSI_16sweet_grass_core7privacy5testss_29test_privacy_metadata_builder
FN:454,_RNvNtNtCsduQ6capmcSI_16sweet_grass_core7privacy5testss_39test_data_subject_request_serialization
FNDA:0,_RNCNvXs0_NtCsa0ZJ84hKss5_16sweet_grass_core7privacyNtB7_14SystemTimeSecsINtNtCs9sjCchOt1K7_4core7convert4FromNtNtCseJswNlh1fGO_3std4time10SystemTimeE4from0B9_
FNDA:0,_RNvXs_NtCsa0ZJ84hKss5_16sweet_grass_core7privacyNtNtCs9sjCchOt1K7_4core4time8DurationINtNtBO_7convert4FromNtB4_12DurationSecsE4from
FNDA:0,_RNvMs1_NtCsa0ZJ84hKss5_16sweet_grass_core7privacyNtB5_15PrivacyMetadata10has_access
FNDA:0,_RNvMs1_NtCsa0ZJ84hKss5_16sweet_grass_core7privacyNtB5_15PrivacyMetadata24is_processing_restricted
FNDA:0,_RNvMs1_NtCsa0ZJ84hKss5_16sweet_grass_core7privacyNtB5_15PrivacyMetadata7builder
FNDA:0,_RNvMs2_NtCsa0ZJ84hKss5_16sweet_grass_core7privacyNtB5_22PrivacyMetadataBuilder10visibility
FNDA:0,_RNvMs2_NtCsa0ZJ84hKss5_16sweet_grass_core7privacyNtB5_22PrivacyMetadataBuilder12grant_access
FNDA:0,_RNvMs2_NtCsa0ZJ84hKss5_16sweet_grass_core7privacyNtB5_22PrivacyMetadataBuilder15consent_details
FNDA:0,_RNvMs2_NtCsa0ZJ84hKss5_16sweet_grass_core7privacyNtB5_22PrivacyMetadataBuilder16allow_derivation
FNDA:0,_RNvMs2_NtCsa0ZJ84hKss5_16sweet_grass_core7privacyNtB5_22PrivacyMetadataBuilder16consent_obtained
FNDA:0,_RNvMs2_NtCsa0ZJ84hKss5_16sweet_grass_core7privacyNtB5_22PrivacyMetadataBuilder19restrict_processing
FNDA:0,_RNvMs2_NtCsa0ZJ84hKss5_16sweet_grass_core7privacyNtB5_22PrivacyMetadataBuilder3new
FNDA:0,_RNvMs2_NtCsa0ZJ84hKss5_16sweet_grass_core7privacyNtB5_22PrivacyMetadataBuilder5build
FNDA:0,_RNvMs2_NtCsa0ZJ84hKss5_16sweet_grass_core7privacyNtB5_22PrivacyMetadataBuilder9retention
FNDA:0,_RNvXNtCsa0ZJ84hKss5_16sweet_grass_core7privacyNtB2_12DurationSecsINtNtCs9sjCchOt1K7_4core7convert4FromNtNtB16_4time8DurationE4from
FNDA:0,_RNvXs0_NtCsa0ZJ84hKss5_16sweet_grass_core7privacyNtB5_14SystemTimeSecsINtNtCs9sjCchOt1K7_4core7convert4FromNtNtCseJswNlh1fGO_3std4time10SystemTimeE4from
FNDA:0,_RNvXs3_NtCsa0ZJ84hKss5_16sweet_grass_core7privacyNtB5_22PrivacyMetadataBuilderNtNtCs9sjCchOt1K7_4core7default7Default7default
FNDA:0,_RNCNvXs0_NtCsduQ6capmcSI_16sweet_grass_core7privacyNtB7_14SystemTimeSecsINtNtCs9sjCchOt1K7_4core7convert4FromNtNtCseJswNlh1fGO_3std4time10SystemTimeE4from0B9_
FNDA:0,_RNvMs2_NtCsduQ6capmcSI_16sweet_grass_core7privacyNtB5_22PrivacyMetadataBuilder15consent_details
FNDA:0,_RNvXs0_NtCsduQ6capmcSI_16sweet_grass_core7privacyNtB5_14SystemTimeSecsINtNtCs9sjCchOt1K7_4core7convert4FromNtNtCseJswNlh1fGO_3std4time10SystemTimeE4from
FNDA:0,_RNvXs3_NtCsduQ6capmcSI_16sweet_grass_core7privacyNtB5_22PrivacyMetadataBuilderNtNtCs9sjCchOt1K7_4core7default7Default7default
FNDA:1,_RNvXs_NtCsduQ6capmcSI_16sweet_grass_core7privacyNtNtCs9sjCchOt1K7_4core4time8DurationINtNtBO_7convert4FromNtB4_12DurationSecsE4from
FNDA:4,_RNvMs1_NtCsduQ6capmcSI_16sweet_grass_core7privacyNtB5_15PrivacyMetadata10has_access
FNDA:5,_RNvMs1_NtCsduQ6capmcSI_16sweet_grass_core7privacyNtB5_15PrivacyMetadata24is_processing_restricted
FNDA:5,_RNvMs1_NtCsduQ6capmcSI_16sweet_grass_core7privacyNtB5_15PrivacyMetadata7builder
FNDA:3,_RNvMs2_NtCsduQ6capmcSI_16sweet_grass_core7privacyNtB5_22PrivacyMetadataBuilder10visibility
FNDA:2,_RNvMs2_NtCsduQ6capmcSI_16sweet_grass_core7privacyNtB5_22PrivacyMetadataBuilder12grant_access
FNDA:1,_RNvMs2_NtCsduQ6capmcSI_16sweet_grass_core7privacyNtB5_22PrivacyMetadataBuilder16allow_derivation
FNDA:1,_RNvMs2_NtCsduQ6capmcSI_16sweet_grass_core7privacyNtB5_22PrivacyMetadataBuilder16consent_obtained
FNDA:3,_RNvMs2_NtCsduQ6capmcSI_16sweet_grass_core7privacyNtB5_22PrivacyMetadataBuilder19restrict_processing
FNDA:5,_RNvMs2_NtCsduQ6capmcSI_16sweet_grass_core7privacyNtB5_22PrivacyMetadataBuilder3new
FNDA:5,_RNvMs2_NtCsduQ6capmcSI_16sweet_grass_core7privacyNtB5_22PrivacyMetadataBuilder5build
FNDA:1,_RNvMs2_NtCsduQ6capmcSI_16sweet_grass_core7privacyNtB5_22PrivacyMetadataBuilder9retention
FNDA:1,_RNvXNtCsduQ6capmcSI_16sweet_grass_core7privacyNtB2_12DurationSecsINtNtCs9sjCchOt1K7_4core7convert4FromNtNtB16_4time8DurationE4from
FNDA:1,_RNvNtNtCsduQ6capmcSI_16sweet_grass_core7privacy5testss_18test_public_access
FNDA:1,_RNvNtNtCsduQ6capmcSI_16sweet_grass_core7privacy5testss_19test_access_control
FNDA:1,_RNvNtNtCsduQ6capmcSI_16sweet_grass_core7privacy5testss_20test_erasure_request
FNDA:1,_RNvNtNtCsduQ6capmcSI_16sweet_grass_core7privacy5testss_26test_privacy_level_default
FNDA:1,_RNvNtNtCsduQ6capmcSI_16sweet_grass_core7privacy5testss_28test_processing_restrictions
FNDA:1,_RNvNtNtCsduQ6capmcSI_16sweet_grass_core7privacy5testss_28test_restrict_all_processing
FNDA:1,_RNvNtNtCsduQ6capmcSI_16sweet_grass_core7privacy5testss_29test_duration_secs_conversion
FNDA:1,_RNvNtNtCsduQ6capmcSI_16sweet_grass_core7privacy5testss_29test_privacy_metadata_builder
FNDA:1,_RNvNtNtCsduQ6capmcSI_16sweet_grass_core7privacy5testss_39test_data_subject_request_serialization
FNF:26
FNH:22
DA:86,1
DA:87,1
DA:88,1
DA:92,1
DA:93,1
DA:94,1
DA:102,0
DA:103,0
DA:104,0
DA:105,0
DA:106,0
DA:107,0
DA:108,0
DA:232,5
DA:233,5
DA:234,5
DA:238,4
DA:239,4
DA:244,1
DA:247,3
DA:250,4
DA:254,5
DA:255,5
DA:256,3
DA:257,5
DA:297,5
DA:298,5
DA:299,5
DA:300,5
DA:301,5
DA:302,5
DA:303,5
DA:304,5
DA:305,5
DA:306,5
DA:307,5
DA:308,5
DA:309,5
DA:313,3
DA:314,3
DA:315,3
DA:316,3
DA:320,1
DA:321,1
DA:322,1
DA:323,1
DA:327,1
DA:328,1
DA:329,1
DA:330,1
DA:334,0
DA:335,0
DA:336,0
DA:337,0
DA:338,0
DA:342,2
DA:343,2
DA:344,2
DA:345,2
DA:349,3
DA:350,3
DA:351,3
DA:352,3
DA:356,1
DA:357,1
DA:358,1
DA:359,1
DA:363,5
DA:364,5
DA:365,5
DA:369,0
DA:370,0
DA:371,0
DA:380,1
DA:381,1
DA:382,1
DA:383,1
DA:386,1
DA:387,1
DA:388,1
DA:389,1
DA:390,1
DA:391,1
DA:392,1
DA:393,1
DA:394,1
DA:395,1
DA:396,1
DA:397,1
DA:398,1
DA:399,1
DA:400,1
DA:401,1
DA:402,1
DA:403,1
DA:406,1
DA:407,1
DA:408,1
DA:409,1
DA:410,1
DA:411,1
DA:412,1
DA:413,1
DA:414,1
DA:415,1
DA:416,1
DA:417,1
DA:418,1
DA:419,1
DA:422,1
DA:423,1
DA:424,1
DA:425,1
DA:426,1
DA:427,1
DA:428,1
DA:429,1
DA:430,1
DA:431,1
DA:434,1
DA:435,1
DA:436,1
DA:437,1
DA:438,1
DA:439,1
DA:440,1
DA:441,1
DA:444,1
DA:445,1
DA:446,1
DA:447,1
DA:448,1
DA:449,1
DA:450,1
DA:451,1
DA:454,1
DA:455,1
DA:456,1
DA:457,1
DA:458,1
DA:459,1
DA:460,1
DA:462,1
DA:463,1
DA:464,1
DA:467,1
DA:468,1
DA:469,1
DA:470,1
DA:471,1
DA:472,1
DA:473,1
DA:474,1
DA:475,1
DA:476,1
DA:479,1
DA:480,1
DA:481,1
DA:482,1
DA:484,1
DA:485,1
DA:486,1
BRF:0
BRH:0
LF:163
LH:147
end_of_record
SF:/home/strandgate/Development/ecoPrimals/phase2/sweetGrass/crates/sweet-grass-factory/src/attribution.rs
FN:118,_RNCNvMs_NtCsbdDWz5NO8Tp_19sweet_grass_factory11attributionNtB6_16AttributionChain19direct_contributors0B8_
FN:124,_RNCNvMs_NtCsbdDWz5NO8Tp_19sweet_grass_factory11attributionNtB6_16AttributionChain22inherited_contributors0B8_
FN:130,_RNCNvMs_NtCsbdDWz5NO8Tp_19sweet_grass_factory11attributionNtB6_16AttributionChain8is_valid0B8_
FN:95,_RNCNvMs_NtCsbdDWz5NO8Tp_19sweet_grass_factory11attributionNtB6_16AttributionChain9normalize0B8_
FN:379,_RNCNvNtCsbdDWz5NO8Tp_19sweet_grass_factory11attribution17calculate_rewards0B5_
FN:259,_RINvMs2_NtCsbdDWz5NO8Tp_19sweet_grass_factory11attributionNtB6_21AttributionCalculator19calculate_recursivepEB8_
FN:241,_RINvMs2_NtCsbdDWz5NO8Tp_19sweet_grass_factory11attributionNtB6_21AttributionCalculator26calculate_with_derivationspEB8_
FN:254,_RNCINvMs2_NtCsbdDWz5NO8Tp_19sweet_grass_factory11attributionNtB8_21AttributionCalculator26calculate_with_derivationspE0Ba_
FN:51,_RNvMNtCsbdDWz5NO8Tp_19sweet_grass_factory11attributionNtB2_16ContributorShare10with_depth
FN:39,_RNvMNtCsbdDWz5NO8Tp_19sweet_grass_factory11attributionNtB2_16ContributorShare3new
FN:172,_RNvMs1_NtCsbdDWz5NO8Tp_19sweet_grass_factory11attributionNtB5_17AttributionConfig15weight_for_role
FN:193,_RNvMs2_NtCsbdDWz5NO8Tp_19sweet_grass_factory11attributionNtB5_21AttributionCalculator11with_config
FN:199,_RNvMs2_NtCsbdDWz5NO8Tp_19sweet_grass_factory11attributionNtB5_21AttributionCalculator16calculate_single
FN:341,_RNvMs2_NtCsbdDWz5NO8Tp_19sweet_grass_factory11attributionNtB5_21AttributionCalculator21infer_role_from_braid
FN:185,_RNvMs2_NtCsbdDWz5NO8Tp_19sweet_grass_factory11attributionNtB5_21AttributionCalculator3new
FN:86,_RNvMs_NtCsbdDWz5NO8Tp_19sweet_grass_factory11attributionNtB4_16AttributionChain15add_contributor
FN:105,_RNvMs_NtCsbdDWz5NO8Tp_19sweet_grass_factory11attributionNtB4_16AttributionChain18aggregate_by_agent
FN:117,_RNvMs_NtCsbdDWz5NO8Tp_19sweet_grass_factory11attributionNtB4_16AttributionChain19direct_contributors
FN:123,_RNvMs_NtCsbdDWz5NO8Tp_19sweet_grass_factory11attributionNtB4_16AttributionChain22inherited_contributors
FN:76,_RNvMs_NtCsbdDWz5NO8Tp_19sweet_grass_factory11attributionNtB4_16AttributionChain3new
FN:129,_RNvMs_NtCsbdDWz5NO8Tp_19sweet_grass_factory11attributionNtB4_16AttributionChain8is_valid
FN:94,_RNvMs_NtCsbdDWz5NO8Tp_19sweet_grass_factory11attributionNtB4_16AttributionChain9normalize
FN:369,_RNvNtCsbdDWz5NO8Tp_19sweet_grass_factory11attribution17calculate_rewards
FN:152,_RNvXs0_NtCsbdDWz5NO8Tp_19sweet_grass_factory11attributionNtB5_17AttributionConfigNtNtCs9sjCchOt1K7_4core7default7Default7default
FN:359,_RNvXs3_NtCsbdDWz5NO8Tp_19sweet_grass_factory11attributionNtB5_21AttributionCalculatorNtNtCs9sjCchOt1K7_4core7default7Default7default
FN:193,_RNvMs2_NtCshDWcvDuPayx_19sweet_grass_factory11attributionNtB5_21AttributionCalculator11with_config
FN:359,_RNvXs3_NtCshDWcvDuPayx_19sweet_grass_factory11attributionNtB5_21AttributionCalculatorNtNtCs9sjCchOt1K7_4core7default7Default7default
FN:628,_RNCNCNvNtNtCshDWcvDuPayx_19sweet_grass_factory11attribution9proptestss_32prop_aggregation_preserves_totals_00B9_
FN:594,_RNCNCNvNtNtCshDWcvDuPayx_19sweet_grass_factory11attribution9proptestss_33prop_normalized_chain_sums_to_ones_00B9_
FN:666,_RNCNCNvNtNtCshDWcvDuPayx_19sweet_grass_factory11attribution9proptestss_34prop_rewards_distribute_full_values_00B9_
FN:558,_RNCNvNtNtCshDWcvDuPayx_19sweet_grass_factory11attribution9proptests7arb_did0B7_
FN:563,_RNCNvNtNtCshDWcvDuPayx_19sweet_grass_factory11attribution9proptests9arb_share0B7_
FN:392,_RNvNtNtCshDWcvDuPayx_19sweet_grass_factory11attribution5tests15make_test_braid
FN:448,_RNvNtNtCshDWcvDuPayx_19sweet_grass_factory11attribution5testss_21test_derivation_chain
FN:501,_RNvNtNtCshDWcvDuPayx_19sweet_grass_factory11attribution5testss_23test_aggregate_by_agent
FN:520,_RNvNtNtCshDWcvDuPayx_19sweet_grass_factory11attribution5testss_23test_attribution_config
FN:489,_RNvNtNtCshDWcvDuPayx_19sweet_grass_factory11attribution5testss_23test_reward_calculation
FN:404,_RNvNtNtCshDWcvDuPayx_19sweet_grass_factory11attribution5testss_23test_single_attribution
FN:531,_RNvNtNtCshDWcvDuPayx_19sweet_grass_factory11attribution5testss_24test_direct_vs_inherited
FN:417,_RNvNtNtCshDWcvDuPayx_19sweet_grass_factory11attribution5testss_30test_attribution_with_activity
FN:259,_RINvMs2_NtCshDWcvDuPayx_19sweet_grass_factory11attributionNtB6_21AttributionCalculator19calculate_recursiveNCNvNtB6_5testss_21test_derivation_chain0EB8_
FN:241,_RINvMs2_NtCshDWcvDuPayx_19sweet_grass_factory11attributionNtB6_21AttributionCalculator26calculate_with_derivationsNCNvNtB6_5testss_21test_derivation_chain0EB8_
FN:254,_RNCINvMs2_NtCshDWcvDuPayx_19sweet_grass_factory11attributionNtB8_21AttributionCalculator26calculate_with_derivationsNCNvNtB8_5testss_21test_derivation_chain0E0Ba_
FN:118,_RNCNvMs_NtCshDWcvDuPayx_19sweet_grass_factory11attributionNtB6_16AttributionChain19direct_contributors0B8_
FN:124,_RNCNvMs_NtCshDWcvDuPayx_19sweet_grass_factory11attributionNtB6_16AttributionChain22inherited_contributors0B8_
FN:130,_RNCNvMs_NtCshDWcvDuPayx_19sweet_grass_factory11attributionNtB6_16AttributionChain8is_valid0B8_
FN:95,_RNCNvMs_NtCshDWcvDuPayx_19sweet_grass_factory11attributionNtB6_16AttributionChain9normalize0B8_
FN:379,_RNCNvNtCshDWcvDuPayx_19sweet_grass_factory11attribution17calculate_rewards0B5_
FN:465,_RNCNvNtNtCshDWcvDuPayx_19sweet_grass_factory11attribution5testss_21test_derivation_chain0B7_
FN:482,_RNCNvNtNtCshDWcvDuPayx_19sweet_grass_factory11attribution5testss_21test_derivation_chains_0B7_
FN:557,_RNvNtNtCshDWcvDuPayx_19sweet_grass_factory11attribution9proptests7arb_did
FN:567,_RNvNtNtCshDWcvDuPayx_19sweet_grass_factory11attribution9proptests8arb_role
FN:562,_RNvNtNtCshDWcvDuPayx_19sweet_grass_factory11attribution9proptests9arb_share
FN:51,_RNvMNtCshDWcvDuPayx_19sweet_grass_factory11attributionNtB2_16ContributorShare10with_depth
FN:39,_RNvMNtCshDWcvDuPayx_19sweet_grass_factory11attributionNtB2_16ContributorShare3new
FN:172,_RNvMs1_NtCshDWcvDuPayx_19sweet_grass_factory11attributionNtB5_17AttributionConfig15weight_for_role
FN:199,_RNvMs2_NtCshDWcvDuPayx_19sweet_grass_factory11attributionNtB5_21AttributionCalculator16calculate_single
FN:341,_RNvMs2_NtCshDWcvDuPayx_19sweet_grass_factory11attributionNtB5_21AttributionCalculator21infer_role_from_braid
FN:185,_RNvMs2_NtCshDWcvDuPayx_19sweet_grass_factory11attributionNtB5_21AttributionCalculator3new
FN:86,_RNvMs_NtCshDWcvDuPayx_19sweet_grass_factory11attributionNtB4_16AttributionChain15add_contributor
FN:105,_RNvMs_NtCshDWcvDuPayx_19sweet_grass_factory11attributionNtB4_16AttributionChain18aggregate_by_agent
FN:117,_RNvMs_NtCshDWcvDuPayx_19sweet_grass_factory11attributionNtB4_16AttributionChain19direct_contributors
FN:123,_RNvMs_NtCshDWcvDuPayx_19sweet_grass_factory11attributionNtB4_16AttributionChain22inherited_contributors
FN:76,_RNvMs_NtCshDWcvDuPayx_19sweet_grass_factory11attributionNtB4_16AttributionChain3new
FN:129,_RNvMs_NtCshDWcvDuPayx_19sweet_grass_factory11attributionNtB4_16AttributionChain8is_valid
FN:94,_RNvMs_NtCshDWcvDuPayx_19sweet_grass_factory11attributionNtB4_16AttributionChain9normalize
FN:369,_RNvNtCshDWcvDuPayx_19sweet_grass_factory11attribution17calculate_rewards
FN:152,_RNvXs0_NtCshDWcvDuPayx_19sweet_grass_factory11attributionNtB5_17AttributionConfigNtNtCs9sjCchOt1K7_4core7default7Default7default
FNDA:0,_RNCNvMs_NtCsbdDWz5NO8Tp_19sweet_grass_factory11attributionNtB6_16AttributionChain19direct_contributors0B8_
FNDA:0,_RNCNvMs_NtCsbdDWz5NO8Tp_19sweet_grass_factory11attributionNtB6_16AttributionChain22inherited_contributors0B8_
FNDA:1,_RNCNvMs_NtCsbdDWz5NO8Tp_19sweet_grass_factory11attributionNtB6_16AttributionChain8is_valid0B8_
FNDA:11,_RNCNvMs_NtCsbdDWz5NO8Tp_19sweet_grass_factory11attributionNtB6_16AttributionChain9normalize0B8_
FNDA:0,_RNCNvNtCsbdDWz5NO8Tp_19sweet_grass_factory11attribution17calculate_rewards0B5_
FNDA:0,_RINvMs2_NtCsbdDWz5NO8Tp_19sweet_grass_factory11attributionNtB6_21AttributionCalculator19calculate_recursivepEB8_
FNDA:0,_RINvMs2_NtCsbdDWz5NO8Tp_19sweet_grass_factory11attributionNtB6_21AttributionCalculator26calculate_with_derivationspEB8_
FNDA:0,_RNCINvMs2_NtCsbdDWz5NO8Tp_19sweet_grass_factory11attributionNtB8_21AttributionCalculator26calculate_with_derivationspE0Ba_
FNDA:0,_RNvMNtCsbdDWz5NO8Tp_19sweet_grass_factory11attributionNtB2_16ContributorShare10with_depth
FNDA:11,_RNvMNtCsbdDWz5NO8Tp_19sweet_grass_factory11attributionNtB2_16ContributorShare3new
FNDA:11,_RNvMs1_NtCsbdDWz5NO8Tp_19sweet_grass_factory11attributionNtB5_17AttributionConfig15weight_for_role
FNDA:1,_RNvMs2_NtCsbdDWz5NO8Tp_19sweet_grass_factory11attributionNtB5_21AttributionCalculator11with_config
FNDA:11,_RNvMs2_NtCsbdDWz5NO8Tp_19sweet_grass_factory11attributionNtB5_21AttributionCalculator16calculate_single
FNDA:11,_RNvMs2_NtCsbdDWz5NO8Tp_19sweet_grass_factory11attributionNtB5_21AttributionCalculator21infer_role_from_braid
FNDA:27,_RNvMs2_NtCsbdDWz5NO8Tp_19sweet_grass_factory11attributionNtB5_21AttributionCalculator3new
FNDA:11,_RNvMs_NtCsbdDWz5NO8Tp_19sweet_grass_factory11attributionNtB4_16AttributionChain15add_contributor
FNDA:0,_RNvMs_NtCsbdDWz5NO8Tp_19sweet_grass_factory11attributionNtB4_16AttributionChain18aggregate_by_agent
FNDA:0,_RNvMs_NtCsbdDWz5NO8Tp_19sweet_grass_factory11attributionNtB4_16AttributionChain19direct_contributors
FNDA:0,_RNvMs_NtCsbdDWz5NO8Tp_19sweet_grass_factory11attributionNtB4_16AttributionChain22inherited_contributors
FNDA:11,_RNvMs_NtCsbdDWz5NO8Tp_19sweet_grass_factory11attributionNtB4_16AttributionChain3new
FNDA:1,_RNvMs_NtCsbdDWz5NO8Tp_19sweet_grass_factory11attributionNtB4_16AttributionChain8is_valid
FNDA:11,_RNvMs_NtCsbdDWz5NO8Tp_19sweet_grass_factory11attributionNtB4_16AttributionChain9normalize
FNDA:0,_RNvNtCsbdDWz5NO8Tp_19sweet_grass_factory11attribution17calculate_rewards
FNDA:29,_RNvXs0_NtCsbdDWz5NO8Tp_19sweet_grass_factory11attributionNtB5_17AttributionConfigNtNtCs9sjCchOt1K7_4core7default7Default7default
FNDA:0,_RNvXs3_NtCsbdDWz5NO8Tp_19sweet_grass_factory11attributionNtB5_21AttributionCalculatorNtNtCs9sjCchOt1K7_4core7default7Default7default
FNDA:0,_RNvMs2_NtCshDWcvDuPayx_19sweet_grass_factory11attributionNtB5_21AttributionCalculator11with_config
FNDA:0,_RNvXs3_NtCshDWcvDuPayx_19sweet_grass_factory11attributionNtB5_21AttributionCalculatorNtNtCs9sjCchOt1K7_4core7default7Default7default
FNDA:1236,_RNCNCNvNtNtCshDWcvDuPayx_19sweet_grass_factory11attribution9proptestss_32prop_aggregation_preserves_totals_00B9_
FNDA:1314,_RNCNCNvNtNtCshDWcvDuPayx_19sweet_grass_factory11attribution9proptestss_33prop_normalized_chain_sums_to_ones_00B9_
FNDA:615,_RNCNCNvNtNtCshDWcvDuPayx_19sweet_grass_factory11attribution9proptestss_34prop_rewards_distribute_full_values_00B9_
FNDA:3210,_RNCNvNtNtCshDWcvDuPayx_19sweet_grass_factory11attribution9proptests7arb_did0B7_
FNDA:3826,_RNCNvNtNtCshDWcvDuPayx_19sweet_grass_factory11attribution9proptests9arb_share0B7_
FNDA:3,_RNvNtNtCshDWcvDuPayx_19sweet_grass_factory11attribution5tests15make_test_braid
FNDA:1,_RNvNtNtCshDWcvDuPayx_19sweet_grass_factory11attribution5testss_21test_derivation_chain
FNDA:1,_RNvNtNtCshDWcvDuPayx_19sweet_grass_factory11attribution5testss_23test_aggregate_by_agent
FNDA:1,_RNvNtNtCshDWcvDuPayx_19sweet_grass_factory11attribution5testss_23test_attribution_config
FNDA:1,_RNvNtNtCshDWcvDuPayx_19sweet_grass_factory11attribution5testss_23test_reward_calculation
FNDA:1,_RNvNtNtCshDWcvDuPayx_19sweet_grass_factory11attribution5testss_23test_single_attribution
FNDA:1,_RNvNtNtCshDWcvDuPayx_19sweet_grass_factory11attribution5testss_24test_direct_vs_inherited
FNDA:1,_RNvNtNtCshDWcvDuPayx_19sweet_grass_factory11attribution5testss_30test_attribution_with_activity
FNDA:2,_RINvMs2_NtCshDWcvDuPayx_19sweet_grass_factory11attributionNtB6_21AttributionCalculator19calculate_recursiveNCNvNtB6_5testss_21test_derivation_chain0EB8_
FNDA:1,_RINvMs2_NtCshDWcvDuPayx_19sweet_grass_factory11attributionNtB6_21AttributionCalculator26calculate_with_derivationsNCNvNtB6_5testss_21test_derivation_chain0EB8_
FNDA:2,_RNCINvMs2_NtCshDWcvDuPayx_19sweet_grass_factory11attributionNtB8_21AttributionCalculator26calculate_with_derivationsNCNvNtB8_5testss_21test_derivation_chain0E0Ba_
FNDA:2,_RNCNvMs_NtCshDWcvDuPayx_19sweet_grass_factory11attributionNtB6_16AttributionChain19direct_contributors0B8_
FNDA:2,_RNCNvMs_NtCshDWcvDuPayx_19sweet_grass_factory11attributionNtB6_16AttributionChain22inherited_contributors0B8_
FNDA:621,_RNCNvMs_NtCshDWcvDuPayx_19sweet_grass_factory11attributionNtB6_16AttributionChain8is_valid0B8_
FNDA:2595,_RNCNvMs_NtCshDWcvDuPayx_19sweet_grass_factory11attributionNtB6_16AttributionChain9normalize0B8_
FNDA:616,_RNCNvNtCshDWcvDuPayx_19sweet_grass_factory11attribution17calculate_rewards0B5_
FNDA:1,_RNCNvNtNtCshDWcvDuPayx_19sweet_grass_factory11attribution5testss_21test_derivation_chain0B7_
FNDA:2,_RNCNvNtNtCshDWcvDuPayx_19sweet_grass_factory11attribution5testss_21test_derivation_chains_0B7_
FNDA:3,_RNvNtNtCshDWcvDuPayx_19sweet_grass_factory11attribution9proptests7arb_did
FNDA:2,_RNvNtNtCshDWcvDuPayx_19sweet_grass_factory11attribution9proptests8arb_role
FNDA:4,_RNvNtNtCshDWcvDuPayx_19sweet_grass_factory11attribution9proptests9arb_share
FNDA:2,_RNvMNtCshDWcvDuPayx_19sweet_grass_factory11attributionNtB2_16ContributorShare10with_depth
FNDA:3835,_RNvMNtCshDWcvDuPayx_19sweet_grass_factory11attributionNtB2_16ContributorShare3new
FNDA:265,_RNvMs1_NtCshDWcvDuPayx_19sweet_grass_factory11attributionNtB5_17AttributionConfig15weight_for_role
FNDA:3,_RNvMs2_NtCshDWcvDuPayx_19sweet_grass_factory11attributionNtB5_21AttributionCalculator16calculate_single
FNDA:5,_RNvMs2_NtCshDWcvDuPayx_19sweet_grass_factory11attributionNtB5_21AttributionCalculator21infer_role_from_braid
FNDA:4,_RNvMs2_NtCshDWcvDuPayx_19sweet_grass_factory11attributionNtB5_21AttributionCalculator3new
FNDA:3835,_RNvMs_NtCshDWcvDuPayx_19sweet_grass_factory11attributionNtB4_16AttributionChain15add_contributor
FNDA:258,_RNvMs_NtCshDWcvDuPayx_19sweet_grass_factory11attributionNtB4_16AttributionChain18aggregate_by_agent
FNDA:1,_RNvMs_NtCshDWcvDuPayx_19sweet_grass_factory11attributionNtB4_16AttributionChain19direct_contributors
FNDA:1,_RNvMs_NtCshDWcvDuPayx_19sweet_grass_factory11attributionNtB4_16AttributionChain22inherited_contributors
FNDA:1034,_RNvMs_NtCshDWcvDuPayx_19sweet_grass_factory11attributionNtB4_16AttributionChain3new
FNDA:260,_RNvMs_NtCshDWcvDuPayx_19sweet_grass_factory11attributionNtB4_16AttributionChain8is_valid
FNDA:774,_RNvMs_NtCshDWcvDuPayx_19sweet_grass_factory11attributionNtB4_16AttributionChain9normalize
FNDA:257,_RNvNtCshDWcvDuPayx_19sweet_grass_factory11attribution17calculate_rewards
FNDA:262,_RNvXs0_NtCshDWcvDuPayx_19sweet_grass_factory11attributionNtB5_17AttributionConfigNtNtCs9sjCchOt1K7_4core7default7Default7default
FNF:43
FNH:42
DA:39,3846
DA:40,3846
DA:41,3846
DA:42,3846
DA:43,3846
DA:44,3846
DA:45,3846
DA:46,3846
DA:47,3846
DA:51,2
DA:52,2
DA:53,2
DA:54,2
DA:76,1045
DA:77,1045
DA:78,1045
DA:79,1045
DA:80,1045
DA:81,1045
DA:82,1045
DA:83,1045
DA:86,3846
DA:87,3846
DA:88,2
DA:89,3844
DA:90,3846
DA:91,3846
DA:94,785
DA:95,2606
DA:96,785
DA:97,3391
DA:98,2606
DA:99,2606
DA:100,0
DA:101,785
DA:105,258
DA:106,258
DA:107,1496
DA:108,1238
DA:109,1238
DA:110,1238
DA:111,1238
DA:112,258
DA:113,258
DA:117,1
DA:118,2
DA:119,1
DA:123,1
DA:124,2
DA:125,1
DA:129,261
DA:130,622
DA:131,261
DA:132,261
DA:152,291
DA:153,291
DA:154,291
DA:155,291
DA:156,291
DA:157,291
DA:158,291
DA:159,291
DA:160,291
DA:161,291
DA:162,291
DA:163,291
DA:164,291
DA:165,291
DA:166,291
DA:172,276
DA:173,276
DA:174,276
DA:185,31
DA:186,31
DA:187,31
DA:188,31
DA:189,31
DA:193,1
DA:194,1
DA:195,1
DA:199,14
DA:200,14
DA:201,14
DA:202,14
DA:203,14
DA:204,14
DA:205,14
DA:206,14
DA:207,14
DA:208,14
DA:209,14
DA:210,14
DA:211,14
DA:212,14
DA:215,14
DA:216,3
DA:217,2
DA:218,1
DA:219,1
DA:220,1
DA:221,1
DA:222,1
DA:223,1
DA:224,1
DA:225,1
DA:229,1
DA:230,1
DA:231,1
DA:232,13
DA:234,14
DA:235,14
DA:236,14
DA:241,1
DA:242,1
DA:243,1
DA:244,1
DA:245,1
DA:246,1
DA:247,1
DA:248,1
DA:249,1
DA:250,1
DA:251,1
DA:252,1
DA:253,1
DA:254,2
DA:255,1
DA:256,1
DA:257,1
DA:259,2
DA:260,2
DA:261,2
DA:262,2
DA:263,2
DA:264,2
DA:265,2
DA:266,2
DA:267,2
DA:268,2
DA:269,2
DA:270,2
DA:271,0
DA:272,2
DA:273,2
DA:274,2
DA:275,2
DA:276,0
DA:277,2
DA:278,2
DA:279,2
DA:280,2
DA:281,2
DA:282,2
DA:283,2
DA:284,2
DA:285,2
DA:286,2
DA:287,2
DA:288,2
DA:289,2
DA:290,2
DA:291,2
DA:292,2
DA:293,2
DA:294,2
DA:295,2
DA:296,2
DA:297,2
DA:300,2
DA:301,0
DA:302,0
DA:303,0
DA:304,0
DA:305,0
DA:306,0
DA:307,0
DA:308,0
DA:309,0
DA:310,0
DA:311,0
DA:312,0
DA:313,0
DA:317,0
DA:318,0
DA:319,0
DA:320,2
DA:324,2
DA:325,3
DA:326,1
DA:327,1
DA:328,1
DA:329,1
DA:330,1
DA:331,1
DA:332,1
DA:333,1
DA:334,1
DA:335,1
DA:336,1
DA:337,0
DA:339,2
DA:341,16
DA:343,16
DA:344,1
DA:345,1
DA:346,0
DA:347,15
DA:350,15
DA:351,13
DA:353,2
DA:355,16
DA:359,0
DA:360,0
DA:361,0
DA:369,257
DA:370,257
DA:371,0
DA:372,0
DA:373,0
DA:374,257
DA:375,257
DA:376,257
DA:377,257
DA:378,257
DA:379,616
DA:380,257
DA:381,257
DA:382,257
DA:383,257
DA:392,3
DA:393,3
DA:394,3
DA:395,3
DA:396,3
DA:397,3
DA:398,3
DA:399,3
DA:400,3
DA:401,3
DA:404,1
DA:405,1
DA:406,1
DA:407,1
DA:408,1
DA:409,1
DA:410,1
DA:411,1
DA:412,1
DA:413,1
DA:414,1
DA:417,1
DA:420,1
DA:421,1
DA:422,1
DA:423,1
DA:424,1
DA:425,1
DA:426,1
DA:427,1
DA:428,1
DA:429,1
DA:430,1
DA:431,1
DA:432,1
DA:433,1
DA:434,1
DA:435,1
DA:436,1
DA:437,1
DA:438,1
DA:439,1
DA:440,1
DA:441,1
DA:442,1
DA:443,1
DA:444,1
DA:445,1
DA:448,1
DA:449,1
DA:450,1
DA:451,1
DA:452,1
DA:453,1
DA:454,1
DA:455,1
DA:456,1
DA:457,1
DA:458,1
DA:459,1
DA:460,1
DA:461,1
DA:462,1
DA:463,1
DA:464,1
DA:465,1
DA:466,1
DA:467,1
DA:469,0
DA:471,1
DA:473,1
DA:474,1
DA:475,1
DA:476,1
DA:479,1
DA:480,1
DA:481,1
DA:482,2
DA:483,1
DA:484,1
DA:485,1
DA:486,1
DA:489,1
DA:490,1
DA:491,1
DA:492,1
DA:493,1
DA:494,1
DA:495,1
DA:496,1
DA:497,1
DA:498,1
DA:501,1
DA:502,1
DA:503,1
DA:504,1
DA:505,1
DA:506,1
DA:507,1
DA:508,1
DA:509,1
DA:510,1
DA:511,1
DA:512,1
DA:513,1
DA:514,1
DA:515,1
DA:516,1
DA:517,1
DA:520,1
DA:521,1
DA:522,1
DA:523,1
DA:524,1
DA:525,1
DA:526,1
DA:527,1
DA:528,1
DA:531,1
DA:532,1
DA:533,1
DA:534,1
DA:535,1
DA:536,1
DA:537,1
DA:538,1
DA:539,1
DA:540,1
DA:541,1
DA:542,1
DA:543,1
DA:544,1
DA:545,1
DA:546,1
DA:557,3
DA:558,3210
DA:559,3
DA:562,4
DA:563,3826
DA:564,4
DA:567,2
DA:568,2
DA:569,2
DA:570,2
DA:571,2
DA:572,2
DA:573,2
DA:574,2
DA:575,2
DA:576,2
DA:594,1314
DA:628,1236
DA:666,615
BRF:0
BRH:0
LF:392
LH:364
end_of_record
SF:/home/strandgate/Development/ecoPrimals/phase2/sweetGrass/crates/sweet-grass-factory/src/error.rs
FN:38,_RNvXNtCsbdDWz5NO8Tp_19sweet_grass_factory5errorNtB2_12FactoryErrorINtNtCs9sjCchOt1K7_4core7convert4FromNtNtCs98BKYEhbmrI_10serde_json5error5ErrorE4from
FN:38,_RNvXNtCshDWcvDuPayx_19sweet_grass_factory5errorNtB2_12FactoryErrorINtNtCs9sjCchOt1K7_4core7convert4FromNtNtCs98BKYEhbmrI_10serde_json5error5ErrorE4from
FN:49,_RNvNtNtCshDWcvDuPayx_19sweet_grass_factory5error5testss_26test_factory_error_display
FN:67,_RNvNtNtCshDWcvDuPayx_19sweet_grass_factory5error5testss_26test_from_serde_json_error
FNDA:0,_RNvXNtCsbdDWz5NO8Tp_19sweet_grass_factory5errorNtB2_12FactoryErrorINtNtCs9sjCchOt1K7_4core7convert4FromNtNtCs98BKYEhbmrI_10serde_json5error5ErrorE4from
FNDA:1,_RNvXNtCshDWcvDuPayx_19sweet_grass_factory5errorNtB2_12FactoryErrorINtNtCs9sjCchOt1K7_4core7convert4FromNtNtCs98BKYEhbmrI_10serde_json5error5ErrorE4from
FNDA:1,_RNvNtNtCshDWcvDuPayx_19sweet_grass_factory5error5testss_26test_factory_error_display
FNDA:1,_RNvNtNtCshDWcvDuPayx_19sweet_grass_factory5error5testss_26test_from_serde_json_error
FNF:3
FNH:3
DA:38,1
DA:39,1
DA:40,1
DA:49,1
DA:50,1
DA:51,1
DA:53,1
DA:54,1
DA:56,1
DA:57,1
DA:59,1
DA:60,1
DA:62,1
DA:63,1
DA:64,1
DA:67,1
DA:68,1
DA:69,1
DA:70,1
DA:71,1
BRF:0
BRH:0
LF:20
LH:20
end_of_record
SF:/home/strandgate/Development/ecoPrimals/phase2/sweetGrass/crates/sweet-grass-factory/src/factory.rs
FN:90,_RINvMNtCsbdDWz5NO8Tp_19sweet_grass_factory7factoryNtB3_12BraidFactory9from_dataReECs8kWYp6X34D1_5chaos
FN:108,_RINvMNtCsbdDWz5NO8Tp_19sweet_grass_factory7factoryNtB3_12BraidFactory9from_hashReECs8kWYp6X34D1_5chaos
FN:98,_RNCINvMNtCsbdDWz5NO8Tp_19sweet_grass_factory7factoryNtB5_12BraidFactory9from_dataReE0Cs8kWYp6X34D1_5chaos
FN:207,_RNvMNtCsbdDWz5NO8Tp_19sweet_grass_factory7factoryNtB2_12BraidFactory10meta_braid
FN:288,_RNvMNtCsbdDWz5NO8Tp_19sweet_grass_factory7factoryNtB2_12BraidFactory16temporal_summary
FN:49,_RNvMNtCsbdDWz5NO8Tp_19sweet_grass_factory7factoryNtB2_12BraidFactory19from_self_knowledge
FN:61,_RNvMNtCsbdDWz5NO8Tp_19sweet_grass_factory7factoryNtB2_12BraidFactory3new
FN:351,_RNvMNtCsbdDWz5NO8Tp_19sweet_grass_factory7factoryNtB2_12BraidFactory4sign
FN:412,_RNvNtCsbdDWz5NO8Tp_19sweet_grass_factory7factory10hex_encode
FN:406,_RNvNtCsbdDWz5NO8Tp_19sweet_grass_factory7factory14compute_sha256
FN:214,_RNCNvMNtCsbdDWz5NO8Tp_19sweet_grass_factory7factoryNtB4_12BraidFactory10meta_braid0B6_
FN:413,_RNCNvNtCsbdDWz5NO8Tp_19sweet_grass_factory7factory10hex_encode0B5_
FN:78,_RINvMNtCsbdDWz5NO8Tp_19sweet_grass_factory7factoryNtB3_12BraidFactory10with_nichepEB5_
FN:151,_RINvMNtCsbdDWz5NO8Tp_19sweet_grass_factory7factoryNtB3_12BraidFactory12derived_frompEB5_
FN:305,_RINvMNtCsbdDWz5NO8Tp_19sweet_grass_factory7factoryNtB3_12BraidFactory15from_loam_entrypppEB5_
FN:264,_RINvMNtCsbdDWz5NO8Tp_19sweet_grass_factory7factoryNtB3_12BraidFactory15session_summarypEB5_
FN:366,_RINvMNtCsbdDWz5NO8Tp_19sweet_grass_factory7factoryNtB3_12BraidFactory16certificate_mintpEB5_
FN:71,_RINvMNtCsbdDWz5NO8Tp_19sweet_grass_factory7factoryNtB3_12BraidFactory18with_source_primalpEB5_
FN:90,_RINvMNtCsbdDWz5NO8Tp_19sweet_grass_factory7factoryNtB3_12BraidFactory9from_datapEB5_
FN:108,_RINvMNtCsbdDWz5NO8Tp_19sweet_grass_factory7factoryNtB3_12BraidFactory9from_hashpEB5_
FN:137,_RINvMNtCsbdDWz5NO8Tp_19sweet_grass_factory7factoryNtB3_12BraidFactory9from_jsonpEB5_
FN:161,_RNCINvMNtCsbdDWz5NO8Tp_19sweet_grass_factory7factoryNtB5_12BraidFactory12derived_frompE0B7_
FN:98,_RNCINvMNtCsbdDWz5NO8Tp_19sweet_grass_factory7factoryNtB5_12BraidFactory9from_datapE0B7_
FN:151,_RINvMNtCsbdDWz5NO8Tp_19sweet_grass_factory7factoryNtB3_12BraidFactory12derived_fromReECsad6wFluTeQR_11integration
FN:90,_RINvMNtCsbdDWz5NO8Tp_19sweet_grass_factory7factoryNtB3_12BraidFactory9from_dataReECsad6wFluTeQR_11integration
FN:108,_RINvMNtCsbdDWz5NO8Tp_19sweet_grass_factory7factoryNtB3_12BraidFactory9from_hashReECsad6wFluTeQR_11integration
FN:161,_RNCINvMNtCsbdDWz5NO8Tp_19sweet_grass_factory7factoryNtB5_12BraidFactory12derived_fromReE0Csad6wFluTeQR_11integration
FN:98,_RNCINvMNtCsbdDWz5NO8Tp_19sweet_grass_factory7factoryNtB5_12BraidFactory9from_dataReE0Csad6wFluTeQR_11integration
FN:264,_RINvMNtCsbdDWz5NO8Tp_19sweet_grass_factory7factoryNtB3_12BraidFactory15session_summaryReECsbY6LdEOIC22_23sweet_grass_compression
FN:264,_RINvMNtCsbdDWz5NO8Tp_19sweet_grass_factory7factoryNtB3_12BraidFactory15session_summaryReECslQATw0AokWy_23sweet_grass_compression
FN:78,_RINvMNtCshDWcvDuPayx_19sweet_grass_factory7factoryNtB3_12BraidFactory10with_nicheReEB5_
FN:151,_RINvMNtCshDWcvDuPayx_19sweet_grass_factory7factoryNtB3_12BraidFactory12derived_fromReEB5_
FN:305,_RINvMNtCshDWcvDuPayx_19sweet_grass_factory7factoryNtB3_12BraidFactory15from_loam_entryReB1m_B1m_EB5_
FN:264,_RINvMNtCshDWcvDuPayx_19sweet_grass_factory7factoryNtB3_12BraidFactory15session_summaryReEB5_
FN:366,_RINvMNtCshDWcvDuPayx_19sweet_grass_factory7factoryNtB3_12BraidFactory16certificate_mintReEB5_
FN:71,_RINvMNtCshDWcvDuPayx_19sweet_grass_factory7factoryNtB3_12BraidFactory18with_source_primalReEB5_
FN:90,_RINvMNtCshDWcvDuPayx_19sweet_grass_factory7factoryNtB3_12BraidFactory9from_dataReEB5_
FN:108,_RINvMNtCshDWcvDuPayx_19sweet_grass_factory7factoryNtB3_12BraidFactory9from_hashReEB5_
FN:137,_RINvMNtCshDWcvDuPayx_19sweet_grass_factory7factoryNtB3_12BraidFactory9from_jsonNtNvNtB3_5testss_14test_from_json4DataEB5_
FN:161,_RNCINvMNtCshDWcvDuPayx_19sweet_grass_factory7factoryNtB5_12BraidFactory12derived_fromReE0B7_
FN:98,_RNCINvMNtCshDWcvDuPayx_19sweet_grass_factory7factoryNtB5_12BraidFactory9from_dataReE0B7_
FN:214,_RNCNvMNtCshDWcvDuPayx_19sweet_grass_factory7factoryNtB4_12BraidFactory10meta_braid0B6_
FN:413,_RNCNvNtCshDWcvDuPayx_19sweet_grass_factory7factory10hex_encode0B5_
FN:207,_RNvMNtCshDWcvDuPayx_19sweet_grass_factory7factoryNtB2_12BraidFactory10meta_braid
FN:288,_RNvMNtCshDWcvDuPayx_19sweet_grass_factory7factoryNtB2_12BraidFactory16temporal_summary
FN:49,_RNvMNtCshDWcvDuPayx_19sweet_grass_factory7factoryNtB2_12BraidFactory19from_self_knowledge
FN:61,_RNvMNtCshDWcvDuPayx_19sweet_grass_factory7factoryNtB2_12BraidFactory3new
FN:351,_RNvMNtCshDWcvDuPayx_19sweet_grass_factory7factoryNtB2_12BraidFactory4sign
FN:412,_RNvNtCshDWcvDuPayx_19sweet_grass_factory7factory10hex_encode
FN:406,_RNvNtCshDWcvDuPayx_19sweet_grass_factory7factory14compute_sha256
FN:424,_RNvNtNtCshDWcvDuPayx_19sweet_grass_factory7factory5tests12make_factory
FN:429,_RNvNtNtCshDWcvDuPayx_19sweet_grass_factory7factory5testss_14test_from_data
FN:444,_RNvNtNtCshDWcvDuPayx_19sweet_grass_factory7factory5testss_14test_from_json
FN:479,_RNvNtNtCshDWcvDuPayx_19sweet_grass_factory7factory5testss_15test_meta_braid
FN:594,_RNvNtNtCshDWcvDuPayx_19sweet_grass_factory7factory5testss_15test_with_niche
FN:459,_RNvNtNtCshDWcvDuPayx_19sweet_grass_factory7factory5testss_17test_derived_from
FN:535,_RNvNtNtCshDWcvDuPayx_19sweet_grass_factory7factory5testss_20test_from_loam_entry
FN:502,_RNvNtNtCshDWcvDuPayx_19sweet_grass_factory7factory5testss_20test_session_summary
FN:557,_RNvNtNtCshDWcvDuPayx_19sweet_grass_factory7factory5testss_21test_certificate_mint
FN:514,_RNvNtNtCshDWcvDuPayx_19sweet_grass_factory7factory5testss_21test_temporal_summary
FN:605,_RNvNtNtCshDWcvDuPayx_19sweet_grass_factory7factory5testss_23test_with_source_primal
FN:616,_RNvNtNtCshDWcvDuPayx_19sweet_grass_factory7factory5testss_24test_from_self_knowledge
FN:576,_RNvNtNtCshDWcvDuPayx_19sweet_grass_factory7factory5testss_9test_sign
FN:108,_RINvMNtCsbdDWz5NO8Tp_19sweet_grass_factory7factoryNtB3_12BraidFactory9from_hashNtNtCs6bBekJvxEMJ_5alloc6string6StringECsdjAd9q7fPo9_19sweet_grass_service
FN:90,_RINvMNtCsbdDWz5NO8Tp_19sweet_grass_factory7factoryNtB3_12BraidFactory9from_dataRNtNtCs6bBekJvxEMJ_5alloc6string6StringECsZK8v8cnrxE_19sweet_grass_service
FN:90,_RINvMNtCsbdDWz5NO8Tp_19sweet_grass_factory7factoryNtB3_12BraidFactory9from_dataReECsZK8v8cnrxE_19sweet_grass_service
FN:108,_RINvMNtCsbdDWz5NO8Tp_19sweet_grass_factory7factoryNtB3_12BraidFactory9from_hashNtNtCs6bBekJvxEMJ_5alloc6string6StringECsZK8v8cnrxE_19sweet_grass_service
FN:108,_RINvMNtCsbdDWz5NO8Tp_19sweet_grass_factory7factoryNtB3_12BraidFactory9from_hashRNtNtCs6bBekJvxEMJ_5alloc6string6StringECsZK8v8cnrxE_19sweet_grass_service
FN:108,_RINvMNtCsbdDWz5NO8Tp_19sweet_grass_factory7factoryNtB3_12BraidFactory9from_hashReECsZK8v8cnrxE_19sweet_grass_service
FN:98,_RNCINvMNtCsbdDWz5NO8Tp_19sweet_grass_factory7factoryNtB5_12BraidFactory9from_dataRNtNtCs6bBekJvxEMJ_5alloc6string6StringE0CsZK8v8cnrxE_19sweet_grass_service
FN:98,_RNCINvMNtCsbdDWz5NO8Tp_19sweet_grass_factory7factoryNtB5_12BraidFactory9from_dataReE0CsZK8v8cnrxE_19sweet_grass_service
FNDA:51,_RINvMNtCsbdDWz5NO8Tp_19sweet_grass_factory7factoryNtB3_12BraidFactory9from_dataReECs8kWYp6X34D1_5chaos
FNDA:51,_RINvMNtCsbdDWz5NO8Tp_19sweet_grass_factory7factoryNtB3_12BraidFactory9from_hashReECs8kWYp6X34D1_5chaos
FNDA:0,_RNCINvMNtCsbdDWz5NO8Tp_19sweet_grass_factory7factoryNtB5_12BraidFactory9from_dataReE0Cs8kWYp6X34D1_5chaos
FNDA:1,_RNvMNtCsbdDWz5NO8Tp_19sweet_grass_factory7factoryNtB2_12BraidFactory10meta_braid
FNDA:0,_RNvMNtCsbdDWz5NO8Tp_19sweet_grass_factory7factoryNtB2_12BraidFactory16temporal_summary
FNDA:0,_RNvMNtCsbdDWz5NO8Tp_19sweet_grass_factory7factoryNtB2_12BraidFactory19from_self_knowledge
FNDA:115,_RNvMNtCsbdDWz5NO8Tp_19sweet_grass_factory7factoryNtB2_12BraidFactory3new
FNDA:0,_RNvMNtCsbdDWz5NO8Tp_19sweet_grass_factory7factoryNtB2_12BraidFactory4sign
FNDA:117,_RNvNtCsbdDWz5NO8Tp_19sweet_grass_factory7factory10hex_encode
FNDA:116,_RNvNtCsbdDWz5NO8Tp_19sweet_grass_factory7factory14compute_sha256
FNDA:0,_RNCNvMNtCsbdDWz5NO8Tp_19sweet_grass_factory7factoryNtB4_12BraidFactory10meta_braid0B6_
FNDA:3744,_RNCNvNtCsbdDWz5NO8Tp_19sweet_grass_factory7factory10hex_encode0B5_
FNDA:0,_RINvMNtCsbdDWz5NO8Tp_19sweet_grass_factory7factoryNtB3_12BraidFactory10with_nichepEB5_
FNDA:0,_RINvMNtCsbdDWz5NO8Tp_19sweet_grass_factory7factoryNtB3_12BraidFactory12derived_frompEB5_
FNDA:0,_RINvMNtCsbdDWz5NO8Tp_19sweet_grass_factory7factoryNtB3_12BraidFactory15from_loam_entrypppEB5_
FNDA:0,_RINvMNtCsbdDWz5NO8Tp_19sweet_grass_factory7factoryNtB3_12BraidFactory15session_summarypEB5_
FNDA:0,_RINvMNtCsbdDWz5NO8Tp_19sweet_grass_factory7factoryNtB3_12BraidFactory16certificate_mintpEB5_
FNDA:0,_RINvMNtCsbdDWz5NO8Tp_19sweet_grass_factory7factoryNtB3_12BraidFactory18with_source_primalpEB5_
FNDA:0,_RINvMNtCsbdDWz5NO8Tp_19sweet_grass_factory7factoryNtB3_12BraidFactory9from_datapEB5_
FNDA:0,_RINvMNtCsbdDWz5NO8Tp_19sweet_grass_factory7factoryNtB3_12BraidFactory9from_hashpEB5_
FNDA:0,_RINvMNtCsbdDWz5NO8Tp_19sweet_grass_factory7factoryNtB3_12BraidFactory9from_jsonpEB5_
FNDA:0,_RNCINvMNtCsbdDWz5NO8Tp_19sweet_grass_factory7factoryNtB5_12BraidFactory12derived_frompE0B7_
FNDA:0,_RNCINvMNtCsbdDWz5NO8Tp_19sweet_grass_factory7factoryNtB5_12BraidFactory9from_datapE0B7_
FNDA:3,_RINvMNtCsbdDWz5NO8Tp_19sweet_grass_factory7factoryNtB3_12BraidFactory12derived_fromReECsad6wFluTeQR_11integration
FNDA:39,_RINvMNtCsbdDWz5NO8Tp_19sweet_grass_factory7factoryNtB3_12BraidFactory9from_dataReECsad6wFluTeQR_11integration
FNDA:39,_RINvMNtCsbdDWz5NO8Tp_19sweet_grass_factory7factoryNtB3_12BraidFactory9from_hashReECsad6wFluTeQR_11integration
FNDA:0,_RNCINvMNtCsbdDWz5NO8Tp_19sweet_grass_factory7factoryNtB5_12BraidFactory12derived_fromReE0Csad6wFluTeQR_11integration
FNDA:0,_RNCINvMNtCsbdDWz5NO8Tp_19sweet_grass_factory7factoryNtB5_12BraidFactory9from_dataReE0Csad6wFluTeQR_11integration
FNDA:0,_RINvMNtCsbdDWz5NO8Tp_19sweet_grass_factory7factoryNtB3_12BraidFactory15session_summaryReECsbY6LdEOIC22_23sweet_grass_compression
FNDA:0,_RINvMNtCsbdDWz5NO8Tp_19sweet_grass_factory7factoryNtB3_12BraidFactory15session_summaryReECslQATw0AokWy_23sweet_grass_compression
FNDA:1,_RINvMNtCshDWcvDuPayx_19sweet_grass_factory7factoryNtB3_12BraidFactory10with_nicheReEB5_
FNDA:1,_RINvMNtCshDWcvDuPayx_19sweet_grass_factory7factoryNtB3_12BraidFactory12derived_fromReEB5_
FNDA:1,_RINvMNtCshDWcvDuPayx_19sweet_grass_factory7factoryNtB3_12BraidFactory15from_loam_entryReB1m_B1m_EB5_
FNDA:1,_RINvMNtCshDWcvDuPayx_19sweet_grass_factory7factoryNtB3_12BraidFactory15session_summaryReEB5_
FNDA:1,_RINvMNtCshDWcvDuPayx_19sweet_grass_factory7factoryNtB3_12BraidFactory16certificate_mintReEB5_
FNDA:1,_RINvMNtCshDWcvDuPayx_19sweet_grass_factory7factoryNtB3_12BraidFactory18with_source_primalReEB5_
FNDA:6,_RINvMNtCshDWcvDuPayx_19sweet_grass_factory7factoryNtB3_12BraidFactory9from_dataReEB5_
FNDA:6,_RINvMNtCshDWcvDuPayx_19sweet_grass_factory7factoryNtB3_12BraidFactory9from_hashReEB5_
FNDA:1,_RINvMNtCshDWcvDuPayx_19sweet_grass_factory7factoryNtB3_12BraidFactory9from_jsonNtNvNtB3_5testss_14test_from_json4DataEB5_
FNDA:0,_RNCINvMNtCshDWcvDuPayx_19sweet_grass_factory7factoryNtB5_12BraidFactory12derived_fromReE0B7_
FNDA:0,_RNCINvMNtCshDWcvDuPayx_19sweet_grass_factory7factoryNtB5_12BraidFactory9from_dataReE0B7_
FNDA:0,_RNCNvMNtCshDWcvDuPayx_19sweet_grass_factory7factoryNtB4_12BraidFactory10meta_braid0B6_
FNDA:320,_RNCNvNtCshDWcvDuPayx_19sweet_grass_factory7factory10hex_encode0B5_
FNDA:3,_RNvMNtCshDWcvDuPayx_19sweet_grass_factory7factoryNtB2_12BraidFactory10meta_braid
FNDA:1,_RNvMNtCshDWcvDuPayx_19sweet_grass_factory7factoryNtB2_12BraidFactory16temporal_summary
FNDA:1,_RNvMNtCshDWcvDuPayx_19sweet_grass_factory7factoryNtB2_12BraidFactory19from_self_knowledge
FNDA:11,_RNvMNtCshDWcvDuPayx_19sweet_grass_factory7factoryNtB2_12BraidFactory3new
FNDA:1,_RNvMNtCshDWcvDuPayx_19sweet_grass_factory7factoryNtB2_12BraidFactory4sign
FNDA:10,_RNvNtCshDWcvDuPayx_19sweet_grass_factory7factory10hex_encode
FNDA:7,_RNvNtCshDWcvDuPayx_19sweet_grass_factory7factory14compute_sha256
FNDA:11,_RNvNtNtCshDWcvDuPayx_19sweet_grass_factory7factory5tests12make_factory
FNDA:1,_RNvNtNtCshDWcvDuPayx_19sweet_grass_factory7factory5testss_14test_from_data
FNDA:1,_RNvNtNtCshDWcvDuPayx_19sweet_grass_factory7factory5testss_14test_from_json
FNDA:1,_RNvNtNtCshDWcvDuPayx_19sweet_grass_factory7factory5testss_15test_meta_braid
FNDA:1,_RNvNtNtCshDWcvDuPayx_19sweet_grass_factory7factory5testss_15test_with_niche
FNDA:1,_RNvNtNtCshDWcvDuPayx_19sweet_grass_factory7factory5testss_17test_derived_from
FNDA:1,_RNvNtNtCshDWcvDuPayx_19sweet_grass_factory7factory5testss_20test_from_loam_entry
FNDA:1,_RNvNtNtCshDWcvDuPayx_19sweet_grass_factory7factory5testss_20test_session_summary
FNDA:1,_RNvNtNtCshDWcvDuPayx_19sweet_grass_factory7factory5testss_21test_certificate_mint
FNDA:1,_RNvNtNtCshDWcvDuPayx_19sweet_grass_factory7factory5testss_21test_temporal_summary
FNDA:1,_RNvNtNtCshDWcvDuPayx_19sweet_grass_factory7factory5testss_23test_with_source_primal
FNDA:1,_RNvNtNtCshDWcvDuPayx_19sweet_grass_factory7factory5testss_24test_from_self_knowledge
FNDA:1,_RNvNtNtCshDWcvDuPayx_19sweet_grass_factory7factory5testss_9test_sign
FNDA:0,_RINvMNtCsbdDWz5NO8Tp_19sweet_grass_factory7factoryNtB3_12BraidFactory9from_hashNtNtCs6bBekJvxEMJ_5alloc6string6StringECsdjAd9q7fPo9_19sweet_grass_service
FNDA:1,_RINvMNtCsbdDWz5NO8Tp_19sweet_grass_factory7factoryNtB3_12BraidFactory9from_dataRNtNtCs6bBekJvxEMJ_5alloc6string6StringECsZK8v8cnrxE_19sweet_grass_service
FNDA:22,_RINvMNtCsbdDWz5NO8Tp_19sweet_grass_factory7factoryNtB3_12BraidFactory9from_dataReECsZK8v8cnrxE_19sweet_grass_service
FNDA:15,_RINvMNtCsbdDWz5NO8Tp_19sweet_grass_factory7factoryNtB3_12BraidFactory9from_hashNtNtCs6bBekJvxEMJ_5alloc6string6StringECsZK8v8cnrxE_19sweet_grass_service
FNDA:1,_RINvMNtCsbdDWz5NO8Tp_19sweet_grass_factory7factoryNtB3_12BraidFactory9from_hashRNtNtCs6bBekJvxEMJ_5alloc6string6StringECsZK8v8cnrxE_19sweet_grass_service
FNDA:22,_RINvMNtCsbdDWz5NO8Tp_19sweet_grass_factory7factoryNtB3_12BraidFactory9from_hashReECsZK8v8cnrxE_19sweet_grass_service
FNDA:0,_RNCINvMNtCsbdDWz5NO8Tp_19sweet_grass_factory7factoryNtB5_12BraidFactory9from_dataRNtNtCs6bBekJvxEMJ_5alloc6string6StringE0CsZK8v8cnrxE_19sweet_grass_service
FNDA:0,_RNCINvMNtCsbdDWz5NO8Tp_19sweet_grass_factory7factoryNtB5_12BraidFactory9from_dataReE0CsZK8v8cnrxE_19sweet_grass_service
FNF:33
FNH:30
DA:49,1
DA:50,1
DA:51,1
DA:52,1
DA:53,1
DA:54,1
DA:55,1
DA:61,126
DA:62,126
DA:63,126
DA:64,126
DA:65,126
DA:66,126
DA:67,126
DA:71,1
DA:72,1
DA:73,1
DA:74,1
DA:78,1
DA:79,1
DA:80,1
DA:81,1
DA:90,119
DA:91,119
DA:92,119
DA:93,119
DA:94,119
DA:95,119
DA:96,119
DA:97,119
DA:98,119
DA:100,119
DA:101,119
DA:108,134
DA:109,134
DA:110,134
DA:111,134
DA:112,134
DA:113,134
DA:114,134
DA:115,134
DA:116,134
DA:117,134
DA:118,134
DA:119,134
DA:120,134
DA:121,134
DA:122,134
DA:123,134
DA:124,134
DA:125,134
DA:126,134
DA:127,134
DA:128,134
DA:129,134
DA:130,134
DA:137,1
DA:138,1
DA:139,1
DA:140,1
DA:141,1
DA:142,1
DA:143,1
DA:144,1
DA:151,4
DA:152,4
DA:153,4
DA:154,4
DA:155,4
DA:156,4
DA:157,4
DA:158,4
DA:159,4
DA:160,4
DA:161,4
DA:164,4
DA:165,4
DA:166,4
DA:167,4
DA:168,4
DA:169,4
DA:170,4
DA:171,4
DA:172,4
DA:173,8
DA:174,4
DA:175,4
DA:176,4
DA:177,4
DA:179,4
DA:180,4
DA:181,4
DA:182,4
DA:183,4
DA:185,4
DA:186,4
DA:187,4
DA:188,4
DA:189,4
DA:190,4
DA:191,4
DA:192,4
DA:193,4
DA:194,4
DA:197,4
DA:198,4
DA:199,4
DA:200,4
DA:207,4
DA:208,4
DA:209,4
DA:210,4
DA:211,4
DA:212,4
DA:213,4
DA:214,4
DA:217,4
DA:218,12
DA:219,8
DA:220,8
DA:221,4
DA:222,4
DA:223,4
DA:224,4
DA:225,4
DA:226,4
DA:227,4
DA:228,4
DA:229,4
DA:230,4
DA:231,4
DA:232,4
DA:233,4
DA:234,4
DA:235,4
DA:236,4
DA:237,4
DA:238,4
DA:239,4
DA:240,4
DA:242,4
DA:243,4
DA:244,4
DA:245,4
DA:246,4
DA:247,4
DA:248,4
DA:249,4
DA:250,4
DA:251,4
DA:254,4
DA:255,4
DA:256,4
DA:257,4
DA:264,1
DA:265,1
DA:266,1
DA:267,1
DA:268,1
DA:269,1
DA:270,1
DA:271,1
DA:272,1
DA:273,1
DA:275,1
DA:278,1
DA:279,1
DA:280,1
DA:281,1
DA:288,1
DA:289,1
DA:290,1
DA:291,1
DA:292,1
DA:293,1
DA:294,1
DA:295,1
DA:296,1
DA:297,1
DA:305,1
DA:306,1
DA:307,1
DA:308,1
DA:309,1
DA:310,1
DA:311,1
DA:312,1
DA:313,1
DA:314,1
DA:315,1
DA:316,1
DA:317,1
DA:318,1
DA:319,1
DA:320,1
DA:321,1
DA:322,1
DA:323,1
DA:324,1
DA:325,1
DA:326,1
DA:327,1
DA:329,1
DA:330,1
DA:331,1
DA:332,1
DA:333,1
DA:334,1
DA:335,1
DA:336,1
DA:337,1
DA:340,1
DA:341,1
DA:342,1
DA:343,1
DA:344,1
DA:345,1
DA:351,1
DA:352,1
DA:353,1
DA:354,1
DA:355,1
DA:356,1
DA:357,1
DA:358,1
DA:359,1
DA:366,1
DA:367,1
DA:368,1
DA:369,1
DA:370,1
DA:371,1
DA:372,1
DA:373,1
DA:374,1
DA:375,1
DA:376,1
DA:377,1
DA:378,1
DA:379,1
DA:380,1
DA:381,1
DA:382,1
DA:383,1
DA:384,1
DA:385,1
DA:386,1
DA:387,1
DA:388,1
DA:389,1
DA:390,1
DA:391,1
DA:392,1
DA:393,1
DA:394,1
DA:395,1
DA:396,1
DA:397,1
DA:398,1
DA:399,1
DA:400,1
DA:401,1
DA:402,1
DA:406,123
DA:407,123
DA:408,123
DA:409,123
DA:412,127
DA:413,4064
DA:414,4064
DA:415,4064
DA:416,4064
DA:417,127
DA:424,11
DA:425,11
DA:426,11
DA:429,1
DA:430,1
DA:431,1
DA:432,1
DA:433,1
DA:434,1
DA:435,1
DA:436,1
DA:437,1
DA:438,1
DA:439,1
DA:440,1
DA:441,1
DA:444,1
DA:450,1
DA:451,1
DA:452,1
DA:453,1
DA:454,1
DA:455,1
DA:456,1
DA:459,1
DA:460,1
DA:461,1
DA:462,1
DA:463,1
DA:464,1
DA:465,1
DA:466,1
DA:467,1
DA:468,1
DA:469,1
DA:470,1
DA:471,1
DA:472,1
DA:473,1
DA:474,1
DA:475,1
DA:476,1
DA:479,1
DA:480,1
DA:481,1
DA:482,1
DA:483,1
DA:484,1
DA:485,1
DA:486,1
DA:487,1
DA:488,1
DA:489,1
DA:490,1
DA:491,1
DA:492,1
DA:493,1
DA:495,0
DA:498,1
DA:499,1
DA:502,1
DA:503,1
DA:504,1
DA:505,1
DA:506,1
DA:507,1
DA:508,1
DA:509,1
DA:510,1
DA:511,1
DA:514,1
DA:515,1
DA:516,1
DA:517,1
DA:518,1
DA:519,1
DA:520,1
DA:522,1
DA:524,1
DA:525,1
DA:526,1
DA:527,1
DA:528,1
DA:530,0
DA:532,1
DA:535,1
DA:536,1
DA:537,1
DA:538,1
DA:539,1
DA:540,1
DA:541,1
DA:542,1
DA:543,1
DA:544,1
DA:545,1
DA:546,1
DA:547,1
DA:548,1
DA:549,1
DA:550,1
DA:551,1
DA:552,1
DA:553,1
DA:554,1
DA:557,1
DA:558,1
DA:559,1
DA:560,1
DA:561,1
DA:562,1
DA:563,1
DA:564,1
DA:565,1
DA:566,1
DA:567,1
DA:568,1
DA:569,1
DA:570,1
DA:571,1
DA:572,1
DA:573,1
DA:576,1
DA:577,1
DA:578,1
DA:579,1
DA:580,1
DA:581,1
DA:582,1
DA:584,1
DA:585,1
DA:586,1
DA:587,1
DA:588,1
DA:589,1
DA:590,1
DA:591,1
DA:594,1
DA:595,1
DA:596,1
DA:597,1
DA:598,1
DA:599,1
DA:600,1
DA:601,1
DA:602,1
DA:605,1
DA:606,1
DA:607,1
DA:608,1
DA:609,1
DA:610,1
DA:611,1
DA:612,1
DA:613,1
DA:616,1
DA:619,1
DA:620,1
DA:621,1
DA:622,1
DA:623,1
DA:624,1
DA:625,1
DA:626,1
DA:627,1
DA:628,1
DA:629,1
DA:630,1
DA:631,1
DA:632,1
BRF:0
BRH:0
LF:448
LH:443
end_of_record
SF:/home/strandgate/Development/ecoPrimals/phase2/sweetGrass/crates/sweet-grass-integration/src/anchor.rs
FN:597,_RNCNCNvNtNtCs4hEEQusrzoB_23sweet_grass_integration6anchor5testss_34test_create_anchoring_client_async00B9_
FN:426,_RNCNvNtNtCs4hEEQusrzoB_23sweet_grass_integration6anchor5testss_23test_mock_client_anchor0B7_
FN:450,_RNCNvNtNtCs4hEEQusrzoB_23sweet_grass_integration6anchor5testss_23test_mock_client_health0B7_
FN:436,_RNCNvNtNtCs4hEEQusrzoB_23sweet_grass_integration6anchor5testss_23test_mock_client_verify0B7_
FN:577,_RNCNvNtNtCs4hEEQusrzoB_23sweet_grass_integration6anchor5testss_26test_anchor_info_structure0B7_
FN:526,_RNCNvNtNtCs4hEEQusrzoB_23sweet_grass_integration6anchor5testss_26test_anchor_manager_verify0B7_
FN:459,_RNCNvNtNtCs4hEEQusrzoB_23sweet_grass_integration6anchor5testss_28test_mock_client_get_anchors0B7_
FN:563,_RNCNvNtNtCs4hEEQusrzoB_23sweet_grass_integration6anchor5testss_29test_anchor_receipt_structure0B7_
FN:544,_RNCNvNtNtCs4hEEQusrzoB_23sweet_grass_integration6anchor5testss_31test_anchor_manager_get_anchors0B7_
FN:487,_RNCNvNtNtCs4hEEQusrzoB_23sweet_grass_integration6anchor5testss_31test_anchor_manager_with_client0B7_
FN:496,_RNCNvNtNtCs4hEEQusrzoB_23sweet_grass_integration6anchor5testss_32test_anchor_manager_anchor_by_id0B7_
FN:477,_RNCNvNtNtCs4hEEQusrzoB_23sweet_grass_integration6anchor5testss_33test_mock_client_verify_not_found0B7_
FN:591,_RNCNvNtNtCs4hEEQusrzoB_23sweet_grass_integration6anchor5testss_34test_create_anchoring_client_async0B7_
FN:513,_RNCNvNtNtCs4hEEQusrzoB_23sweet_grass_integration6anchor5testss_42test_anchor_manager_anchor_by_id_not_found0B7_
FN:89,_RINvMNtCs4hEEQusrzoB_23sweet_grass_integration6anchorNtB3_13AnchorManager3newpEB5_
FN:168,_RINvMs6_NtCs4hEEQusrzoB_23sweet_grass_integration6anchorNtB6_18AnchoringRpcClient3newpEB8_
FN:96,_RNCINvMNtCs4hEEQusrzoB_23sweet_grass_integration6anchorNtB5_13AnchorManager3newpE0B7_
FN:102,_RNCNCNCINvMNtCs4hEEQusrzoB_23sweet_grass_integration6anchorNtB9_13AnchorManager3newpE000Bb_
FN:203,_RNCNCNCNvMs_NtCs4hEEQusrzoB_23sweet_grass_integration6anchorNtBa_20TarpcAnchoringClient7connect000Bc_
FN:213,_RNCNCNvMs_NtCs4hEEQusrzoB_23sweet_grass_integration6anchorNtB8_20TarpcAnchoringClient11from_primal00Ba_
FN:262,_RNCNCNvXse_NtCs4hEEQusrzoB_23sweet_grass_integration6anchorNtB9_20TarpcAnchoringClientNtB9_15AnchoringClient11get_anchors00Bb_
FN:266,_RNCNCNvXse_NtCs4hEEQusrzoB_23sweet_grass_integration6anchorNtB9_20TarpcAnchoringClientNtB9_15AnchoringClient11get_anchors0s_0Bb_
FN:224,_RNCNCNvXse_NtCs4hEEQusrzoB_23sweet_grass_integration6anchorNtB9_20TarpcAnchoringClientNtB9_15AnchoringClient6anchor00Bb_
FN:234,_RNCNCNvXse_NtCs4hEEQusrzoB_23sweet_grass_integration6anchorNtB9_20TarpcAnchoringClientNtB9_15AnchoringClient6anchor0s0_0Bb_
FN:230,_RNCNCNvXse_NtCs4hEEQusrzoB_23sweet_grass_integration6anchorNtB9_20TarpcAnchoringClientNtB9_15AnchoringClient6anchor0s_0Bb_
FN:275,_RNCNCNvXse_NtCs4hEEQusrzoB_23sweet_grass_integration6anchorNtB9_20TarpcAnchoringClientNtB9_15AnchoringClient6health00Bb_
FN:244,_RNCNCNvXse_NtCs4hEEQusrzoB_23sweet_grass_integration6anchorNtB9_20TarpcAnchoringClientNtB9_15AnchoringClient6verify00Bb_
FN:250,_RNCNCNvXse_NtCs4hEEQusrzoB_23sweet_grass_integration6anchorNtB9_20TarpcAnchoringClientNtB9_15AnchoringClient6verify0s_0Bb_
FN:168,_RNCNvMs8_NtCs4hEEQusrzoB_23sweet_grass_integration6anchorINtB7_18AnchoringRpcClientpE11get_anchors0B9_
FN:168,_RNCNvMs8_NtCs4hEEQusrzoB_23sweet_grass_integration6anchorINtB7_18AnchoringRpcClientpE6anchor0B9_
FN:168,_RNCNvMs8_NtCs4hEEQusrzoB_23sweet_grass_integration6anchorINtB7_18AnchoringRpcClientpE6health0B9_
FN:168,_RNCNvMs8_NtCs4hEEQusrzoB_23sweet_grass_integration6anchorINtB7_18AnchoringRpcClientpE6verify0B9_
FN:212,_RNCNvMs_NtCs4hEEQusrzoB_23sweet_grass_integration6anchorNtB6_20TarpcAnchoringClient11from_primal0B8_
FN:195,_RNCNvMs_NtCs4hEEQusrzoB_23sweet_grass_integration6anchorNtB6_20TarpcAnchoringClient7connect0B8_
FN:212,_RNvMs_NtCs4hEEQusrzoB_23sweet_grass_integration6anchorNtB4_20TarpcAnchoringClient11from_primal
FN:195,_RNvMs_NtCs4hEEQusrzoB_23sweet_grass_integration6anchorNtB4_20TarpcAnchoringClient7connect
FN:168,_RNvXININtCs4hEEQusrzoB_23sweet_grass_integration6anchors7_0pEINtB5_18AnchoringRpcClientpEINtNtCs9sjCchOt1K7_4core7convert4FrompE4fromB7_
FN:347,_RNvXs_NtNtCs4hEEQusrzoB_23sweet_grass_integration6anchor7testingNtB4_19MockAnchoringClientNtNtCs9sjCchOt1K7_4core7default7Default7default
FN:257,_RNvXse_NtCs4hEEQusrzoB_23sweet_grass_integration6anchorNtB5_20TarpcAnchoringClientNtB5_15AnchoringClient11get_anchors
FN:222,_RNvXse_NtCs4hEEQusrzoB_23sweet_grass_integration6anchorNtB5_20TarpcAnchoringClientNtB5_15AnchoringClient6anchor
FN:271,_RNvXse_NtCs4hEEQusrzoB_23sweet_grass_integration6anchorNtB5_20TarpcAnchoringClientNtB5_15AnchoringClient6health
FN:239,_RNvXse_NtCs4hEEQusrzoB_23sweet_grass_integration6anchorNtB5_20TarpcAnchoringClientNtB5_15AnchoringClient6verify
FN:168,_RNvYpNtNtCs4hEEQusrzoB_23sweet_grass_integration6anchor12AnchoringRpc5serveB7_
FN:149,_RNvMNtCs4hEEQusrzoB_23sweet_grass_integration6anchorNtB2_13AnchorManager11get_anchors
FN:117,_RNvMNtCs4hEEQusrzoB_23sweet_grass_integration6anchorNtB2_13AnchorManager11with_client
FN:132,_RNvMNtCs4hEEQusrzoB_23sweet_grass_integration6anchorNtB2_13AnchorManager12anchor_by_id
FN:156,_RNvMNtCs4hEEQusrzoB_23sweet_grass_integration6anchorNtB2_13AnchorManager6client
FN:143,_RNvMNtCs4hEEQusrzoB_23sweet_grass_integration6anchorNtB2_13AnchorManager6verify
FN:283,_RNvNtCs4hEEQusrzoB_23sweet_grass_integration6anchor29create_anchoring_client_async
FN:340,_RNvMNtNtCs4hEEQusrzoB_23sweet_grass_integration6anchor7testingNtB2_19MockAnchoringClient11with_health
FN:330,_RNvMNtNtCs4hEEQusrzoB_23sweet_grass_integration6anchor7testingNtB2_19MockAnchoringClient3new
FN:378,_RNvXs0_NtNtCs4hEEQusrzoB_23sweet_grass_integration6anchor7testingNtB5_19MockAnchoringClientNtB7_15AnchoringClient11get_anchors
FN:354,_RNvXs0_NtNtCs4hEEQusrzoB_23sweet_grass_integration6anchor7testingNtB5_19MockAnchoringClientNtB7_15AnchoringClient6anchor
FN:387,_RNvXs0_NtNtCs4hEEQusrzoB_23sweet_grass_integration6anchor7testingNtB5_19MockAnchoringClientNtB7_15AnchoringClient6health
FN:373,_RNvXs0_NtNtCs4hEEQusrzoB_23sweet_grass_integration6anchor7testingNtB5_19MockAnchoringClientNtB7_15AnchoringClient6verify
FN:405,_RNvNtNtCs4hEEQusrzoB_23sweet_grass_integration6anchor5tests17create_test_braid
FN:415,_RNvNtNtCs4hEEQusrzoB_23sweet_grass_integration6anchor5tests27create_test_braid_with_hash
FN:426,_RNvNtNtCs4hEEQusrzoB_23sweet_grass_integration6anchor5testss_23test_mock_client_anchor
FN:450,_RNvNtNtCs4hEEQusrzoB_23sweet_grass_integration6anchor5testss_23test_mock_client_health
FN:436,_RNvNtNtCs4hEEQusrzoB_23sweet_grass_integration6anchor5testss_23test_mock_client_verify
FN:577,_RNvNtNtCs4hEEQusrzoB_23sweet_grass_integration6anchor5testss_26test_anchor_info_structure
FN:526,_RNvNtNtCs4hEEQusrzoB_23sweet_grass_integration6anchor5testss_26test_anchor_manager_verify
FN:459,_RNvNtNtCs4hEEQusrzoB_23sweet_grass_integration6anchor5testss_28test_mock_client_get_anchors
FN:563,_RNvNtNtCs4hEEQusrzoB_23sweet_grass_integration6anchor5testss_29test_anchor_receipt_structure
FN:544,_RNvNtNtCs4hEEQusrzoB_23sweet_grass_integration6anchor5testss_31test_anchor_manager_get_anchors
FN:487,_RNvNtNtCs4hEEQusrzoB_23sweet_grass_integration6anchor5testss_31test_anchor_manager_with_client
FN:496,_RNvNtNtCs4hEEQusrzoB_23sweet_grass_integration6anchor5testss_32test_anchor_manager_anchor_by_id
FN:477,_RNvNtNtCs4hEEQusrzoB_23sweet_grass_integration6anchor5testss_33test_mock_client_verify_not_found
FN:591,_RNvNtNtCs4hEEQusrzoB_23sweet_grass_integration6anchor5testss_34test_create_anchoring_client_async
FN:513,_RNvNtNtCs4hEEQusrzoB_23sweet_grass_integration6anchor5testss_42test_anchor_manager_anchor_by_id_not_found
FN:134,_RNCNCNCNvMNtCs4hEEQusrzoB_23sweet_grass_integration6anchorNtB8_13AnchorManager12anchor_by_id000Ba_
FN:149,_RNCNvMNtCs4hEEQusrzoB_23sweet_grass_integration6anchorNtB4_13AnchorManager11get_anchors0B6_
FN:132,_RNCNvMNtCs4hEEQusrzoB_23sweet_grass_integration6anchorNtB4_13AnchorManager12anchor_by_id0B6_
FN:143,_RNCNvMNtCs4hEEQusrzoB_23sweet_grass_integration6anchorNtB4_13AnchorManager6verify0B6_
FN:285,_RNCNvNtCs4hEEQusrzoB_23sweet_grass_integration6anchor29create_anchoring_client_async0B5_
FN:382,_RNCNCNvXs0_NtNtCs4hEEQusrzoB_23sweet_grass_integration6anchor7testingNtB9_19MockAnchoringClientNtBb_15AnchoringClient11get_anchors00Bd_
FN:375,_RNCNCNvXs0_NtNtCs4hEEQusrzoB_23sweet_grass_integration6anchor7testingNtB9_19MockAnchoringClientNtBb_15AnchoringClient6verify00Bd_
FNDA:1,_RNCNCNvNtNtCs4hEEQusrzoB_23sweet_grass_integration6anchor5testss_34test_create_anchoring_client_async00B9_
FNDA:1,_RNCNvNtNtCs4hEEQusrzoB_23sweet_grass_integration6anchor5testss_23test_mock_client_anchor0B7_
FNDA:1,_RNCNvNtNtCs4hEEQusrzoB_23sweet_grass_integration6anchor5testss_23test_mock_client_health0B7_
FNDA:1,_RNCNvNtNtCs4hEEQusrzoB_23sweet_grass_integration6anchor5testss_23test_mock_client_verify0B7_
FNDA:1,_RNCNvNtNtCs4hEEQusrzoB_23sweet_grass_integration6anchor5testss_26test_anchor_info_structure0B7_
FNDA:1,_RNCNvNtNtCs4hEEQusrzoB_23sweet_grass_integration6anchor5testss_26test_anchor_manager_verify0B7_
FNDA:1,_RNCNvNtNtCs4hEEQusrzoB_23sweet_grass_integration6anchor5testss_28test_mock_client_get_anchors0B7_
FNDA:1,_RNCNvNtNtCs4hEEQusrzoB_23sweet_grass_integration6anchor5testss_29test_anchor_receipt_structure0B7_
FNDA:1,_RNCNvNtNtCs4hEEQusrzoB_23sweet_grass_integration6anchor5testss_31test_anchor_manager_get_anchors0B7_
FNDA:1,_RNCNvNtNtCs4hEEQusrzoB_23sweet_grass_integration6anchor5testss_31test_anchor_manager_with_client0B7_
FNDA:1,_RNCNvNtNtCs4hEEQusrzoB_23sweet_grass_integration6anchor5testss_32test_anchor_manager_anchor_by_id0B7_
FNDA:1,_RNCNvNtNtCs4hEEQusrzoB_23sweet_grass_integration6anchor5testss_33test_mock_client_verify_not_found0B7_
FNDA:1,_RNCNvNtNtCs4hEEQusrzoB_23sweet_grass_integration6anchor5testss_34test_create_anchoring_client_async0B7_
FNDA:1,_RNCNvNtNtCs4hEEQusrzoB_23sweet_grass_integration6anchor5testss_42test_anchor_manager_anchor_by_id_not_found0B7_
FNDA:0,_RINvMNtCs4hEEQusrzoB_23sweet_grass_integration6anchorNtB3_13AnchorManager3newpEB5_
FNDA:0,_RINvMs6_NtCs4hEEQusrzoB_23sweet_grass_integration6anchorNtB6_18AnchoringRpcClient3newpEB8_
FNDA:0,_RNCINvMNtCs4hEEQusrzoB_23sweet_grass_integration6anchorNtB5_13AnchorManager3newpE0B7_
FNDA:0,_RNCNCNCINvMNtCs4hEEQusrzoB_23sweet_grass_integration6anchorNtB9_13AnchorManager3newpE000Bb_
FNDA:0,_RNCNCNCNvMs_NtCs4hEEQusrzoB_23sweet_grass_integration6anchorNtBa_20TarpcAnchoringClient7connect000Bc_
FNDA:0,_RNCNCNvMs_NtCs4hEEQusrzoB_23sweet_grass_integration6anchorNtB8_20TarpcAnchoringClient11from_primal00Ba_
FNDA:0,_RNCNCNvXse_NtCs4hEEQusrzoB_23sweet_grass_integration6anchorNtB9_20TarpcAnchoringClientNtB9_15AnchoringClient11get_anchors00Bb_
FNDA:0,_RNCNCNvXse_NtCs4hEEQusrzoB_23sweet_grass_integration6anchorNtB9_20TarpcAnchoringClientNtB9_15AnchoringClient11get_anchors0s_0Bb_
FNDA:0,_RNCNCNvXse_NtCs4hEEQusrzoB_23sweet_grass_integration6anchorNtB9_20TarpcAnchoringClientNtB9_15AnchoringClient6anchor00Bb_
FNDA:0,_RNCNCNvXse_NtCs4hEEQusrzoB_23sweet_grass_integration6anchorNtB9_20TarpcAnchoringClientNtB9_15AnchoringClient6anchor0s0_0Bb_
FNDA:0,_RNCNCNvXse_NtCs4hEEQusrzoB_23sweet_grass_integration6anchorNtB9_20TarpcAnchoringClientNtB9_15AnchoringClient6anchor0s_0Bb_
FNDA:0,_RNCNCNvXse_NtCs4hEEQusrzoB_23sweet_grass_integration6anchorNtB9_20TarpcAnchoringClientNtB9_15AnchoringClient6health00Bb_
FNDA:0,_RNCNCNvXse_NtCs4hEEQusrzoB_23sweet_grass_integration6anchorNtB9_20TarpcAnchoringClientNtB9_15AnchoringClient6verify00Bb_
FNDA:0,_RNCNCNvXse_NtCs4hEEQusrzoB_23sweet_grass_integration6anchorNtB9_20TarpcAnchoringClientNtB9_15AnchoringClient6verify0s_0Bb_
FNDA:0,_RNCNvMs8_NtCs4hEEQusrzoB_23sweet_grass_integration6anchorINtB7_18AnchoringRpcClientpE11get_anchors0B9_
FNDA:0,_RNCNvMs8_NtCs4hEEQusrzoB_23sweet_grass_integration6anchorINtB7_18AnchoringRpcClientpE6anchor0B9_
FNDA:0,_RNCNvMs8_NtCs4hEEQusrzoB_23sweet_grass_integration6anchorINtB7_18AnchoringRpcClientpE6health0B9_
FNDA:0,_RNCNvMs8_NtCs4hEEQusrzoB_23sweet_grass_integration6anchorINtB7_18AnchoringRpcClientpE6verify0B9_
FNDA:0,_RNCNvMs_NtCs4hEEQusrzoB_23sweet_grass_integration6anchorNtB6_20TarpcAnchoringClient11from_primal0B8_
FNDA:0,_RNCNvMs_NtCs4hEEQusrzoB_23sweet_grass_integration6anchorNtB6_20TarpcAnchoringClient7connect0B8_
FNDA:0,_RNvMs_NtCs4hEEQusrzoB_23sweet_grass_integration6anchorNtB4_20TarpcAnchoringClient11from_primal
FNDA:0,_RNvMs_NtCs4hEEQusrzoB_23sweet_grass_integration6anchorNtB4_20TarpcAnchoringClient7connect
FNDA:0,_RNvXININtCs4hEEQusrzoB_23sweet_grass_integration6anchors7_0pEINtB5_18AnchoringRpcClientpEINtNtCs9sjCchOt1K7_4core7convert4FrompE4fromB7_
FNDA:0,_RNvXs_NtNtCs4hEEQusrzoB_23sweet_grass_integration6anchor7testingNtB4_19MockAnchoringClientNtNtCs9sjCchOt1K7_4core7default7Default7default
FNDA:0,_RNvXse_NtCs4hEEQusrzoB_23sweet_grass_integration6anchorNtB5_20TarpcAnchoringClientNtB5_15AnchoringClient11get_anchors
FNDA:0,_RNvXse_NtCs4hEEQusrzoB_23sweet_grass_integration6anchorNtB5_20TarpcAnchoringClientNtB5_15AnchoringClient6anchor
FNDA:0,_RNvXse_NtCs4hEEQusrzoB_23sweet_grass_integration6anchorNtB5_20TarpcAnchoringClientNtB5_15AnchoringClient6health
FNDA:0,_RNvXse_NtCs4hEEQusrzoB_23sweet_grass_integration6anchorNtB5_20TarpcAnchoringClientNtB5_15AnchoringClient6verify
FNDA:0,_RNvYpNtNtCs4hEEQusrzoB_23sweet_grass_integration6anchor12AnchoringRpc5serveB7_
FNDA:1,_RNvMNtCs4hEEQusrzoB_23sweet_grass_integration6anchorNtB2_13AnchorManager11get_anchors
FNDA:5,_RNvMNtCs4hEEQusrzoB_23sweet_grass_integration6anchorNtB2_13AnchorManager11with_client
FNDA:2,_RNvMNtCs4hEEQusrzoB_23sweet_grass_integration6anchorNtB2_13AnchorManager12anchor_by_id
FNDA:1,_RNvMNtCs4hEEQusrzoB_23sweet_grass_integration6anchorNtB2_13AnchorManager6client
FNDA:1,_RNvMNtCs4hEEQusrzoB_23sweet_grass_integration6anchorNtB2_13AnchorManager6verify
FNDA:1,_RNvNtCs4hEEQusrzoB_23sweet_grass_integration6anchor29create_anchoring_client_async
FNDA:1,_RNvMNtNtCs4hEEQusrzoB_23sweet_grass_integration6anchor7testingNtB2_19MockAnchoringClient11with_health
FNDA:14,_RNvMNtNtCs4hEEQusrzoB_23sweet_grass_integration6anchor7testingNtB2_19MockAnchoringClient3new
FNDA:3,_RNvXs0_NtNtCs4hEEQusrzoB_23sweet_grass_integration6anchor7testingNtB5_19MockAnchoringClientNtB7_15AnchoringClient11get_anchors
FNDA:9,_RNvXs0_NtNtCs4hEEQusrzoB_23sweet_grass_integration6anchor7testingNtB5_19MockAnchoringClientNtB7_15AnchoringClient6anchor
FNDA:4,_RNvXs0_NtNtCs4hEEQusrzoB_23sweet_grass_integration6anchor7testingNtB5_19MockAnchoringClientNtB7_15AnchoringClient6health
FNDA:4,_RNvXs0_NtNtCs4hEEQusrzoB_23sweet_grass_integration6anchor7testingNtB5_19MockAnchoringClientNtB7_15AnchoringClient6verify
FNDA:5,_RNvNtNtCs4hEEQusrzoB_23sweet_grass_integration6anchor5tests17create_test_braid
FNDA:5,_RNvNtNtCs4hEEQusrzoB_23sweet_grass_integration6anchor5tests27create_test_braid_with_hash
FNDA:1,_RNvNtNtCs4hEEQusrzoB_23sweet_grass_integration6anchor5testss_23test_mock_client_anchor
FNDA:1,_RNvNtNtCs4hEEQusrzoB_23sweet_grass_integration6anchor5testss_23test_mock_client_health
FNDA:1,_RNvNtNtCs4hEEQusrzoB_23sweet_grass_integration6anchor5testss_23test_mock_client_verify
FNDA:1,_RNvNtNtCs4hEEQusrzoB_23sweet_grass_integration6anchor5testss_26test_anchor_info_structure
FNDA:1,_RNvNtNtCs4hEEQusrzoB_23sweet_grass_integration6anchor5testss_26test_anchor_manager_verify
FNDA:1,_RNvNtNtCs4hEEQusrzoB_23sweet_grass_integration6anchor5testss_28test_mock_client_get_anchors
FNDA:1,_RNvNtNtCs4hEEQusrzoB_23sweet_grass_integration6anchor5testss_29test_anchor_receipt_structure
FNDA:1,_RNvNtNtCs4hEEQusrzoB_23sweet_grass_integration6anchor5testss_31test_anchor_manager_get_anchors
FNDA:1,_RNvNtNtCs4hEEQusrzoB_23sweet_grass_integration6anchor5testss_31test_anchor_manager_with_client
FNDA:1,_RNvNtNtCs4hEEQusrzoB_23sweet_grass_integration6anchor5testss_32test_anchor_manager_anchor_by_id
FNDA:1,_RNvNtNtCs4hEEQusrzoB_23sweet_grass_integration6anchor5testss_33test_mock_client_verify_not_found
FNDA:1,_RNvNtNtCs4hEEQusrzoB_23sweet_grass_integration6anchor5testss_34test_create_anchoring_client_async
FNDA:1,_RNvNtNtCs4hEEQusrzoB_23sweet_grass_integration6anchor5testss_42test_anchor_manager_anchor_by_id_not_found
FNDA:1,_RNCNCNCNvMNtCs4hEEQusrzoB_23sweet_grass_integration6anchorNtB8_13AnchorManager12anchor_by_id000Ba_
FNDA:1,_RNCNvMNtCs4hEEQusrzoB_23sweet_grass_integration6anchorNtB4_13AnchorManager11get_anchors0B6_
FNDA:2,_RNCNvMNtCs4hEEQusrzoB_23sweet_grass_integration6anchorNtB4_13AnchorManager12anchor_by_id0B6_
FNDA:1,_RNCNvMNtCs4hEEQusrzoB_23sweet_grass_integration6anchorNtB4_13AnchorManager6verify0B6_
FNDA:1,_RNCNvNtCs4hEEQusrzoB_23sweet_grass_integration6anchor29create_anchoring_client_async0B5_
FNDA:3,_RNCNCNvXs0_NtNtCs4hEEQusrzoB_23sweet_grass_integration6anchor7testingNtB9_19MockAnchoringClientNtBb_15AnchoringClient11get_anchors00Bd_
FNDA:3,_RNCNCNvXs0_NtNtCs4hEEQusrzoB_23sweet_grass_integration6anchor7testingNtB9_19MockAnchoringClientNtBb_15AnchoringClient6verify00Bd_
FNF:72
FNH:48
DA:89,0
DA:90,0
DA:91,0
DA:92,0
DA:93,0
DA:94,0
DA:95,0
DA:96,0
DA:102,0
DA:113,0
DA:117,5
DA:118,5
DA:119,5
DA:120,5
DA:121,5
DA:122,5
DA:123,5
DA:124,5
DA:125,5
DA:126,5
DA:127,5
DA:132,2
DA:134,1
DA:135,1
DA:136,1
DA:139,2
DA:143,1
DA:144,1
DA:145,1
DA:149,1
DA:150,1
DA:151,1
DA:156,1
DA:157,1
DA:158,1
DA:168,0
DA:195,0
DA:203,0
DA:209,0
DA:212,0
DA:213,0
DA:214,0
DA:215,0
DA:216,0
DA:217,0
DA:222,0
DA:223,0
DA:224,0
DA:225,0
DA:226,0
DA:227,0
DA:228,0
DA:229,0
DA:230,0
DA:231,0
DA:232,0
DA:233,0
DA:234,0
DA:235,0
DA:236,0
DA:237,0
DA:239,0
DA:240,0
DA:241,0
DA:242,0
DA:243,0
DA:244,0
DA:245,0
DA:246,0
DA:247,0
DA:248,0
DA:249,0
DA:250,0
DA:251,0
DA:252,0
DA:253,0
DA:254,0
DA:255,0
DA:257,0
DA:258,0
DA:259,0
DA:260,0
DA:261,0
DA:262,0
DA:263,0
DA:264,0
DA:265,0
DA:266,0
DA:267,0
DA:268,0
DA:269,0
DA:271,0
DA:272,0
DA:273,0
DA:274,0
DA:275,0
DA:276,0
DA:277,0
DA:283,1
DA:284,1
DA:285,1
DA:286,1
DA:287,1
DA:288,1
DA:289,1
DA:290,1
DA:291,1
DA:292,1
DA:293,1
DA:294,1
DA:295,1
DA:296,1
DA:330,14
DA:331,14
DA:332,14
DA:333,14
DA:334,14
DA:335,14
DA:340,1
DA:341,1
DA:342,1
DA:343,1
DA:347,0
DA:348,0
DA:349,0
DA:354,9
DA:355,9
DA:356,9
DA:357,9
DA:358,9
DA:359,9
DA:360,9
DA:361,9
DA:362,9
DA:363,9
DA:364,9
DA:365,9
DA:366,9
DA:367,9
DA:368,9
DA:369,9
DA:370,9
DA:371,9
DA:373,4
DA:374,4
DA:375,4
DA:376,4
DA:378,3
DA:379,3
DA:380,3
DA:381,3
DA:382,3
DA:383,3
DA:384,3
DA:385,3
DA:387,4
DA:388,4
DA:389,4
DA:405,5
DA:406,5
DA:407,5
DA:408,5
DA:409,5
DA:410,5
DA:411,5
DA:412,5
DA:413,5
DA:415,5
DA:416,5
DA:417,5
DA:418,5
DA:419,5
DA:420,5
DA:421,5
DA:422,5
DA:423,5
DA:426,1
DA:427,1
DA:428,1
DA:429,1
DA:430,1
DA:431,1
DA:432,1
DA:433,1
DA:436,1
DA:437,1
DA:438,1
DA:439,1
DA:440,1
DA:441,1
DA:442,1
DA:443,1
DA:444,1
DA:445,1
DA:446,1
DA:447,1
DA:450,1
DA:451,1
DA:452,1
DA:453,1
DA:454,1
DA:455,1
DA:456,1
DA:459,1
DA:460,1
DA:461,1
DA:462,1
DA:463,1
DA:464,1
DA:465,1
DA:466,1
DA:467,1
DA:468,1
DA:469,1
DA:470,1
DA:471,1
DA:472,1
DA:473,1
DA:474,1
DA:477,1
DA:478,1
DA:479,1
DA:480,1
DA:481,1
DA:482,1
DA:483,1
DA:484,1
DA:487,1
DA:488,1
DA:489,1
DA:490,1
DA:491,1
DA:492,1
DA:493,1
DA:496,1
DA:497,1
DA:498,1
DA:499,1
DA:500,1
DA:501,1
DA:502,1
DA:503,1
DA:504,1
DA:505,1
DA:506,1
DA:507,1
DA:508,1
DA:509,1
DA:510,1
DA:513,1
DA:514,1
DA:515,1
DA:516,1
DA:517,1
DA:518,1
DA:519,1
DA:520,1
DA:521,1
DA:522,1
DA:523,1
DA:526,1
DA:527,1
DA:528,1
DA:529,1
DA:530,1
DA:531,1
DA:532,1
DA:533,1
DA:534,1
DA:535,1
DA:536,1
DA:537,1
DA:538,1
DA:539,1
DA:540,1
DA:541,1
DA:544,1
DA:545,1
DA:546,1
DA:547,1
DA:548,1
DA:549,1
DA:550,1
DA:551,1
DA:552,1
DA:553,1
DA:554,1
DA:555,1
DA:556,1
DA:557,1
DA:558,1
DA:559,1
DA:560,1
DA:563,1
DA:564,1
DA:565,1
DA:566,1
DA:567,1
DA:568,1
DA:569,1
DA:570,1
DA:571,1
DA:572,1
DA:573,1
DA:574,1
DA:577,1
DA:578,1
DA:579,1
DA:580,1
DA:581,1
DA:582,1
DA:583,1
DA:584,1
DA:585,1
DA:586,1
DA:587,1
DA:588,1
DA:591,1
DA:592,1
DA:593,1
DA:594,1
DA:595,1
DA:596,1
DA:597,1
DA:598,1
DA:599,1
DA:600,1
DA:601,1
DA:602,1
DA:603,1
DA:604,1
DA:605,1
DA:606,1
DA:607,1
DA:608,1
DA:609,1
DA:610,1
DA:611,1
DA:612,1
DA:613,1
DA:614,1
BRF:0
BRH:0
LF:490
LH:400
end_of_record
SF:/home/strandgate/Development/ecoPrimals/phase2/sweetGrass/crates/sweet-grass-integration/src/discovery.rs
FN:733,_RNCNCNvNtNtCs4hEEQusrzoB_23sweet_grass_integration9discovery5testss_36test_concurrent_discovery_operations00B9_
FN:610,_RNCNvNtNtCs4hEEQusrzoB_23sweet_grass_integration9discovery5testss_15test_unregister0B7_
FN:564,_RNCNvNtNtCs4hEEQusrzoB_23sweet_grass_integration9discovery5testss_21test_cached_discovery0B7_
FN:719,_RNCNvNtNtCs4hEEQusrzoB_23sweet_grass_integration9discovery5testss_25test_primal_tarpc_address0B7_
FN:587,_RNCNvNtNtCs4hEEQusrzoB_23sweet_grass_integration9discovery5testss_27test_local_discovery_health0B7_
FN:648,_RNCNvNtNtCs4hEEQusrzoB_23sweet_grass_integration9discovery5testss_28test_cached_discovery_health0B7_
FN:678,_RNCNvNtNtCs4hEEQusrzoB_23sweet_grass_integration9discovery5testss_28test_discovery_update_primal0B7_
FN:552,_RNCNvNtNtCs4hEEQusrzoB_23sweet_grass_integration9discovery5testss_29test_discovered_primal_offers0B7_
FN:536,_RNCNvNtNtCs4hEEQusrzoB_23sweet_grass_integration9discovery5testss_29test_local_discovery_find_one0B7_
FN:637,_RNCNvNtNtCs4hEEQusrzoB_23sweet_grass_integration9discovery5testss_30test_cached_discovery_find_one0B7_
FN:704,_RNCNvNtNtCs4hEEQusrzoB_23sweet_grass_integration9discovery5testss_32test_discovery_custom_capability0B7_
FN:671,_RNCNvNtNtCs4hEEQusrzoB_23sweet_grass_integration9discovery5testss_33test_discovery_empty_capabilities0B7_
FN:655,_RNCNvNtNtCs4hEEQusrzoB_23sweet_grass_integration9discovery5testss_33test_primal_with_all_capabilities0B7_
FN:726,_RNCNvNtNtCs4hEEQusrzoB_23sweet_grass_integration9discovery5testss_36test_concurrent_discovery_operations0B7_
FN:593,_RNCNvNtNtCs4hEEQusrzoB_23sweet_grass_integration9discovery5testss_37test_multiple_primals_same_capability0B7_
FN:511,_RNCNvNtNtCs4hEEQusrzoB_23sweet_grass_integration9discovery5testss_38test_local_discovery_register_and_find0B7_
FN:495,_RNvNtNtCs4hEEQusrzoB_23sweet_grass_integration9discovery5tests16make_test_primal
FN:610,_RNvNtNtCs4hEEQusrzoB_23sweet_grass_integration9discovery5testss_15test_unregister
FN:564,_RNvNtNtCs4hEEQusrzoB_23sweet_grass_integration9discovery5testss_21test_cached_discovery
FN:719,_RNvNtNtCs4hEEQusrzoB_23sweet_grass_integration9discovery5testss_25test_primal_tarpc_address
FN:587,_RNvNtNtCs4hEEQusrzoB_23sweet_grass_integration9discovery5testss_27test_local_discovery_health
FN:648,_RNvNtNtCs4hEEQusrzoB_23sweet_grass_integration9discovery5testss_28test_cached_discovery_health
FN:678,_RNvNtNtCs4hEEQusrzoB_23sweet_grass_integration9discovery5testss_28test_discovery_update_primal
FN:552,_RNvNtNtCs4hEEQusrzoB_23sweet_grass_integration9discovery5testss_29test_discovered_primal_offers
FN:536,_RNvNtNtCs4hEEQusrzoB_23sweet_grass_integration9discovery5testss_29test_local_discovery_find_one
FN:637,_RNvNtNtCs4hEEQusrzoB_23sweet_grass_integration9discovery5testss_30test_cached_discovery_find_one
FN:704,_RNvNtNtCs4hEEQusrzoB_23sweet_grass_integration9discovery5testss_32test_discovery_custom_capability
FN:671,_RNvNtNtCs4hEEQusrzoB_23sweet_grass_integration9discovery5testss_33test_discovery_empty_capabilities
FN:655,_RNvNtNtCs4hEEQusrzoB_23sweet_grass_integration9discovery5testss_33test_primal_with_all_capabilities
FN:726,_RNvNtNtCs4hEEQusrzoB_23sweet_grass_integration9discovery5testss_36test_concurrent_discovery_operations
FN:593,_RNvNtNtCs4hEEQusrzoB_23sweet_grass_integration9discovery5testss_37test_multiple_primals_same_capability
FN:511,_RNvNtNtCs4hEEQusrzoB_23sweet_grass_integration9discovery5testss_38test_local_discovery_register_and_find
FN:280,_RINvMsd_NtCs4hEEQusrzoB_23sweet_grass_integration9discoveryNtB6_17SongbirdRpcClient3newpEB8_
FN:358,_RNCNCNvMs3_NtCs4hEEQusrzoB_23sweet_grass_integration9discoveryNtB9_17SongbirdDiscovery7connect00Bb_
FN:381,_RNCNCNvMs3_NtCs4hEEQusrzoB_23sweet_grass_integration9discoveryNtB9_17SongbirdDiscovery8from_env00Bb_
FN:213,_RNCNvMs1_NtCs4hEEQusrzoB_23sweet_grass_integration9discoveryNtB7_15CachedDiscovery10invalidate0B9_
FN:220,_RNCNvMs1_NtCs4hEEQusrzoB_23sweet_grass_integration9discoveryNtB7_15CachedDiscovery14invalidate_all0B9_
FN:327,_RNCNvMs2_NtCs4hEEQusrzoB_23sweet_grass_integration9discoveryNtB7_11ServiceInfo9to_primal0B9_
FN:391,_RNCNvMs3_NtCs4hEEQusrzoB_23sweet_grass_integration9discoveryNtB7_17SongbirdDiscovery17register_fallback0B9_
FN:354,_RNCNvMs3_NtCs4hEEQusrzoB_23sweet_grass_integration9discoveryNtB7_17SongbirdDiscovery7connect0B9_
FN:380,_RNCNvMs3_NtCs4hEEQusrzoB_23sweet_grass_integration9discoveryNtB7_17SongbirdDiscovery8from_env0B9_
FN:149,_RNCNvMs_NtCs4hEEQusrzoB_23sweet_grass_integration9discoveryNtB6_14LocalDiscovery3all0B8_
FN:280,_RNCNvMsf_NtCs4hEEQusrzoB_23sweet_grass_integration9discoveryINtB7_17SongbirdRpcClientpE16register_service0B9_
FN:280,_RNCNvMsf_NtCs4hEEQusrzoB_23sweet_grass_integration9discoveryINtB7_17SongbirdRpcClientpE17discover_services0B9_
FN:280,_RNCNvMsf_NtCs4hEEQusrzoB_23sweet_grass_integration9discoveryINtB7_17SongbirdRpcClientpE18unregister_service0B9_
FN:280,_RNCNvMsf_NtCs4hEEQusrzoB_23sweet_grass_integration9discoveryINtB7_17SongbirdRpcClientpE6health0B9_
FN:477,_RNCNvNtCs4hEEQusrzoB_23sweet_grass_integration9discovery16create_discovery0B5_
FN:77,_RNvMNtCs4hEEQusrzoB_23sweet_grass_integration9discoveryNtB2_16DiscoveredPrimal17preferred_address
FN:213,_RNvMs1_NtCs4hEEQusrzoB_23sweet_grass_integration9discoveryNtB5_15CachedDiscovery10invalidate
FN:220,_RNvMs1_NtCs4hEEQusrzoB_23sweet_grass_integration9discoveryNtB5_15CachedDiscovery14invalidate_all
FN:320,_RNvMs2_NtCs4hEEQusrzoB_23sweet_grass_integration9discoveryNtB5_11ServiceInfo9to_primal
FN:391,_RNvMs3_NtCs4hEEQusrzoB_23sweet_grass_integration9discoveryNtB5_17SongbirdDiscovery17register_fallback
FN:354,_RNvMs3_NtCs4hEEQusrzoB_23sweet_grass_integration9discoveryNtB5_17SongbirdDiscovery7connect
FN:380,_RNvMs3_NtCs4hEEQusrzoB_23sweet_grass_integration9discoveryNtB5_17SongbirdDiscovery8from_env
FN:149,_RNvMs_NtCs4hEEQusrzoB_23sweet_grass_integration9discoveryNtB4_14LocalDiscovery3all
FN:477,_RNvNtCs4hEEQusrzoB_23sweet_grass_integration9discovery16create_discovery
FN:280,_RNvXININtCs4hEEQusrzoB_23sweet_grass_integration9discoveryse_0pEINtB5_17SongbirdRpcClientpEINtNtCs9sjCchOt1K7_4core7convert4FrompE4fromB7_
FN:156,_RNvXs0_NtCs4hEEQusrzoB_23sweet_grass_integration9discoveryNtB5_14LocalDiscoveryNtNtCs9sjCchOt1K7_4core7default7Default7default
FN:266,_RNvXsa_NtCs4hEEQusrzoB_23sweet_grass_integration9discoveryNtB5_15CachedDiscoveryNtB5_15PrimalDiscovery8announce
FN:401,_RNvXsn_NtCs4hEEQusrzoB_23sweet_grass_integration9discoveryNtB5_17SongbirdDiscoveryNtB5_15PrimalDiscovery18find_by_capability
FN:465,_RNvXsn_NtCs4hEEQusrzoB_23sweet_grass_integration9discoveryNtB5_17SongbirdDiscoveryNtB5_15PrimalDiscovery6health
FN:430,_RNvXsn_NtCs4hEEQusrzoB_23sweet_grass_integration9discoveryNtB5_17SongbirdDiscoveryNtB5_15PrimalDiscovery8announce
FN:280,_RNvYpNtNtCs4hEEQusrzoB_23sweet_grass_integration9discovery11SongbirdRpc5serveB7_
FN:71,_RNvMNtCs4hEEQusrzoB_23sweet_grass_integration9discoveryNtB2_16DiscoveredPrimal6offers
FN:203,_RNvMs1_NtCs4hEEQusrzoB_23sweet_grass_integration9discoveryNtB5_15CachedDiscovery3new
FN:143,_RNvMs_NtCs4hEEQusrzoB_23sweet_grass_integration9discoveryNtB4_14LocalDiscovery10unregister
FN:130,_RNvMs_NtCs4hEEQusrzoB_23sweet_grass_integration9discoveryNtB4_14LocalDiscovery3new
FN:137,_RNvMs_NtCs4hEEQusrzoB_23sweet_grass_integration9discoveryNtB4_14LocalDiscovery8register
FN:166,_RNvXs9_NtCs4hEEQusrzoB_23sweet_grass_integration9discoveryNtB5_14LocalDiscoveryNtB5_15PrimalDiscovery18find_by_capability
FN:182,_RNvXs9_NtCs4hEEQusrzoB_23sweet_grass_integration9discoveryNtB5_14LocalDiscoveryNtB5_15PrimalDiscovery6health
FN:177,_RNvXs9_NtCs4hEEQusrzoB_23sweet_grass_integration9discoveryNtB5_14LocalDiscoveryNtB5_15PrimalDiscovery8announce
FN:231,_RNvXsa_NtCs4hEEQusrzoB_23sweet_grass_integration9discoveryNtB5_15CachedDiscoveryNtB5_15PrimalDiscovery18find_by_capability
FN:270,_RNvXsa_NtCs4hEEQusrzoB_23sweet_grass_integration9discoveryNtB5_15CachedDiscoveryNtB5_15PrimalDiscovery6health
FN:242,_RNCNCNCNvXsa_NtCs4hEEQusrzoB_23sweet_grass_integration9discoveryNtBb_15CachedDiscoveryNtBb_15PrimalDiscovery18find_by_capability000Bd_
FN:170,_RNCNCNvXs9_NtCs4hEEQusrzoB_23sweet_grass_integration9discoveryNtB9_14LocalDiscoveryNtB9_15PrimalDiscovery18find_by_capability00Bb_
FN:239,_RNCNCNvXsa_NtCs4hEEQusrzoB_23sweet_grass_integration9discoveryNtB9_15CachedDiscoveryNtB9_15PrimalDiscovery18find_by_capability00Bb_
FN:103,_RNCNCNvYNtNtCs4hEEQusrzoB_23sweet_grass_integration9discovery14LocalDiscoveryNtB8_15PrimalDiscovery8find_one00Ba_
FN:104,_RNCNCNvYNtNtCs4hEEQusrzoB_23sweet_grass_integration9discovery14LocalDiscoveryNtB8_15PrimalDiscovery8find_one0s_0Ba_
FN:103,_RNCNCNvYNtNtCs4hEEQusrzoB_23sweet_grass_integration9discovery15CachedDiscoveryNtB8_15PrimalDiscovery8find_one00Ba_
FN:104,_RNCNCNvYNtNtCs4hEEQusrzoB_23sweet_grass_integration9discovery15CachedDiscoveryNtB8_15PrimalDiscovery8find_one0s_0Ba_
FN:143,_RNCNvMs_NtCs4hEEQusrzoB_23sweet_grass_integration9discoveryNtB6_14LocalDiscovery10unregister0B8_
FN:137,_RNCNvMs_NtCs4hEEQusrzoB_23sweet_grass_integration9discoveryNtB6_14LocalDiscovery8register0B8_
FN:99,_RNvYNtNtCs4hEEQusrzoB_23sweet_grass_integration9discovery14LocalDiscoveryNtB4_15PrimalDiscovery8find_oneB6_
FN:99,_RNvYNtNtCs4hEEQusrzoB_23sweet_grass_integration9discovery15CachedDiscoveryNtB4_15PrimalDiscovery8find_oneB6_
FNDA:10,_RNCNCNvNtNtCs4hEEQusrzoB_23sweet_grass_integration9discovery5testss_36test_concurrent_discovery_operations00B9_
FNDA:1,_RNCNvNtNtCs4hEEQusrzoB_23sweet_grass_integration9discovery5testss_15test_unregister0B7_
FNDA:1,_RNCNvNtNtCs4hEEQusrzoB_23sweet_grass_integration9discovery5testss_21test_cached_discovery0B7_
FNDA:1,_RNCNvNtNtCs4hEEQusrzoB_23sweet_grass_integration9discovery5testss_25test_primal_tarpc_address0B7_
FNDA:1,_RNCNvNtNtCs4hEEQusrzoB_23sweet_grass_integration9discovery5testss_27test_local_discovery_health0B7_
FNDA:1,_RNCNvNtNtCs4hEEQusrzoB_23sweet_grass_integration9discovery5testss_28test_cached_discovery_health0B7_
FNDA:1,_RNCNvNtNtCs4hEEQusrzoB_23sweet_grass_integration9discovery5testss_28test_discovery_update_primal0B7_
FNDA:1,_RNCNvNtNtCs4hEEQusrzoB_23sweet_grass_integration9discovery5testss_29test_discovered_primal_offers0B7_
FNDA:1,_RNCNvNtNtCs4hEEQusrzoB_23sweet_grass_integration9discovery5testss_29test_local_discovery_find_one0B7_
FNDA:1,_RNCNvNtNtCs4hEEQusrzoB_23sweet_grass_integration9discovery5testss_30test_cached_discovery_find_one0B7_
FNDA:1,_RNCNvNtNtCs4hEEQusrzoB_23sweet_grass_integration9discovery5testss_32test_discovery_custom_capability0B7_
FNDA:1,_RNCNvNtNtCs4hEEQusrzoB_23sweet_grass_integration9discovery5testss_33test_discovery_empty_capabilities0B7_
FNDA:1,_RNCNvNtNtCs4hEEQusrzoB_23sweet_grass_integration9discovery5testss_33test_primal_with_all_capabilities0B7_
FNDA:1,_RNCNvNtNtCs4hEEQusrzoB_23sweet_grass_integration9discovery5testss_36test_concurrent_discovery_operations0B7_
FNDA:1,_RNCNvNtNtCs4hEEQusrzoB_23sweet_grass_integration9discovery5testss_37test_multiple_primals_same_capability0B7_
FNDA:1,_RNCNvNtNtCs4hEEQusrzoB_23sweet_grass_integration9discovery5testss_38test_local_discovery_register_and_find0B7_
FNDA:14,_RNvNtNtCs4hEEQusrzoB_23sweet_grass_integration9discovery5tests16make_test_primal
FNDA:1,_RNvNtNtCs4hEEQusrzoB_23sweet_grass_integration9discovery5testss_15test_unregister
FNDA:1,_RNvNtNtCs4hEEQusrzoB_23sweet_grass_integration9discovery5testss_21test_cached_discovery
FNDA:1,_RNvNtNtCs4hEEQusrzoB_23sweet_grass_integration9discovery5testss_25test_primal_tarpc_address
FNDA:1,_RNvNtNtCs4hEEQusrzoB_23sweet_grass_integration9discovery5testss_27test_local_discovery_health
FNDA:1,_RNvNtNtCs4hEEQusrzoB_23sweet_grass_integration9discovery5testss_28test_cached_discovery_health
FNDA:1,_RNvNtNtCs4hEEQusrzoB_23sweet_grass_integration9discovery5testss_28test_discovery_update_primal
FNDA:1,_RNvNtNtCs4hEEQusrzoB_23sweet_grass_integration9discovery5testss_29test_discovered_primal_offers
FNDA:1,_RNvNtNtCs4hEEQusrzoB_23sweet_grass_integration9discovery5testss_29test_local_discovery_find_one
FNDA:1,_RNvNtNtCs4hEEQusrzoB_23sweet_grass_integration9discovery5testss_30test_cached_discovery_find_one
FNDA:1,_RNvNtNtCs4hEEQusrzoB_23sweet_grass_integration9discovery5testss_32test_discovery_custom_capability
FNDA:1,_RNvNtNtCs4hEEQusrzoB_23sweet_grass_integration9discovery5testss_33test_discovery_empty_capabilities
FNDA:1,_RNvNtNtCs4hEEQusrzoB_23sweet_grass_integration9discovery5testss_33test_primal_with_all_capabilities
FNDA:1,_RNvNtNtCs4hEEQusrzoB_23sweet_grass_integration9discovery5testss_36test_concurrent_discovery_operations
FNDA:1,_RNvNtNtCs4hEEQusrzoB_23sweet_grass_integration9discovery5testss_37test_multiple_primals_same_capability
FNDA:1,_RNvNtNtCs4hEEQusrzoB_23sweet_grass_integration9discovery5testss_38test_local_discovery_register_and_find
FNDA:0,_RINvMsd_NtCs4hEEQusrzoB_23sweet_grass_integration9discoveryNtB6_17SongbirdRpcClient3newpEB8_
FNDA:0,_RNCNCNvMs3_NtCs4hEEQusrzoB_23sweet_grass_integration9discoveryNtB9_17SongbirdDiscovery7connect00Bb_
FNDA:0,_RNCNCNvMs3_NtCs4hEEQusrzoB_23sweet_grass_integration9discoveryNtB9_17SongbirdDiscovery8from_env00Bb_
FNDA:0,_RNCNvMs1_NtCs4hEEQusrzoB_23sweet_grass_integration9discoveryNtB7_15CachedDiscovery10invalidate0B9_
FNDA:0,_RNCNvMs1_NtCs4hEEQusrzoB_23sweet_grass_integration9discoveryNtB7_15CachedDiscovery14invalidate_all0B9_
FNDA:0,_RNCNvMs2_NtCs4hEEQusrzoB_23sweet_grass_integration9discoveryNtB7_11ServiceInfo9to_primal0B9_
FNDA:0,_RNCNvMs3_NtCs4hEEQusrzoB_23sweet_grass_integration9discoveryNtB7_17SongbirdDiscovery17register_fallback0B9_
FNDA:0,_RNCNvMs3_NtCs4hEEQusrzoB_23sweet_grass_integration9discoveryNtB7_17SongbirdDiscovery7connect0B9_
FNDA:0,_RNCNvMs3_NtCs4hEEQusrzoB_23sweet_grass_integration9discoveryNtB7_17SongbirdDiscovery8from_env0B9_
FNDA:0,_RNCNvMs_NtCs4hEEQusrzoB_23sweet_grass_integration9discoveryNtB6_14LocalDiscovery3all0B8_
FNDA:0,_RNCNvMsf_NtCs4hEEQusrzoB_23sweet_grass_integration9discoveryINtB7_17SongbirdRpcClientpE16register_service0B9_
FNDA:0,_RNCNvMsf_NtCs4hEEQusrzoB_23sweet_grass_integration9discoveryINtB7_17SongbirdRpcClientpE17discover_services0B9_
FNDA:0,_RNCNvMsf_NtCs4hEEQusrzoB_23sweet_grass_integration9discoveryINtB7_17SongbirdRpcClientpE18unregister_service0B9_
FNDA:0,_RNCNvMsf_NtCs4hEEQusrzoB_23sweet_grass_integration9discoveryINtB7_17SongbirdRpcClientpE6health0B9_
FNDA:0,_RNCNvNtCs4hEEQusrzoB_23sweet_grass_integration9discovery16create_discovery0B5_
FNDA:0,_RNvMNtCs4hEEQusrzoB_23sweet_grass_integration9discoveryNtB2_16DiscoveredPrimal17preferred_address
FNDA:0,_RNvMs1_NtCs4hEEQusrzoB_23sweet_grass_integration9discoveryNtB5_15CachedDiscovery10invalidate
FNDA:0,_RNvMs1_NtCs4hEEQusrzoB_23sweet_grass_integration9discoveryNtB5_15CachedDiscovery14invalidate_all
FNDA:0,_RNvMs2_NtCs4hEEQusrzoB_23sweet_grass_integration9discoveryNtB5_11ServiceInfo9to_primal
FNDA:0,_RNvMs3_NtCs4hEEQusrzoB_23sweet_grass_integration9discoveryNtB5_17SongbirdDiscovery17register_fallback
FNDA:0,_RNvMs3_NtCs4hEEQusrzoB_23sweet_grass_integration9discoveryNtB5_17SongbirdDiscovery7connect
FNDA:0,_RNvMs3_NtCs4hEEQusrzoB_23sweet_grass_integration9discoveryNtB5_17SongbirdDiscovery8from_env
FNDA:0,_RNvMs_NtCs4hEEQusrzoB_23sweet_grass_integration9discoveryNtB4_14LocalDiscovery3all
FNDA:0,_RNvNtCs4hEEQusrzoB_23sweet_grass_integration9discovery16create_discovery
FNDA:0,_RNvXININtCs4hEEQusrzoB_23sweet_grass_integration9discoveryse_0pEINtB5_17SongbirdRpcClientpEINtNtCs9sjCchOt1K7_4core7convert4FrompE4fromB7_
FNDA:0,_RNvXs0_NtCs4hEEQusrzoB_23sweet_grass_integration9discoveryNtB5_14LocalDiscoveryNtNtCs9sjCchOt1K7_4core7default7Default7default
FNDA:0,_RNvXsa_NtCs4hEEQusrzoB_23sweet_grass_integration9discoveryNtB5_15CachedDiscoveryNtB5_15PrimalDiscovery8announce
FNDA:0,_RNvXsn_NtCs4hEEQusrzoB_23sweet_grass_integration9discoveryNtB5_17SongbirdDiscoveryNtB5_15PrimalDiscovery18find_by_capability
FNDA:0,_RNvXsn_NtCs4hEEQusrzoB_23sweet_grass_integration9discoveryNtB5_17SongbirdDiscoveryNtB5_15PrimalDiscovery6health
FNDA:0,_RNvXsn_NtCs4hEEQusrzoB_23sweet_grass_integration9discoveryNtB5_17SongbirdDiscoveryNtB5_15PrimalDiscovery8announce
FNDA:0,_RNvYpNtNtCs4hEEQusrzoB_23sweet_grass_integration9discovery11SongbirdRpc5serveB7_
FNDA:35,_RNvMNtCs4hEEQusrzoB_23sweet_grass_integration9discoveryNtB2_16DiscoveredPrimal6offers
FNDA:3,_RNvMs1_NtCs4hEEQusrzoB_23sweet_grass_integration9discoveryNtB5_15CachedDiscovery3new
FNDA:1,_RNvMs_NtCs4hEEQusrzoB_23sweet_grass_integration9discoveryNtB4_14LocalDiscovery10unregister
FNDA:17,_RNvMs_NtCs4hEEQusrzoB_23sweet_grass_integration9discoveryNtB4_14LocalDiscovery3new
FNDA:22,_RNvMs_NtCs4hEEQusrzoB_23sweet_grass_integration9discoveryNtB4_14LocalDiscovery8register
FNDA:14,_RNvXs9_NtCs4hEEQusrzoB_23sweet_grass_integration9discoveryNtB5_14LocalDiscoveryNtB5_15PrimalDiscovery18find_by_capability
FNDA:2,_RNvXs9_NtCs4hEEQusrzoB_23sweet_grass_integration9discoveryNtB5_14LocalDiscoveryNtB5_15PrimalDiscovery6health
FNDA:0,_RNvXs9_NtCs4hEEQusrzoB_23sweet_grass_integration9discoveryNtB5_14LocalDiscoveryNtB5_15PrimalDiscovery8announce
FNDA:3,_RNvXsa_NtCs4hEEQusrzoB_23sweet_grass_integration9discoveryNtB5_15CachedDiscoveryNtB5_15PrimalDiscovery18find_by_capability
FNDA:1,_RNvXsa_NtCs4hEEQusrzoB_23sweet_grass_integration9discoveryNtB5_15CachedDiscoveryNtB5_15PrimalDiscovery6health
FNDA:1,_RNCNCNCNvXsa_NtCs4hEEQusrzoB_23sweet_grass_integration9discoveryNtBb_15CachedDiscoveryNtBb_15PrimalDiscovery18find_by_capability000Bd_
FNDA:25,_RNCNCNvXs9_NtCs4hEEQusrzoB_23sweet_grass_integration9discoveryNtB9_14LocalDiscoveryNtB9_15PrimalDiscovery18find_by_capability00Bb_
FNDA:1,_RNCNCNvXsa_NtCs4hEEQusrzoB_23sweet_grass_integration9discoveryNtB9_15CachedDiscoveryNtB9_15PrimalDiscovery18find_by_capability00Bb_
FNDA:2,_RNCNCNvYNtNtCs4hEEQusrzoB_23sweet_grass_integration9discovery14LocalDiscoveryNtB8_15PrimalDiscovery8find_one00Ba_
FNDA:1,_RNCNCNvYNtNtCs4hEEQusrzoB_23sweet_grass_integration9discovery14LocalDiscoveryNtB8_15PrimalDiscovery8find_one0s_0Ba_
FNDA:1,_RNCNCNvYNtNtCs4hEEQusrzoB_23sweet_grass_integration9discovery15CachedDiscoveryNtB8_15PrimalDiscovery8find_one00Ba_
FNDA:0,_RNCNCNvYNtNtCs4hEEQusrzoB_23sweet_grass_integration9discovery15CachedDiscoveryNtB8_15PrimalDiscovery8find_one0s_0Ba_
FNDA:1,_RNCNvMs_NtCs4hEEQusrzoB_23sweet_grass_integration9discoveryNtB6_14LocalDiscovery10unregister0B8_
FNDA:22,_RNCNvMs_NtCs4hEEQusrzoB_23sweet_grass_integration9discoveryNtB6_14LocalDiscovery8register0B8_
FNDA:3,_RNvYNtNtCs4hEEQusrzoB_23sweet_grass_integration9discovery14LocalDiscoveryNtB4_15PrimalDiscovery8find_oneB6_
FNDA:1,_RNvYNtNtCs4hEEQusrzoB_23sweet_grass_integration9discovery15CachedDiscoveryNtB4_15PrimalDiscovery8find_oneB6_
FNF:76
FNH:49
DA:71,35
DA:72,35
DA:73,35
DA:77,0
DA:78,0
DA:79,0
DA:80,0
DA:81,0
DA:99,4
DA:100,4
DA:101,4
DA:102,4
DA:103,4
DA:104,4
DA:105,4
DA:130,17
DA:131,17
DA:132,17
DA:133,17
DA:134,17
DA:137,22
DA:138,22
DA:139,22
DA:140,22
DA:143,1
DA:144,1
DA:145,1
DA:146,1
DA:149,0
DA:150,0
DA:151,0
DA:152,0
DA:156,0
DA:157,0
DA:158,0
DA:166,14
DA:167,14
DA:168,14
DA:169,14
DA:170,25
DA:171,14
DA:172,14
DA:173,14
DA:174,14
DA:175,14
DA:177,0
DA:178,0
DA:179,0
DA:180,0
DA:182,2
DA:183,2
DA:184,2
DA:203,3
DA:204,3
DA:205,3
DA:206,3
DA:207,3
DA:208,3
DA:209,3
DA:213,0
DA:214,0
DA:215,0
DA:216,0
DA:220,0
DA:221,0
DA:222,0
DA:223,0
DA:231,3
DA:232,3
DA:233,3
DA:234,3
DA:235,3
DA:236,3
DA:237,3
DA:238,3
DA:239,3
DA:240,1
DA:241,1
DA:242,1
DA:243,1
DA:244,1
DA:245,3
DA:246,3
DA:247,3
DA:248,3
DA:249,3
DA:250,3
DA:251,3
DA:252,3
DA:253,3
DA:254,3
DA:255,3
DA:256,3
DA:257,3
DA:258,3
DA:259,3
DA:260,3
DA:261,3
DA:262,3
DA:263,3
DA:264,3
DA:266,0
DA:267,0
DA:268,0
DA:270,1
DA:271,1
DA:272,1
DA:280,0
DA:320,0
DA:321,0
DA:322,0
DA:323,0
DA:324,0
DA:325,0
DA:326,0
DA:327,0
DA:328,0
DA:329,0
DA:330,0
DA:331,0
DA:332,0
DA:333,0
DA:334,0
DA:335,0
DA:354,0
DA:358,0
DA:359,0
DA:360,0
DA:361,0
DA:362,0
DA:363,0
DA:365,0
DA:366,0
DA:367,0
DA:368,0
DA:369,0
DA:370,0
DA:371,0
DA:380,0
DA:381,0
DA:382,0
DA:383,0
DA:384,0
DA:385,0
DA:386,0
DA:387,0
DA:391,0
DA:392,0
DA:393,0
DA:401,0
DA:402,0
DA:403,0
DA:404,0
DA:405,0
DA:406,0
DA:407,0
DA:408,0
DA:409,0
DA:410,0
DA:411,0
DA:412,0
DA:413,0
DA:414,0
DA:415,0
DA:416,0
DA:417,0
DA:418,0
DA:419,0
DA:420,0
DA:421,0
DA:422,0
DA:423,0
DA:424,0
DA:425,0
DA:426,0
DA:427,0
DA:428,0
DA:430,0
DA:431,0
DA:432,0
DA:433,0
DA:434,0
DA:435,0
DA:436,0
DA:437,0
DA:438,0
DA:439,0
DA:440,0
DA:441,0
DA:442,0
DA:443,0
DA:444,0
DA:445,0
DA:446,0
DA:447,0
DA:448,0
DA:449,0
DA:450,0
DA:451,0
DA:452,0
DA:453,0
DA:454,0
DA:455,0
DA:456,0
DA:457,0
DA:458,0
DA:459,0
DA:460,0
DA:461,0
DA:462,0
DA:463,0
DA:465,0
DA:466,0
DA:467,0
DA:468,0
DA:469,0
DA:470,0
DA:477,0
DA:478,0
DA:479,0
DA:480,0
DA:481,0
DA:483,0
DA:484,0
DA:485,0
DA:488,0
DA:495,14
DA:496,14
DA:497,14
DA:498,14
DA:499,14
DA:500,14
DA:501,14
DA:502,14
DA:503,14
DA:504,14
DA:505,14
DA:506,14
DA:507,14
DA:508,14
DA:511,1
DA:512,1
DA:513,1
DA:514,1
DA:515,1
DA:516,1
DA:517,1
DA:518,1
DA:519,1
DA:520,1
DA:521,1
DA:522,1
DA:523,1
DA:524,1
DA:525,1
DA:526,1
DA:527,1
DA:528,1
DA:529,1
DA:530,1
DA:531,1
DA:532,1
DA:533,1
DA:536,1
DA:537,1
DA:538,1
DA:539,1
DA:540,1
DA:541,1
DA:542,1
DA:543,1
DA:544,1
DA:545,1
DA:546,1
DA:547,1
DA:548,1
DA:549,1
DA:552,1
DA:553,1
DA:554,1
DA:555,1
DA:556,1
DA:557,1
DA:558,1
DA:559,1
DA:560,1
DA:561,1
DA:564,1
DA:565,1
DA:566,1
DA:567,1
DA:568,1
DA:569,1
DA:570,1
DA:571,1
DA:572,1
DA:573,1
DA:574,1
DA:575,1
DA:576,1
DA:577,1
DA:578,1
DA:579,1
DA:580,1
DA:581,1
DA:582,1
DA:583,1
DA:584,1
DA:587,1
DA:588,1
DA:589,1
DA:590,1
DA:593,1
DA:594,1
DA:595,1
DA:596,1
DA:597,1
DA:598,1
DA:599,1
DA:600,1
DA:601,1
DA:602,1
DA:603,1
DA:604,1
DA:605,1
DA:606,1
DA:607,1
DA:610,1
DA:611,1
DA:612,1
DA:613,1
DA:614,1
DA:615,1
DA:616,1
DA:617,1
DA:618,1
DA:619,1
DA:620,1
DA:621,1
DA:622,1
DA:623,1
DA:624,1
DA:625,1
DA:626,1
DA:627,1
DA:628,1
DA:629,1
DA:630,1
DA:631,1
DA:632,1
DA:633,1
DA:634,1
DA:637,1
DA:638,1
DA:639,1
DA:640,1
DA:641,1
DA:642,1
DA:643,1
DA:644,1
DA:645,1
DA:648,1
DA:649,1
DA:650,1
DA:651,1
DA:652,1
DA:655,1
DA:656,1
DA:657,1
DA:658,1
DA:659,1
DA:660,1
DA:661,1
DA:662,1
DA:663,1
DA:664,1
DA:665,1
DA:666,1
DA:667,1
DA:668,1
DA:671,1
DA:672,1
DA:673,1
DA:674,1
DA:675,1
DA:678,1
DA:679,1
DA:680,1
DA:681,1
DA:682,1
DA:683,1
DA:684,1
DA:685,1
DA:686,1
DA:687,1
DA:688,1
DA:689,1
DA:690,1
DA:691,1
DA:692,1
DA:693,1
DA:694,1
DA:695,1
DA:696,1
DA:697,1
DA:698,1
DA:699,1
DA:700,1
DA:701,1
DA:704,1
DA:705,1
DA:706,1
DA:707,1
DA:708,1
DA:709,1
DA:710,1
DA:711,1
DA:712,1
DA:713,1
DA:714,1
DA:715,1
DA:716,1
DA:719,1
DA:720,1
DA:721,1
DA:722,1
DA:723,1
DA:726,1
DA:727,1
DA:728,1
DA:729,1
DA:730,1
DA:731,11
DA:732,10
DA:733,10
DA:734,10
DA:735,10
DA:736,10
DA:737,10
DA:738,10
DA:739,10
DA:740,10
DA:741,10
DA:742,10
DA:743,10
DA:744,10
DA:745,10
DA:746,10
DA:747,1
DA:748,1
DA:749,11
DA:750,10
DA:751,1
DA:752,1
DA:753,1
DA:754,1
DA:755,1
DA:756,1
DA:757,1
DA:758,1
DA:759,1
BRF:0
BRH:0
LF:665
LH:506
end_of_record
SF:/home/strandgate/Development/ecoPrimals/phase2/sweetGrass/crates/sweet-grass-integration/src/listener.rs
FN:329,_RNCNvNtCs4hEEQusrzoB_23sweet_grass_integration8listener34create_session_events_client_async0B5_
FN:652,_RNCNCNvNtNtCs4hEEQusrzoB_23sweet_grass_integration8listener5testss_39test_create_session_events_client_async00B9_
FN:529,_RNCNvNtNtCs4hEEQusrzoB_23sweet_grass_integration8listener5testss_23test_mock_client_health0B7_
FN:736,_RNCNvNtNtCs4hEEQusrzoB_23sweet_grass_integration8listener5testss_24test_mock_client_default0B7_
FN:543,_RNCNvNtNtCs4hEEQusrzoB_23sweet_grass_integration8listener5testss_26test_mock_client_subscribe0B7_
FN:594,_RNCNvNtNtCs4hEEQusrzoB_23sweet_grass_integration8listener5testss_28test_mock_client_get_session0B7_
FN:672,_RNCNvNtNtCs4hEEQusrzoB_23sweet_grass_integration8listener5testss_28test_mock_event_stream_close0B7_
FN:536,_RNCNvNtNtCs4hEEQusrzoB_23sweet_grass_integration8listener5testss_33test_mock_client_health_unhealthy0B7_
FN:620,_RNCNvNtNtCs4hEEQusrzoB_23sweet_grass_integration8listener5testss_34test_mock_client_multiple_sessions0B7_
FN:612,_RNCNvNtNtCs4hEEQusrzoB_23sweet_grass_integration8listener5testss_38test_mock_client_get_session_not_found0B7_
FN:646,_RNCNvNtNtCs4hEEQusrzoB_23sweet_grass_integration8listener5testss_39test_create_session_events_client_async0B7_
FN:568,_RNCNvNtNtCs4hEEQusrzoB_23sweet_grass_integration8listener5testss_42test_mock_client_subscribe_multiple_events0B7_
FN:103,_RINvMNtCs4hEEQusrzoB_23sweet_grass_integration8listenerNtB3_12EventHandler3newpEB5_
FN:213,_RINvMs9_NtCs4hEEQusrzoB_23sweet_grass_integration8listenerNtB6_22SessionEventsRpcClient3newpEB8_
FN:111,_RNCINvMNtCs4hEEQusrzoB_23sweet_grass_integration8listenerNtB5_12EventHandler3newpE0B7_
FN:117,_RNCNCNCINvMNtCs4hEEQusrzoB_23sweet_grass_integration8listenerNtB9_12EventHandler3newpE000Bb_
FN:244,_RNCNCNCNvMs_NtCs4hEEQusrzoB_23sweet_grass_integration8listenerNtBa_24TarpcSessionEventsClient7connect000Bc_
FN:255,_RNCNCNvMs_NtCs4hEEQusrzoB_23sweet_grass_integration8listenerNtB8_24TarpcSessionEventsClient11from_primal00Ba_
FN:286,_RNCNCNvXsh_NtCs4hEEQusrzoB_23sweet_grass_integration8listenerNtB9_24TarpcSessionEventsClientNtB9_19SessionEventsClient11get_session00Bb_
FN:292,_RNCNCNvXsh_NtCs4hEEQusrzoB_23sweet_grass_integration8listenerNtB9_24TarpcSessionEventsClientNtB9_19SessionEventsClient11get_session0s_0Bb_
FN:303,_RNCNCNvXsh_NtCs4hEEQusrzoB_23sweet_grass_integration8listenerNtB9_24TarpcSessionEventsClientNtB9_19SessionEventsClient6health00Bb_
FN:270,_RNCNCNvXsh_NtCs4hEEQusrzoB_23sweet_grass_integration8listenerNtB9_24TarpcSessionEventsClientNtB9_19SessionEventsClient9subscribe00Bb_
FN:274,_RNCNCNvXsh_NtCs4hEEQusrzoB_23sweet_grass_integration8listenerNtB9_24TarpcSessionEventsClientNtB9_19SessionEventsClient9subscribe0s_0Bb_
FN:165,_RNCNvMNtCs4hEEQusrzoB_23sweet_grass_integration8listenerNtB4_12EventHandler13process_event0B6_
FN:185,_RNCNvMNtCs4hEEQusrzoB_23sweet_grass_integration8listenerNtB4_12EventHandler18compress_and_store0B6_
FN:150,_RNCNvMNtCs4hEEQusrzoB_23sweet_grass_integration8listenerNtB4_12EventHandler5start0B6_
FN:254,_RNCNvMs_NtCs4hEEQusrzoB_23sweet_grass_integration8listenerNtB6_24TarpcSessionEventsClient11from_primal0B8_
FN:236,_RNCNvMs_NtCs4hEEQusrzoB_23sweet_grass_integration8listenerNtB6_24TarpcSessionEventsClient7connect0B8_
FN:213,_RNCNvMsb_NtCs4hEEQusrzoB_23sweet_grass_integration8listenerINtB7_22SessionEventsRpcClientpE11get_session0B9_
FN:213,_RNCNvMsb_NtCs4hEEQusrzoB_23sweet_grass_integration8listenerINtB7_22SessionEventsRpcClientpE6health0B9_
FN:213,_RNCNvMsb_NtCs4hEEQusrzoB_23sweet_grass_integration8listenerINtB7_22SessionEventsRpcClientpE9subscribe0B9_
FN:319,_RNCNvXsi_NtCs4hEEQusrzoB_23sweet_grass_integration8listenerNtB7_16TarpcEventStreamNtB7_18SessionEventStream5close0B9_
FN:133,_RNvMNtCs4hEEQusrzoB_23sweet_grass_integration8listenerNtB2_12EventHandler11with_client
FN:165,_RNvMNtCs4hEEQusrzoB_23sweet_grass_integration8listenerNtB2_12EventHandler13process_event
FN:185,_RNvMNtCs4hEEQusrzoB_23sweet_grass_integration8listenerNtB2_12EventHandler18compress_and_store
FN:150,_RNvMNtCs4hEEQusrzoB_23sweet_grass_integration8listenerNtB2_12EventHandler5start
FN:201,_RNvMNtCs4hEEQusrzoB_23sweet_grass_integration8listenerNtB2_12EventHandler6client
FN:254,_RNvMs_NtCs4hEEQusrzoB_23sweet_grass_integration8listenerNtB4_24TarpcSessionEventsClient11from_primal
FN:236,_RNvMs_NtCs4hEEQusrzoB_23sweet_grass_integration8listenerNtB4_24TarpcSessionEventsClient7connect
FN:213,_RNvXININtCs4hEEQusrzoB_23sweet_grass_integration8listenersa_0pEINtB5_22SessionEventsRpcClientpEINtNtCs9sjCchOt1K7_4core7convert4FrompE4fromB7_
FN:281,_RNvXsh_NtCs4hEEQusrzoB_23sweet_grass_integration8listenerNtB5_24TarpcSessionEventsClientNtB5_19SessionEventsClient11get_session
FN:299,_RNvXsh_NtCs4hEEQusrzoB_23sweet_grass_integration8listenerNtB5_24TarpcSessionEventsClientNtB5_19SessionEventsClient6health
FN:264,_RNvXsh_NtCs4hEEQusrzoB_23sweet_grass_integration8listenerNtB5_24TarpcSessionEventsClientNtB5_19SessionEventsClient9subscribe
FN:315,_RNvXsi_NtCs4hEEQusrzoB_23sweet_grass_integration8listenerNtB5_16TarpcEventStreamNtB5_18SessionEventStream4next
FN:319,_RNvXsi_NtCs4hEEQusrzoB_23sweet_grass_integration8listenerNtB5_16TarpcEventStreamNtB5_18SessionEventStream5close
FN:213,_RNvYpNtNtCs4hEEQusrzoB_23sweet_grass_integration8listener16SessionEventsRpc5serveB7_
FN:393,_RNvMNtNtCs4hEEQusrzoB_23sweet_grass_integration8listener7testingNtB2_23MockSessionEventsClient11add_session
FN:400,_RNvMNtNtCs4hEEQusrzoB_23sweet_grass_integration8listener7testingNtB2_23MockSessionEventsClient11queue_event
FN:408,_RNvMNtNtCs4hEEQusrzoB_23sweet_grass_integration8listener7testingNtB2_23MockSessionEventsClient11with_health
FN:383,_RNvMNtNtCs4hEEQusrzoB_23sweet_grass_integration8listener7testingNtB2_23MockSessionEventsClient3new
FN:428,_RNvXs0_NtNtCs4hEEQusrzoB_23sweet_grass_integration8listener7testingNtB5_23MockSessionEventsClientNtB7_19SessionEventsClient11get_session
FN:433,_RNvXs0_NtNtCs4hEEQusrzoB_23sweet_grass_integration8listener7testingNtB5_23MockSessionEventsClientNtB7_19SessionEventsClient6health
FN:422,_RNvXs0_NtNtCs4hEEQusrzoB_23sweet_grass_integration8listener7testingNtB5_23MockSessionEventsClientNtB7_19SessionEventsClient9subscribe
FN:445,_RNvXs1_NtNtCs4hEEQusrzoB_23sweet_grass_integration8listener7testingNtB5_15MockEventStreamNtB7_18SessionEventStream4next
FN:450,_RNvXs1_NtNtCs4hEEQusrzoB_23sweet_grass_integration8listener7testingNtB5_15MockEventStreamNtB7_18SessionEventStream5close
FN:415,_RNvXs_NtNtCs4hEEQusrzoB_23sweet_grass_integration8listener7testingNtB4_23MockSessionEventsClientNtNtCs9sjCchOt1K7_4core7default7Default7default
FN:327,_RNvNtCs4hEEQusrzoB_23sweet_grass_integration8listener34create_session_events_client_async
FN:400,_RNCNvMNtNtCs4hEEQusrzoB_23sweet_grass_integration8listener7testingNtB4_23MockSessionEventsClient11queue_event0B8_
FN:529,_RNvNtNtCs4hEEQusrzoB_23sweet_grass_integration8listener5testss_23test_mock_client_health
FN:473,_RNvNtNtCs4hEEQusrzoB_23sweet_grass_integration8listener5testss_23test_session_event_type
FN:736,_RNvNtNtCs4hEEQusrzoB_23sweet_grass_integration8listener5testss_24test_mock_client_default
FN:543,_RNvNtNtCs4hEEQusrzoB_23sweet_grass_integration8listener5testss_26test_mock_client_subscribe
FN:594,_RNvNtNtCs4hEEQusrzoB_23sweet_grass_integration8listener5testss_28test_mock_client_get_session
FN:672,_RNvNtNtCs4hEEQusrzoB_23sweet_grass_integration8listener5testss_28test_mock_event_stream_close
FN:491,_RNvNtNtCs4hEEQusrzoB_23sweet_grass_integration8listener5testss_28test_session_event_structure
FN:507,_RNvNtNtCs4hEEQusrzoB_23sweet_grass_integration8listener5testss_31test_session_event_with_session
FN:718,_RNvNtNtCs4hEEQusrzoB_23sweet_grass_integration8listener5testss_32test_session_event_serialization
FN:536,_RNvNtNtCs4hEEQusrzoB_23sweet_grass_integration8listener5testss_33test_mock_client_health_unhealthy
FN:620,_RNvNtNtCs4hEEQusrzoB_23sweet_grass_integration8listener5testss_34test_mock_client_multiple_sessions
FN:479,_RNvNtNtCs4hEEQusrzoB_23sweet_grass_integration8listener5testss_36test_session_event_type_all_variants
FN:612,_RNvNtNtCs4hEEQusrzoB_23sweet_grass_integration8listener5testss_38test_mock_client_get_session_not_found
FN:646,_RNvNtNtCs4hEEQusrzoB_23sweet_grass_integration8listener5testss_39test_create_session_events_client_async
FN:568,_RNvNtNtCs4hEEQusrzoB_23sweet_grass_integration8listener5testss_42test_mock_client_subscribe_multiple_events
FN:701,_RNvNtNtCs4hEEQusrzoB_23sweet_grass_integration8listener5testss_43test_session_event_type_additional_variants
FNDA:1,_RNCNvNtCs4hEEQusrzoB_23sweet_grass_integration8listener34create_session_events_client_async0B5_
FNDA:1,_RNCNCNvNtNtCs4hEEQusrzoB_23sweet_grass_integration8listener5testss_39test_create_session_events_client_async00B9_
FNDA:1,_RNCNvNtNtCs4hEEQusrzoB_23sweet_grass_integration8listener5testss_23test_mock_client_health0B7_
FNDA:1,_RNCNvNtNtCs4hEEQusrzoB_23sweet_grass_integration8listener5testss_24test_mock_client_default0B7_
FNDA:1,_RNCNvNtNtCs4hEEQusrzoB_23sweet_grass_integration8listener5testss_26test_mock_client_subscribe0B7_
FNDA:1,_RNCNvNtNtCs4hEEQusrzoB_23sweet_grass_integration8listener5testss_28test_mock_client_get_session0B7_
FNDA:1,_RNCNvNtNtCs4hEEQusrzoB_23sweet_grass_integration8listener5testss_28test_mock_event_stream_close0B7_
FNDA:1,_RNCNvNtNtCs4hEEQusrzoB_23sweet_grass_integration8listener5testss_33test_mock_client_health_unhealthy0B7_
FNDA:1,_RNCNvNtNtCs4hEEQusrzoB_23sweet_grass_integration8listener5testss_34test_mock_client_multiple_sessions0B7_
FNDA:1,_RNCNvNtNtCs4hEEQusrzoB_23sweet_grass_integration8listener5testss_38test_mock_client_get_session_not_found0B7_
FNDA:1,_RNCNvNtNtCs4hEEQusrzoB_23sweet_grass_integration8listener5testss_39test_create_session_events_client_async0B7_
FNDA:1,_RNCNvNtNtCs4hEEQusrzoB_23sweet_grass_integration8listener5testss_42test_mock_client_subscribe_multiple_events0B7_
FNDA:0,_RINvMNtCs4hEEQusrzoB_23sweet_grass_integration8listenerNtB3_12EventHandler3newpEB5_
FNDA:0,_RINvMs9_NtCs4hEEQusrzoB_23sweet_grass_integration8listenerNtB6_22SessionEventsRpcClient3newpEB8_
FNDA:0,_RNCINvMNtCs4hEEQusrzoB_23sweet_grass_integration8listenerNtB5_12EventHandler3newpE0B7_
FNDA:0,_RNCNCNCINvMNtCs4hEEQusrzoB_23sweet_grass_integration8listenerNtB9_12EventHandler3newpE000Bb_
FNDA:0,_RNCNCNCNvMs_NtCs4hEEQusrzoB_23sweet_grass_integration8listenerNtBa_24TarpcSessionEventsClient7connect000Bc_
FNDA:0,_RNCNCNvMs_NtCs4hEEQusrzoB_23sweet_grass_integration8listenerNtB8_24TarpcSessionEventsClient11from_primal00Ba_
FNDA:0,_RNCNCNvXsh_NtCs4hEEQusrzoB_23sweet_grass_integration8listenerNtB9_24TarpcSessionEventsClientNtB9_19SessionEventsClient11get_session00Bb_
FNDA:0,_RNCNCNvXsh_NtCs4hEEQusrzoB_23sweet_grass_integration8listenerNtB9_24TarpcSessionEventsClientNtB9_19SessionEventsClient11get_session0s_0Bb_
FNDA:0,_RNCNCNvXsh_NtCs4hEEQusrzoB_23sweet_grass_integration8listenerNtB9_24TarpcSessionEventsClientNtB9_19SessionEventsClient6health00Bb_
FNDA:0,_RNCNCNvXsh_NtCs4hEEQusrzoB_23sweet_grass_integration8listenerNtB9_24TarpcSessionEventsClientNtB9_19SessionEventsClient9subscribe00Bb_
FNDA:0,_RNCNCNvXsh_NtCs4hEEQusrzoB_23sweet_grass_integration8listenerNtB9_24TarpcSessionEventsClientNtB9_19SessionEventsClient9subscribe0s_0Bb_
FNDA:0,_RNCNvMNtCs4hEEQusrzoB_23sweet_grass_integration8listenerNtB4_12EventHandler13process_event0B6_
FNDA:0,_RNCNvMNtCs4hEEQusrzoB_23sweet_grass_integration8listenerNtB4_12EventHandler18compress_and_store0B6_
FNDA:0,_RNCNvMNtCs4hEEQusrzoB_23sweet_grass_integration8listenerNtB4_12EventHandler5start0B6_
FNDA:0,_RNCNvMs_NtCs4hEEQusrzoB_23sweet_grass_integration8listenerNtB6_24TarpcSessionEventsClient11from_primal0B8_
FNDA:0,_RNCNvMs_NtCs4hEEQusrzoB_23sweet_grass_integration8listenerNtB6_24TarpcSessionEventsClient7connect0B8_
FNDA:0,_RNCNvMsb_NtCs4hEEQusrzoB_23sweet_grass_integration8listenerINtB7_22SessionEventsRpcClientpE11get_session0B9_
FNDA:0,_RNCNvMsb_NtCs4hEEQusrzoB_23sweet_grass_integration8listenerINtB7_22SessionEventsRpcClientpE6health0B9_
FNDA:0,_RNCNvMsb_NtCs4hEEQusrzoB_23sweet_grass_integration8listenerINtB7_22SessionEventsRpcClientpE9subscribe0B9_
FNDA:0,_RNCNvXsi_NtCs4hEEQusrzoB_23sweet_grass_integration8listenerNtB7_16TarpcEventStreamNtB7_18SessionEventStream5close0B9_
FNDA:0,_RNvMNtCs4hEEQusrzoB_23sweet_grass_integration8listenerNtB2_12EventHandler11with_client
FNDA:0,_RNvMNtCs4hEEQusrzoB_23sweet_grass_integration8listenerNtB2_12EventHandler13process_event
FNDA:0,_RNvMNtCs4hEEQusrzoB_23sweet_grass_integration8listenerNtB2_12EventHandler18compress_and_store
FNDA:0,_RNvMNtCs4hEEQusrzoB_23sweet_grass_integration8listenerNtB2_12EventHandler5start
FNDA:0,_RNvMNtCs4hEEQusrzoB_23sweet_grass_integration8listenerNtB2_12EventHandler6client
FNDA:0,_RNvMs_NtCs4hEEQusrzoB_23sweet_grass_integration8listenerNtB4_24TarpcSessionEventsClient11from_primal
FNDA:0,_RNvMs_NtCs4hEEQusrzoB_23sweet_grass_integration8listenerNtB4_24TarpcSessionEventsClient7connect
FNDA:0,_RNvXININtCs4hEEQusrzoB_23sweet_grass_integration8listenersa_0pEINtB5_22SessionEventsRpcClientpEINtNtCs9sjCchOt1K7_4core7convert4FrompE4fromB7_
FNDA:0,_RNvXsh_NtCs4hEEQusrzoB_23sweet_grass_integration8listenerNtB5_24TarpcSessionEventsClientNtB5_19SessionEventsClient11get_session
FNDA:0,_RNvXsh_NtCs4hEEQusrzoB_23sweet_grass_integration8listenerNtB5_24TarpcSessionEventsClientNtB5_19SessionEventsClient6health
FNDA:0,_RNvXsh_NtCs4hEEQusrzoB_23sweet_grass_integration8listenerNtB5_24TarpcSessionEventsClientNtB5_19SessionEventsClient9subscribe
FNDA:0,_RNvXsi_NtCs4hEEQusrzoB_23sweet_grass_integration8listenerNtB5_16TarpcEventStreamNtB5_18SessionEventStream4next
FNDA:0,_RNvXsi_NtCs4hEEQusrzoB_23sweet_grass_integration8listenerNtB5_16TarpcEventStreamNtB5_18SessionEventStream5close
FNDA:0,_RNvYpNtNtCs4hEEQusrzoB_23sweet_grass_integration8listener16SessionEventsRpc5serveB7_
FNDA:6,_RNvMNtNtCs4hEEQusrzoB_23sweet_grass_integration8listener7testingNtB2_23MockSessionEventsClient11add_session
FNDA:7,_RNvMNtNtCs4hEEQusrzoB_23sweet_grass_integration8listener7testingNtB2_23MockSessionEventsClient11queue_event
FNDA:1,_RNvMNtNtCs4hEEQusrzoB_23sweet_grass_integration8listener7testingNtB2_23MockSessionEventsClient11with_health
FNDA:10,_RNvMNtNtCs4hEEQusrzoB_23sweet_grass_integration8listener7testingNtB2_23MockSessionEventsClient3new
FNDA:7,_RNvXs0_NtNtCs4hEEQusrzoB_23sweet_grass_integration8listener7testingNtB5_23MockSessionEventsClientNtB7_19SessionEventsClient11get_session
FNDA:4,_RNvXs0_NtNtCs4hEEQusrzoB_23sweet_grass_integration8listener7testingNtB5_23MockSessionEventsClientNtB7_19SessionEventsClient6health
FNDA:3,_RNvXs0_NtNtCs4hEEQusrzoB_23sweet_grass_integration8listener7testingNtB5_23MockSessionEventsClientNtB7_19SessionEventsClient9subscribe
FNDA:8,_RNvXs1_NtNtCs4hEEQusrzoB_23sweet_grass_integration8listener7testingNtB5_15MockEventStreamNtB7_18SessionEventStream4next
FNDA:1,_RNvXs1_NtNtCs4hEEQusrzoB_23sweet_grass_integration8listener7testingNtB5_15MockEventStreamNtB7_18SessionEventStream5close
FNDA:1,_RNvXs_NtNtCs4hEEQusrzoB_23sweet_grass_integration8listener7testingNtB4_23MockSessionEventsClientNtNtCs9sjCchOt1K7_4core7default7Default7default
FNDA:1,_RNvNtCs4hEEQusrzoB_23sweet_grass_integration8listener34create_session_events_client_async
FNDA:7,_RNCNvMNtNtCs4hEEQusrzoB_23sweet_grass_integration8listener7testingNtB4_23MockSessionEventsClient11queue_event0B8_
FNDA:1,_RNvNtNtCs4hEEQusrzoB_23sweet_grass_integration8listener5testss_23test_mock_client_health
FNDA:1,_RNvNtNtCs4hEEQusrzoB_23sweet_grass_integration8listener5testss_23test_session_event_type
FNDA:1,_RNvNtNtCs4hEEQusrzoB_23sweet_grass_integration8listener5testss_24test_mock_client_default
FNDA:1,_RNvNtNtCs4hEEQusrzoB_23sweet_grass_integration8listener5testss_26test_mock_client_subscribe
FNDA:1,_RNvNtNtCs4hEEQusrzoB_23sweet_grass_integration8listener5testss_28test_mock_client_get_session
FNDA:1,_RNvNtNtCs4hEEQusrzoB_23sweet_grass_integration8listener5testss_28test_mock_event_stream_close
FNDA:1,_RNvNtNtCs4hEEQusrzoB_23sweet_grass_integration8listener5testss_28test_session_event_structure
FNDA:1,_RNvNtNtCs4hEEQusrzoB_23sweet_grass_integration8listener5testss_31test_session_event_with_session
FNDA:1,_RNvNtNtCs4hEEQusrzoB_23sweet_grass_integration8listener5testss_32test_session_event_serialization
FNDA:1,_RNvNtNtCs4hEEQusrzoB_23sweet_grass_integration8listener5testss_33test_mock_client_health_unhealthy
FNDA:1,_RNvNtNtCs4hEEQusrzoB_23sweet_grass_integration8listener5testss_34test_mock_client_multiple_sessions
FNDA:1,_RNvNtNtCs4hEEQusrzoB_23sweet_grass_integration8listener5testss_36test_session_event_type_all_variants
FNDA:1,_RNvNtNtCs4hEEQusrzoB_23sweet_grass_integration8listener5testss_38test_mock_client_get_session_not_found
FNDA:1,_RNvNtNtCs4hEEQusrzoB_23sweet_grass_integration8listener5testss_39test_create_session_events_client_async
FNDA:1,_RNvNtNtCs4hEEQusrzoB_23sweet_grass_integration8listener5testss_42test_mock_client_subscribe_multiple_events
FNDA:1,_RNvNtNtCs4hEEQusrzoB_23sweet_grass_integration8listener5testss_43test_session_event_type_additional_variants
FNF:70
FNH:40
DA:103,0
DA:104,0
DA:105,0
DA:106,0
DA:107,0
DA:108,0
DA:109,0
DA:110,0
DA:111,0
DA:117,0
DA:129,0
DA:133,0
DA:134,0
DA:135,0
DA:136,0
DA:137,0
DA:138,0
DA:139,0
DA:140,0
DA:141,0
DA:142,0
DA:143,0
DA:144,0
DA:145,0
DA:150,0
DA:160,0
DA:165,0
DA:166,0
DA:167,0
DA:168,0
DA:181,0
DA:185,0
DA:186,0
DA:188,0
DA:190,0
DA:191,0
DA:192,0
DA:195,0
DA:196,0
DA:201,0
DA:202,0
DA:203,0
DA:213,0
DA:236,0
DA:244,0
DA:251,0
DA:254,0
DA:255,0
DA:256,0
DA:257,0
DA:258,0
DA:259,0
DA:264,0
DA:265,0
DA:266,0
DA:267,0
DA:268,0
DA:269,0
DA:270,0
DA:271,0
DA:272,0
DA:273,0
DA:274,0
DA:275,0
DA:276,0
DA:277,0
DA:278,0
DA:279,0
DA:281,0
DA:282,0
DA:283,0
DA:284,0
DA:285,0
DA:286,0
DA:287,0
DA:288,0
DA:289,0
DA:290,0
DA:291,0
DA:292,0
DA:293,0
DA:294,0
DA:295,0
DA:296,0
DA:297,0
DA:299,0
DA:300,0
DA:301,0
DA:302,0
DA:303,0
DA:304,0
DA:305,0
DA:315,0
DA:316,0
DA:317,0
DA:319,0
DA:320,0
DA:321,0
DA:327,1
DA:328,1
DA:329,1
DA:330,1
DA:331,1
DA:332,1
DA:333,1
DA:334,1
DA:335,1
DA:336,1
DA:337,1
DA:338,1
DA:339,1
DA:340,1
DA:383,10
DA:384,10
DA:385,10
DA:386,10
DA:387,10
DA:388,10
DA:389,10
DA:393,6
DA:394,6
DA:395,6
DA:396,6
DA:400,7
DA:401,7
DA:402,7
DA:403,7
DA:408,1
DA:409,1
DA:410,1
DA:411,1
DA:415,1
DA:416,1
DA:417,1
DA:422,3
DA:423,3
DA:424,3
DA:425,3
DA:426,3
DA:428,7
DA:429,7
DA:430,7
DA:431,7
DA:433,4
DA:434,4
DA:435,4
DA:445,8
DA:446,8
DA:447,8
DA:448,8
DA:450,1
DA:451,1
DA:452,1
DA:453,1
DA:473,1
DA:474,1
DA:475,1
DA:476,1
DA:479,1
DA:480,1
DA:481,1
DA:482,1
DA:483,1
DA:484,1
DA:485,1
DA:486,1
DA:487,1
DA:488,1
DA:491,1
DA:492,1
DA:493,1
DA:494,1
DA:495,1
DA:496,1
DA:497,1
DA:498,1
DA:499,1
DA:500,1
DA:501,1
DA:502,1
DA:503,1
DA:504,1
DA:507,1
DA:508,1
DA:509,1
DA:510,1
DA:511,1
DA:512,1
DA:513,1
DA:514,1
DA:515,1
DA:516,1
DA:517,1
DA:518,1
DA:519,1
DA:520,1
DA:521,1
DA:522,1
DA:523,1
DA:524,1
DA:525,1
DA:526,1
DA:529,1
DA:530,1
DA:531,1
DA:532,1
DA:533,1
DA:536,1
DA:537,1
DA:538,1
DA:539,1
DA:540,1
DA:543,1
DA:544,1
DA:545,1
DA:546,1
DA:547,1
DA:548,1
DA:549,1
DA:550,1
DA:551,1
DA:552,1
DA:553,1
DA:554,1
DA:555,1
DA:556,1
DA:557,1
DA:558,1
DA:559,1
DA:560,1
DA:561,1
DA:562,1
DA:563,1
DA:564,1
DA:565,1
DA:568,1
DA:569,1
DA:570,1
DA:571,1
DA:572,4
DA:573,3
DA:574,3
DA:575,3
DA:576,3
DA:577,3
DA:578,3
DA:579,3
DA:580,3
DA:581,3
DA:582,1
DA:583,1
DA:584,1
DA:585,1
DA:586,1
DA:587,4
DA:588,3
DA:589,3
DA:590,1
DA:591,1
DA:594,1
DA:595,1
DA:596,1
DA:597,1
DA:598,1
DA:599,1
DA:600,1
DA:601,1
DA:602,1
DA:603,1
DA:604,1
DA:605,1
DA:606,1
DA:607,1
DA:608,1
DA:609,1
DA:612,1
DA:613,1
DA:614,1
DA:615,1
DA:616,1
DA:617,1
DA:620,1
DA:621,1
DA:622,1
DA:623,1
DA:624,6
DA:625,5
DA:626,5
DA:627,5
DA:628,5
DA:629,5
DA:630,5
DA:631,5
DA:632,5
DA:633,5
DA:634,1
DA:635,1
DA:636,6
DA:637,5
DA:638,5
DA:639,5
DA:640,5
DA:641,5
DA:642,1
DA:643,1
DA:646,1
DA:647,1
DA:648,1
DA:649,1
DA:650,1
DA:651,1
DA:652,1
DA:653,1
DA:654,1
DA:655,1
DA:656,1
DA:657,1
DA:658,1
DA:659,1
DA:660,1
DA:661,1
DA:662,1
DA:663,1
DA:664,1
DA:665,1
DA:666,1
DA:667,1
DA:668,1
DA:669,1
DA:672,1
DA:673,1
DA:674,1
DA:675,1
DA:676,4
DA:677,3
DA:678,3
DA:679,3
DA:680,3
DA:681,3
DA:682,3
DA:683,3
DA:684,3
DA:685,3
DA:686,1
DA:687,1
DA:688,1
DA:689,1
DA:690,1
DA:691,1
DA:692,1
DA:693,1
DA:694,1
DA:695,1
DA:696,1
DA:697,1
DA:698,1
DA:701,1
DA:702,1
DA:703,1
DA:704,1
DA:705,1
DA:706,1
DA:707,1
DA:708,1
DA:709,1
DA:712,1
DA:713,1
DA:714,1
DA:715,1
DA:718,1
DA:719,1
DA:720,1
DA:721,1
DA:722,1
DA:723,1
DA:724,1
DA:725,1
DA:726,1
DA:727,1
DA:728,1
DA:729,1
DA:730,1
DA:731,1
DA:732,1
DA:733,1
DA:736,1
DA:737,1
DA:738,1
DA:739,1
DA:740,1
BRF:0
BRH:0
LF:527
LH:414
end_of_record
SF:/home/strandgate/Development/ecoPrimals/phase2/sweetGrass/crates/sweet-grass-integration/src/signer/discovery.rs
FN:41,_RINvMNtNtCs4hEEQusrzoB_23sweet_grass_integration6signer9discoveryNtB3_15DiscoverySigner3newNCNCNvNtB5_5testss_30test_discovery_signer_creation00EB7_
FN:44,_RNCINvMNtNtCs4hEEQusrzoB_23sweet_grass_integration6signer9discoveryNtB5_15DiscoverySigner3newNCNCNvNtB7_5testss_30test_discovery_signer_creation00E0B9_
FN:50,_RNCNCNCINvMNtNtCs4hEEQusrzoB_23sweet_grass_integration6signer9discoveryNtB9_15DiscoverySigner3newNCNCNvNtBb_5testss_30test_discovery_signer_creation00E000Bd_
FN:144,_RNCNvMs_NtNtCs4hEEQusrzoB_23sweet_grass_integration6signer9discoveryNtB6_12LegacySigner3new0Ba_
FN:79,_RINvMNtNtCs4hEEQusrzoB_23sweet_grass_integration6signer9discoveryNtB3_15DiscoverySigner9reconnectpEB7_
FN:82,_RNCINvMNtNtCs4hEEQusrzoB_23sweet_grass_integration6signer9discoveryNtB5_15DiscoverySigner9reconnectpE0B9_
FN:89,_RNCNCNCINvMNtNtCs4hEEQusrzoB_23sweet_grass_integration6signer9discoveryNtB9_15DiscoverySigner9reconnectpE000Bd_
FN:65,_RNCNvMNtNtCs4hEEQusrzoB_23sweet_grass_integration6signer9discoveryNtB4_15DiscoverySigner11with_client0B8_
FN:65,_RNvMNtNtCs4hEEQusrzoB_23sweet_grass_integration6signer9discoveryNtB2_15DiscoverySigner11with_client
FN:104,_RNvMNtNtCs4hEEQusrzoB_23sweet_grass_integration6signer9discoveryNtB2_15DiscoverySigner6client
FN:144,_RNvMs_NtNtCs4hEEQusrzoB_23sweet_grass_integration6signer9discoveryNtB4_12LegacySigner3new
FN:129,_RNvXs0_NtNtCs4hEEQusrzoB_23sweet_grass_integration6signer9discoveryNtB5_15DiscoverySignerNtNtB7_6traits6Signer10signer_did
FN:152,_RNvXs1_NtNtCs4hEEQusrzoB_23sweet_grass_integration6signer9discoveryNtB5_12LegacySignerNtNtB7_6traits6Signer10sign_braid
FN:166,_RNvXs1_NtNtCs4hEEQusrzoB_23sweet_grass_integration6signer9discoveryNtB5_12LegacySignerNtNtB7_6traits6Signer10signer_did
FN:161,_RNvXs1_NtNtCs4hEEQusrzoB_23sweet_grass_integration6signer9discoveryNtB5_12LegacySignerNtNtB7_6traits6Signer12verify_braid
FNDA:1,_RINvMNtNtCs4hEEQusrzoB_23sweet_grass_integration6signer9discoveryNtB3_15DiscoverySigner3newNCNCNvNtB5_5testss_30test_discovery_signer_creation00EB7_
FNDA:1,_RNCINvMNtNtCs4hEEQusrzoB_23sweet_grass_integration6signer9discoveryNtB5_15DiscoverySigner3newNCNCNvNtB7_5testss_30test_discovery_signer_creation00E0B9_
FNDA:0,_RNCNCNCINvMNtNtCs4hEEQusrzoB_23sweet_grass_integration6signer9discoveryNtB9_15DiscoverySigner3newNCNCNvNtBb_5testss_30test_discovery_signer_creation00E000Bd_
FNDA:4,_RNCNvMs_NtNtCs4hEEQusrzoB_23sweet_grass_integration6signer9discoveryNtB6_12LegacySigner3new0Ba_
FNDA:0,_RINvMNtNtCs4hEEQusrzoB_23sweet_grass_integration6signer9discoveryNtB3_15DiscoverySigner9reconnectpEB7_
FNDA:0,_RNCINvMNtNtCs4hEEQusrzoB_23sweet_grass_integration6signer9discoveryNtB5_15DiscoverySigner9reconnectpE0B9_
FNDA:0,_RNCNCNCINvMNtNtCs4hEEQusrzoB_23sweet_grass_integration6signer9discoveryNtB9_15DiscoverySigner9reconnectpE000Bd_
FNDA:0,_RNCNvMNtNtCs4hEEQusrzoB_23sweet_grass_integration6signer9discoveryNtB4_15DiscoverySigner11with_client0B8_
FNDA:0,_RNvMNtNtCs4hEEQusrzoB_23sweet_grass_integration6signer9discoveryNtB2_15DiscoverySigner11with_client
FNDA:0,_RNvMNtNtCs4hEEQusrzoB_23sweet_grass_integration6signer9discoveryNtB2_15DiscoverySigner6client
FNDA:4,_RNvMs_NtNtCs4hEEQusrzoB_23sweet_grass_integration6signer9discoveryNtB4_12LegacySigner3new
FNDA:1,_RNvXs0_NtNtCs4hEEQusrzoB_23sweet_grass_integration6signer9discoveryNtB5_15DiscoverySignerNtNtB7_6traits6Signer10signer_did
FNDA:1,_RNvXs1_NtNtCs4hEEQusrzoB_23sweet_grass_integration6signer9discoveryNtB5_12LegacySignerNtNtB7_6traits6Signer10sign_braid
FNDA:1,_RNvXs1_NtNtCs4hEEQusrzoB_23sweet_grass_integration6signer9discoveryNtB5_12LegacySignerNtNtB7_6traits6Signer10signer_did
FNDA:2,_RNvXs1_NtNtCs4hEEQusrzoB_23sweet_grass_integration6signer9discoveryNtB5_12LegacySignerNtNtB7_6traits6Signer12verify_braid
FNF:15
FNH:8
DA:41,1
DA:42,1
DA:43,1
DA:44,1
DA:50,0
DA:62,1
DA:65,0
DA:66,0
DA:68,0
DA:69,0
DA:70,0
DA:71,0
DA:72,0
DA:73,0
DA:74,0
DA:75,0
DA:79,0
DA:80,0
DA:81,0
DA:82,0
DA:89,0
DA:100,0
DA:104,0
DA:105,0
DA:106,0
DA:129,1
DA:130,1
DA:131,1
DA:144,4
DA:145,4
DA:146,4
DA:147,4
DA:152,1
DA:153,1
DA:154,1
DA:155,1
DA:156,1
DA:157,1
DA:158,1
DA:159,1
DA:161,2
DA:162,2
DA:163,2
DA:164,2
DA:166,1
DA:167,1
DA:168,1
BRF:0
BRH:0
LF:51
LH:29
end_of_record
SF:/home/strandgate/Development/ecoPrimals/phase2/sweetGrass/crates/sweet-grass-integration/src/signer/mod.rs
FN:57,_RNvNtNtCs4hEEQusrzoB_23sweet_grass_integration6signer5testss_21test_mock_client_sign
FN:183,_RNvNtNtCs4hEEQusrzoB_23sweet_grass_integration6signer5testss_22test_custom_did_signer
FN:132,_RNvNtNtCs4hEEQusrzoB_23sweet_grass_integration6signer5testss_23test_legacy_signer_sign
FN:218,_RNvNtNtCs4hEEQusrzoB_23sweet_grass_integration6signer5testss_23test_mock_client_health
FN:72,_RNvNtNtCs4hEEQusrzoB_23sweet_grass_integration6signer5testss_23test_mock_client_verify
FN:192,_RNvNtNtCs4hEEQusrzoB_23sweet_grass_integration6signer5testss_24test_create_client_async
FN:149,_RNvNtNtCs4hEEQusrzoB_23sweet_grass_integration6signer5testss_25test_legacy_signer_verify
FN:95,_RNvNtNtCs4hEEQusrzoB_23sweet_grass_integration6signer5testss_28test_mock_client_resolve_did
FN:105,_RNvNtNtCs4hEEQusrzoB_23sweet_grass_integration6signer5testss_30test_discovery_signer_creation
FN:166,_RNvNtNtCs4hEEQusrzoB_23sweet_grass_integration6signer5testss_31test_mock_client_invalid_verify
FN:87,_RNvNtNtCs4hEEQusrzoB_23sweet_grass_integration6signer5testss_33test_mock_client_configurable_did
FN:227,_RNvNtNtCs4hEEQusrzoB_23sweet_grass_integration6signer5testss_33test_mock_client_custom_signature
FN:211,_RNvNtNtCs4hEEQusrzoB_23sweet_grass_integration6signer5testss_37test_create_client_sync_mock_directly
FN:121,_RNCNCNvNtNtCs4hEEQusrzoB_23sweet_grass_integration6signer5testss_30test_discovery_signer_creation00B9_
FN:57,_RNCNvNtNtCs4hEEQusrzoB_23sweet_grass_integration6signer5testss_21test_mock_client_sign0B7_
FN:183,_RNCNvNtNtCs4hEEQusrzoB_23sweet_grass_integration6signer5testss_22test_custom_did_signer0B7_
FN:132,_RNCNvNtNtCs4hEEQusrzoB_23sweet_grass_integration6signer5testss_23test_legacy_signer_sign0B7_
FN:218,_RNCNvNtNtCs4hEEQusrzoB_23sweet_grass_integration6signer5testss_23test_mock_client_health0B7_
FN:72,_RNCNvNtNtCs4hEEQusrzoB_23sweet_grass_integration6signer5testss_23test_mock_client_verify0B7_
FN:192,_RNCNvNtNtCs4hEEQusrzoB_23sweet_grass_integration6signer5testss_24test_create_client_async0B7_
FN:149,_RNCNvNtNtCs4hEEQusrzoB_23sweet_grass_integration6signer5testss_25test_legacy_signer_verify0B7_
FN:95,_RNCNvNtNtCs4hEEQusrzoB_23sweet_grass_integration6signer5testss_28test_mock_client_resolve_did0B7_
FN:105,_RNCNvNtNtCs4hEEQusrzoB_23sweet_grass_integration6signer5testss_30test_discovery_signer_creation0B7_
FN:166,_RNCNvNtNtCs4hEEQusrzoB_23sweet_grass_integration6signer5testss_31test_mock_client_invalid_verify0B7_
FN:87,_RNCNvNtNtCs4hEEQusrzoB_23sweet_grass_integration6signer5testss_33test_mock_client_configurable_did0B7_
FN:227,_RNCNvNtNtCs4hEEQusrzoB_23sweet_grass_integration6signer5testss_33test_mock_client_custom_signature0B7_
FN:211,_RNCNvNtNtCs4hEEQusrzoB_23sweet_grass_integration6signer5testss_37test_create_client_sync_mock_directly0B7_
FNDA:1,_RNvNtNtCs4hEEQusrzoB_23sweet_grass_integration6signer5testss_21test_mock_client_sign
FNDA:1,_RNvNtNtCs4hEEQusrzoB_23sweet_grass_integration6signer5testss_22test_custom_did_signer
FNDA:1,_RNvNtNtCs4hEEQusrzoB_23sweet_grass_integration6signer5testss_23test_legacy_signer_sign
FNDA:1,_RNvNtNtCs4hEEQusrzoB_23sweet_grass_integration6signer5testss_23test_mock_client_health
FNDA:1,_RNvNtNtCs4hEEQusrzoB_23sweet_grass_integration6signer5testss_23test_mock_client_verify
FNDA:1,_RNvNtNtCs4hEEQusrzoB_23sweet_grass_integration6signer5testss_24test_create_client_async
FNDA:1,_RNvNtNtCs4hEEQusrzoB_23sweet_grass_integration6signer5testss_25test_legacy_signer_verify
FNDA:1,_RNvNtNtCs4hEEQusrzoB_23sweet_grass_integration6signer5testss_28test_mock_client_resolve_did
FNDA:1,_RNvNtNtCs4hEEQusrzoB_23sweet_grass_integration6signer5testss_30test_discovery_signer_creation
FNDA:1,_RNvNtNtCs4hEEQusrzoB_23sweet_grass_integration6signer5testss_31test_mock_client_invalid_verify
FNDA:1,_RNvNtNtCs4hEEQusrzoB_23sweet_grass_integration6signer5testss_33test_mock_client_configurable_did
FNDA:1,_RNvNtNtCs4hEEQusrzoB_23sweet_grass_integration6signer5testss_33test_mock_client_custom_signature
FNDA:1,_RNvNtNtCs4hEEQusrzoB_23sweet_grass_integration6signer5testss_37test_create_client_sync_mock_directly
FNDA:1,_RNCNCNvNtNtCs4hEEQusrzoB_23sweet_grass_integration6signer5testss_30test_discovery_signer_creation00B9_
FNDA:1,_RNCNvNtNtCs4hEEQusrzoB_23sweet_grass_integration6signer5testss_21test_mock_client_sign0B7_
FNDA:1,_RNCNvNtNtCs4hEEQusrzoB_23sweet_grass_integration6signer5testss_22test_custom_did_signer0B7_
FNDA:1,_RNCNvNtNtCs4hEEQusrzoB_23sweet_grass_integration6signer5testss_23test_legacy_signer_sign0B7_
FNDA:1,_RNCNvNtNtCs4hEEQusrzoB_23sweet_grass_integration6signer5testss_23test_mock_client_health0B7_
FNDA:1,_RNCNvNtNtCs4hEEQusrzoB_23sweet_grass_integration6signer5testss_23test_mock_client_verify0B7_
FNDA:1,_RNCNvNtNtCs4hEEQusrzoB_23sweet_grass_integration6signer5testss_24test_create_client_async0B7_
FNDA:1,_RNCNvNtNtCs4hEEQusrzoB_23sweet_grass_integration6signer5testss_25test_legacy_signer_verify0B7_
FNDA:1,_RNCNvNtNtCs4hEEQusrzoB_23sweet_grass_integration6signer5testss_28test_mock_client_resolve_did0B7_
FNDA:1,_RNCNvNtNtCs4hEEQusrzoB_23sweet_grass_integration6signer5testss_30test_discovery_signer_creation0B7_
FNDA:1,_RNCNvNtNtCs4hEEQusrzoB_23sweet_grass_integration6signer5testss_31test_mock_client_invalid_verify0B7_
FNDA:1,_RNCNvNtNtCs4hEEQusrzoB_23sweet_grass_integration6signer5testss_33test_mock_client_configurable_did0B7_
FNDA:1,_RNCNvNtNtCs4hEEQusrzoB_23sweet_grass_integration6signer5testss_33test_mock_client_custom_signature0B7_
FNDA:1,_RNCNvNtNtCs4hEEQusrzoB_23sweet_grass_integration6signer5testss_37test_create_client_sync_mock_directly0B7_
FNF:27
FNH:27
DA:57,1
DA:58,1
DA:59,1
DA:60,1
DA:61,1
DA:62,1
DA:63,1
DA:64,1
DA:65,1
DA:66,1
DA:67,1
DA:68,1
DA:69,1
DA:72,1
DA:73,1
DA:74,1
DA:75,1
DA:76,1
DA:77,1
DA:78,1
DA:79,1
DA:80,1
DA:81,1
DA:82,1
DA:83,1
DA:84,1
DA:87,1
DA:88,1
DA:89,1
DA:90,1
DA:91,1
DA:92,1
DA:95,1
DA:96,1
DA:97,1
DA:98,1
DA:99,1
DA:100,1
DA:101,1
DA:102,1
DA:105,1
DA:106,1
DA:107,1
DA:108,1
DA:109,1
DA:110,1
DA:111,1
DA:112,1
DA:113,1
DA:114,1
DA:115,1
DA:116,1
DA:117,1
DA:118,1
DA:119,1
DA:120,1
DA:121,1
DA:122,1
DA:123,1
DA:124,1
DA:125,1
DA:126,1
DA:127,1
DA:128,1
DA:132,1
DA:133,1
DA:134,1
DA:135,1
DA:136,1
DA:137,1
DA:138,1
DA:139,1
DA:140,1
DA:141,1
DA:142,1
DA:143,1
DA:144,1
DA:145,1
DA:146,1
DA:149,1
DA:150,1
DA:151,1
DA:152,1
DA:153,1
DA:154,1
DA:155,1
DA:156,1
DA:157,1
DA:158,1
DA:159,1
DA:160,1
DA:161,1
DA:162,1
DA:163,1
DA:166,1
DA:167,1
DA:168,1
DA:169,1
DA:170,1
DA:171,1
DA:172,1
DA:173,1
DA:174,1
DA:175,1
DA:176,1
DA:177,1
DA:178,1
DA:179,1
DA:180,1
DA:183,1
DA:184,1
DA:185,1
DA:186,1
DA:187,1
DA:188,1
DA:189,1
DA:192,1
DA:193,1
DA:194,1
DA:195,1
DA:196,1
DA:197,1
DA:198,1
DA:199,1
DA:200,1
DA:201,1
DA:202,1
DA:203,1
DA:204,1
DA:205,1
DA:206,1
DA:207,1
DA:208,1
DA:211,1
DA:212,1
DA:213,1
DA:214,1
DA:215,1
DA:218,1
DA:219,1
DA:220,1
DA:221,1
DA:222,1
DA:223,1
DA:224,1
DA:227,1
DA:228,1
DA:229,1
DA:230,1
DA:231,1
DA:232,1
DA:233,1
DA:234,1
DA:235,1
DA:236,1
DA:237,1
DA:238,1
DA:239,1
DA:240,1
DA:241,1
DA:242,1
DA:243,1
DA:244,1
DA:245,1
DA:246,1
DA:247,1
DA:248,1
DA:249,1
BRF:0
BRH:0
LF:314
LH:314
end_of_record
SF:/home/strandgate/Development/ecoPrimals/phase2/sweetGrass/crates/sweet-grass-integration/src/signer/tarpc_client.rs
FN:29,_RINvMs1_NtNtCs4hEEQusrzoB_23sweet_grass_integration6signer12tarpc_clientNtB6_16SigningRpcClient3newpEBa_
FN:89,_RNCNCNCNvMNtNtCs4hEEQusrzoB_23sweet_grass_integration6signer12tarpc_clientNtB8_18TarpcSigningClient7connect000Bc_
FN:102,_RNCNCNvMNtNtCs4hEEQusrzoB_23sweet_grass_integration6signer12tarpc_clientNtB6_18TarpcSigningClient11from_primal00Ba_
FN:158,_RNCNCNvXs9_NtNtCs4hEEQusrzoB_23sweet_grass_integration6signer12tarpc_clientNtB9_18TarpcSigningClientNtNtBb_6traits13SigningClient11current_did00Bd_
FN:169,_RNCNCNvXs9_NtNtCs4hEEQusrzoB_23sweet_grass_integration6signer12tarpc_clientNtB9_18TarpcSigningClientNtNtBb_6traits13SigningClient11resolve_did00Bd_
FN:175,_RNCNCNvXs9_NtNtCs4hEEQusrzoB_23sweet_grass_integration6signer12tarpc_clientNtB9_18TarpcSigningClientNtNtBb_6traits13SigningClient11resolve_did0s_0Bd_
FN:113,_RNCNCNvXs9_NtNtCs4hEEQusrzoB_23sweet_grass_integration6signer12tarpc_clientNtB9_18TarpcSigningClientNtNtBb_6traits13SigningClient4sign00Bd_
FN:123,_RNCNCNvXs9_NtNtCs4hEEQusrzoB_23sweet_grass_integration6signer12tarpc_clientNtB9_18TarpcSigningClientNtNtBb_6traits13SigningClient4sign0s0_0Bd_
FN:119,_RNCNCNvXs9_NtNtCs4hEEQusrzoB_23sweet_grass_integration6signer12tarpc_clientNtB9_18TarpcSigningClientNtNtBb_6traits13SigningClient4sign0s_0Bd_
FN:186,_RNCNCNvXs9_NtNtCs4hEEQusrzoB_23sweet_grass_integration6signer12tarpc_clientNtB9_18TarpcSigningClientNtNtBb_6traits13SigningClient6health00Bd_
FN:130,_RNCNCNvXs9_NtNtCs4hEEQusrzoB_23sweet_grass_integration6signer12tarpc_clientNtB9_18TarpcSigningClientNtNtBb_6traits13SigningClient6verify00Bd_
FN:136,_RNCNCNvXs9_NtNtCs4hEEQusrzoB_23sweet_grass_integration6signer12tarpc_clientNtB9_18TarpcSigningClientNtNtBb_6traits13SigningClient6verify0s_0Bd_
FN:101,_RNCNvMNtNtCs4hEEQusrzoB_23sweet_grass_integration6signer12tarpc_clientNtB4_18TarpcSigningClient11from_primal0B8_
FN:81,_RNCNvMNtNtCs4hEEQusrzoB_23sweet_grass_integration6signer12tarpc_clientNtB4_18TarpcSigningClient7connect0B8_
FN:29,_RNCNvMs3_NtNtCs4hEEQusrzoB_23sweet_grass_integration6signer12tarpc_clientINtB7_16SigningRpcClientpE10sign_braid0Bb_
FN:29,_RNCNvMs3_NtNtCs4hEEQusrzoB_23sweet_grass_integration6signer12tarpc_clientINtB7_16SigningRpcClientpE11current_did0Bb_
FN:29,_RNCNvMs3_NtNtCs4hEEQusrzoB_23sweet_grass_integration6signer12tarpc_clientINtB7_16SigningRpcClientpE11resolve_did0Bb_
FN:29,_RNCNvMs3_NtNtCs4hEEQusrzoB_23sweet_grass_integration6signer12tarpc_clientINtB7_16SigningRpcClientpE12verify_braid0Bb_
FN:29,_RNCNvMs3_NtNtCs4hEEQusrzoB_23sweet_grass_integration6signer12tarpc_clientINtB7_16SigningRpcClientpE6health0Bb_
FN:101,_RNvMNtNtCs4hEEQusrzoB_23sweet_grass_integration6signer12tarpc_clientNtB2_18TarpcSigningClient11from_primal
FN:81,_RNvMNtNtCs4hEEQusrzoB_23sweet_grass_integration6signer12tarpc_clientNtB2_18TarpcSigningClient7connect
FN:29,_RNvXININtNtCs4hEEQusrzoB_23sweet_grass_integration6signer12tarpc_clients2_0pEINtB5_16SigningRpcClientpEINtNtCs9sjCchOt1K7_4core7convert4FrompE4fromB9_
FN:153,_RNvXs9_NtNtCs4hEEQusrzoB_23sweet_grass_integration6signer12tarpc_clientNtB5_18TarpcSigningClientNtNtB7_6traits13SigningClient11current_did
FN:164,_RNvXs9_NtNtCs4hEEQusrzoB_23sweet_grass_integration6signer12tarpc_clientNtB5_18TarpcSigningClientNtNtB7_6traits13SigningClient11resolve_did
FN:111,_RNvXs9_NtNtCs4hEEQusrzoB_23sweet_grass_integration6signer12tarpc_clientNtB5_18TarpcSigningClientNtNtB7_6traits13SigningClient4sign
FN:182,_RNvXs9_NtNtCs4hEEQusrzoB_23sweet_grass_integration6signer12tarpc_clientNtB5_18TarpcSigningClientNtNtB7_6traits13SigningClient6health
FN:128,_RNvXs9_NtNtCs4hEEQusrzoB_23sweet_grass_integration6signer12tarpc_clientNtB5_18TarpcSigningClientNtNtB7_6traits13SigningClient6verify
FN:29,_RNvYpNtNtNtCs4hEEQusrzoB_23sweet_grass_integration6signer12tarpc_client10SigningRpc5serveB9_
FN:202,_RNvNtNtCs4hEEQusrzoB_23sweet_grass_integration6signer12tarpc_client27create_signing_client_async
FN:204,_RNCNvNtNtCs4hEEQusrzoB_23sweet_grass_integration6signer12tarpc_client27create_signing_client_async0B7_
FNDA:0,_RINvMs1_NtNtCs4hEEQusrzoB_23sweet_grass_integration6signer12tarpc_clientNtB6_16SigningRpcClient3newpEBa_
FNDA:0,_RNCNCNCNvMNtNtCs4hEEQusrzoB_23sweet_grass_integration6signer12tarpc_clientNtB8_18TarpcSigningClient7connect000Bc_
FNDA:0,_RNCNCNvMNtNtCs4hEEQusrzoB_23sweet_grass_integration6signer12tarpc_clientNtB6_18TarpcSigningClient11from_primal00Ba_
FNDA:0,_RNCNCNvXs9_NtNtCs4hEEQusrzoB_23sweet_grass_integration6signer12tarpc_clientNtB9_18TarpcSigningClientNtNtBb_6traits13SigningClient11current_did00Bd_
FNDA:0,_RNCNCNvXs9_NtNtCs4hEEQusrzoB_23sweet_grass_integration6signer12tarpc_clientNtB9_18TarpcSigningClientNtNtBb_6traits13SigningClient11resolve_did00Bd_
FNDA:0,_RNCNCNvXs9_NtNtCs4hEEQusrzoB_23sweet_grass_integration6signer12tarpc_clientNtB9_18TarpcSigningClientNtNtBb_6traits13SigningClient11resolve_did0s_0Bd_
FNDA:0,_RNCNCNvXs9_NtNtCs4hEEQusrzoB_23sweet_grass_integration6signer12tarpc_clientNtB9_18TarpcSigningClientNtNtBb_6traits13SigningClient4sign00Bd_
FNDA:0,_RNCNCNvXs9_NtNtCs4hEEQusrzoB_23sweet_grass_integration6signer12tarpc_clientNtB9_18TarpcSigningClientNtNtBb_6traits13SigningClient4sign0s0_0Bd_
FNDA:0,_RNCNCNvXs9_NtNtCs4hEEQusrzoB_23sweet_grass_integration6signer12tarpc_clientNtB9_18TarpcSigningClientNtNtBb_6traits13SigningClient4sign0s_0Bd_
FNDA:0,_RNCNCNvXs9_NtNtCs4hEEQusrzoB_23sweet_grass_integration6signer12tarpc_clientNtB9_18TarpcSigningClientNtNtBb_6traits13SigningClient6health00Bd_
FNDA:0,_RNCNCNvXs9_NtNtCs4hEEQusrzoB_23sweet_grass_integration6signer12tarpc_clientNtB9_18TarpcSigningClientNtNtBb_6traits13SigningClient6verify00Bd_
FNDA:0,_RNCNCNvXs9_NtNtCs4hEEQusrzoB_23sweet_grass_integration6signer12tarpc_clientNtB9_18TarpcSigningClientNtNtBb_6traits13SigningClient6verify0s_0Bd_
FNDA:0,_RNCNvMNtNtCs4hEEQusrzoB_23sweet_grass_integration6signer12tarpc_clientNtB4_18TarpcSigningClient11from_primal0B8_
FNDA:0,_RNCNvMNtNtCs4hEEQusrzoB_23sweet_grass_integration6signer12tarpc_clientNtB4_18TarpcSigningClient7connect0B8_
FNDA:0,_RNCNvMs3_NtNtCs4hEEQusrzoB_23sweet_grass_integration6signer12tarpc_clientINtB7_16SigningRpcClientpE10sign_braid0Bb_
FNDA:0,_RNCNvMs3_NtNtCs4hEEQusrzoB_23sweet_grass_integration6signer12tarpc_clientINtB7_16SigningRpcClientpE11current_did0Bb_
FNDA:0,_RNCNvMs3_NtNtCs4hEEQusrzoB_23sweet_grass_integration6signer12tarpc_clientINtB7_16SigningRpcClientpE11resolve_did0Bb_
FNDA:0,_RNCNvMs3_NtNtCs4hEEQusrzoB_23sweet_grass_integration6signer12tarpc_clientINtB7_16SigningRpcClientpE12verify_braid0Bb_
FNDA:0,_RNCNvMs3_NtNtCs4hEEQusrzoB_23sweet_grass_integration6signer12tarpc_clientINtB7_16SigningRpcClientpE6health0Bb_
FNDA:0,_RNvMNtNtCs4hEEQusrzoB_23sweet_grass_integration6signer12tarpc_clientNtB2_18TarpcSigningClient11from_primal
FNDA:0,_RNvMNtNtCs4hEEQusrzoB_23sweet_grass_integration6signer12tarpc_clientNtB2_18TarpcSigningClient7connect
FNDA:0,_RNvXININtNtCs4hEEQusrzoB_23sweet_grass_integration6signer12tarpc_clients2_0pEINtB5_16SigningRpcClientpEINtNtCs9sjCchOt1K7_4core7convert4FrompE4fromB9_
FNDA:0,_RNvXs9_NtNtCs4hEEQusrzoB_23sweet_grass_integration6signer12tarpc_clientNtB5_18TarpcSigningClientNtNtB7_6traits13SigningClient11current_did
FNDA:0,_RNvXs9_NtNtCs4hEEQusrzoB_23sweet_grass_integration6signer12tarpc_clientNtB5_18TarpcSigningClientNtNtB7_6traits13SigningClient11resolve_did
FNDA:0,_RNvXs9_NtNtCs4hEEQusrzoB_23sweet_grass_integration6signer12tarpc_clientNtB5_18TarpcSigningClientNtNtB7_6traits13SigningClient4sign
FNDA:0,_RNvXs9_NtNtCs4hEEQusrzoB_23sweet_grass_integration6signer12tarpc_clientNtB5_18TarpcSigningClientNtNtB7_6traits13SigningClient6health
FNDA:0,_RNvXs9_NtNtCs4hEEQusrzoB_23sweet_grass_integration6signer12tarpc_clientNtB5_18TarpcSigningClientNtNtB7_6traits13SigningClient6verify
FNDA:0,_RNvYpNtNtNtCs4hEEQusrzoB_23sweet_grass_integration6signer12tarpc_client10SigningRpc5serveB9_
FNDA:1,_RNvNtNtCs4hEEQusrzoB_23sweet_grass_integration6signer12tarpc_client27create_signing_client_async
FNDA:1,_RNCNvNtNtCs4hEEQusrzoB_23sweet_grass_integration6signer12tarpc_client27create_signing_client_async0B7_
FNF:24
FNH:2
DA:29,0
DA:81,0
DA:89,0
DA:95,0
DA:101,0
DA:102,0
DA:103,0
DA:104,0
DA:105,0
DA:106,0
DA:111,0
DA:112,0
DA:113,0
DA:114,0
DA:115,0
DA:116,0
DA:117,0
DA:118,0
DA:119,0
DA:120,0
DA:121,0
DA:122,0
DA:123,0
DA:124,0
DA:125,0
DA:126,0
DA:128,0
DA:129,0
DA:130,0
DA:131,0
DA:132,0
DA:133,0
DA:134,0
DA:135,0
DA:136,0
DA:137,0
DA:138,0
DA:139,0
DA:140,0
DA:141,0
DA:142,0
DA:143,0
DA:144,0
DA:145,0
DA:146,0
DA:147,0
DA:148,0
DA:149,0
DA:150,0
DA:151,0
DA:153,0
DA:154,0
DA:155,0
DA:156,0
DA:157,0
DA:158,0
DA:159,0
DA:160,0
DA:161,0
DA:162,0
DA:164,0
DA:165,0
DA:166,0
DA:167,0
DA:168,0
DA:169,0
DA:170,0
DA:171,0
DA:172,0
DA:173,0
DA:174,0
DA:175,0
DA:176,0
DA:177,0
DA:178,0
DA:179,0
DA:180,0
DA:182,0
DA:183,0
DA:184,0
DA:185,0
DA:186,0
DA:187,0
DA:188,0
DA:202,1
DA:203,1
DA:204,1
DA:205,1
DA:206,1
DA:207,1
DA:208,1
DA:209,1
DA:210,1
DA:211,1
DA:212,1
DA:213,1
DA:214,1
DA:215,1
DA:216,1
DA:217,1
BRF:0
BRH:0
LF:115
LH:17
end_of_record
SF:/home/strandgate/Development/ecoPrimals/phase2/sweetGrass/crates/sweet-grass-integration/src/signer/testing.rs
FN:82,_RNvMNtNtCs4hEEQusrzoB_23sweet_grass_integration6signer7testingNtB2_17MockSigningClient11with_health
FN:68,_RNvMNtNtCs4hEEQusrzoB_23sweet_grass_integration6signer7testingNtB2_17MockSigningClient16with_sign_result
FN:75,_RNvMNtNtCs4hEEQusrzoB_23sweet_grass_integration6signer7testingNtB2_17MockSigningClient18with_verify_result
FN:50,_RNvMNtNtCs4hEEQusrzoB_23sweet_grass_integration6signer7testingNtB2_17MockSigningClient3new
FN:61,_RNvMNtNtCs4hEEQusrzoB_23sweet_grass_integration6signer7testingNtB2_17MockSigningClient8with_did
FN:124,_RNvXs0_NtNtCs4hEEQusrzoB_23sweet_grass_integration6signer7testingNtB5_17MockSigningClientNtNtB7_6traits13SigningClient11current_did
FN:128,_RNvXs0_NtNtCs4hEEQusrzoB_23sweet_grass_integration6signer7testingNtB5_17MockSigningClientNtNtB7_6traits13SigningClient11resolve_did
FN:96,_RNvXs0_NtNtCs4hEEQusrzoB_23sweet_grass_integration6signer7testingNtB5_17MockSigningClientNtNtB7_6traits13SigningClient4sign
FN:142,_RNvXs0_NtNtCs4hEEQusrzoB_23sweet_grass_integration6signer7testingNtB5_17MockSigningClientNtNtB7_6traits13SigningClient6health
FN:112,_RNvXs0_NtNtCs4hEEQusrzoB_23sweet_grass_integration6signer7testingNtB5_17MockSigningClientNtNtB7_6traits13SigningClient6verify
FN:89,_RNvXs_NtNtCs4hEEQusrzoB_23sweet_grass_integration6signer7testingNtB4_17MockSigningClientNtNtCs9sjCchOt1K7_4core7default7Default7default
FNDA:1,_RNvMNtNtCs4hEEQusrzoB_23sweet_grass_integration6signer7testingNtB2_17MockSigningClient11with_health
FNDA:1,_RNvMNtNtCs4hEEQusrzoB_23sweet_grass_integration6signer7testingNtB2_17MockSigningClient16with_sign_result
FNDA:1,_RNvMNtNtCs4hEEQusrzoB_23sweet_grass_integration6signer7testingNtB2_17MockSigningClient18with_verify_result
FNDA:14,_RNvMNtNtCs4hEEQusrzoB_23sweet_grass_integration6signer7testingNtB2_17MockSigningClient3new
FNDA:2,_RNvMNtNtCs4hEEQusrzoB_23sweet_grass_integration6signer7testingNtB2_17MockSigningClient8with_did
FNDA:6,_RNvXs0_NtNtCs4hEEQusrzoB_23sweet_grass_integration6signer7testingNtB5_17MockSigningClientNtNtB7_6traits13SigningClient11current_did
FNDA:1,_RNvXs0_NtNtCs4hEEQusrzoB_23sweet_grass_integration6signer7testingNtB5_17MockSigningClientNtNtB7_6traits13SigningClient11resolve_did
FNDA:3,_RNvXs0_NtNtCs4hEEQusrzoB_23sweet_grass_integration6signer7testingNtB5_17MockSigningClientNtNtB7_6traits13SigningClient4sign
FNDA:4,_RNvXs0_NtNtCs4hEEQusrzoB_23sweet_grass_integration6signer7testingNtB5_17MockSigningClientNtNtB7_6traits13SigningClient6health
FNDA:3,_RNvXs0_NtNtCs4hEEQusrzoB_23sweet_grass_integration6signer7testingNtB5_17MockSigningClientNtNtB7_6traits13SigningClient6verify
FNDA:0,_RNvXs_NtNtCs4hEEQusrzoB_23sweet_grass_integration6signer7testingNtB4_17MockSigningClientNtNtCs9sjCchOt1K7_4core7default7Default7default
FNF:11
FNH:10
DA:50,14
DA:51,14
DA:52,14
DA:53,14
DA:54,14
DA:55,14
DA:56,14
DA:57,14
DA:61,2
DA:62,2
DA:63,2
DA:64,2
DA:68,1
DA:69,1
DA:70,1
DA:71,1
DA:75,1
DA:76,1
DA:77,1
DA:78,1
DA:82,1
DA:83,1
DA:84,1
DA:85,1
DA:89,0
DA:90,0
DA:91,0
DA:96,3
DA:97,3
DA:98,3
DA:99,3
DA:100,3
DA:101,3
DA:102,3
DA:103,3
DA:104,3
DA:105,3
DA:106,3
DA:107,3
DA:108,3
DA:109,3
DA:110,3
DA:112,3
DA:113,3
DA:114,3
DA:115,3
DA:116,3
DA:117,3
DA:118,3
DA:119,3
DA:120,3
DA:121,3
DA:122,3
DA:124,6
DA:125,6
DA:126,6
DA:128,1
DA:129,1
DA:130,1
DA:131,1
DA:132,1
DA:133,1
DA:134,1
DA:135,1
DA:136,1
DA:137,1
DA:138,1
DA:139,1
DA:140,1
DA:142,4
DA:143,4
DA:144,4
BRF:0
BRH:0
LF:72
LH:69
end_of_record
SF:/home/strandgate/Development/ecoPrimals/phase2/sweetGrass/crates/sweet-grass-integration/src/testing.rs
FN:45,_RINvNtCs4hEEQusrzoB_23sweet_grass_integration7testing19allocate_test_portsKj2_EB4_
FN:45,_RINvNtCs4hEEQusrzoB_23sweet_grass_integration7testing19allocate_test_portsKj3_EB4_
FN:28,_RNvNtCs4hEEQusrzoB_23sweet_grass_integration7testing18allocate_test_port
FN:58,_RNvNtNtCs4hEEQusrzoB_23sweet_grass_integration7testing5testss_18test_allocate_port
FN:75,_RNvNtNtCs4hEEQusrzoB_23sweet_grass_integration7testing5testss_24test_ports_are_available
FN:64,_RNvNtNtCs4hEEQusrzoB_23sweet_grass_integration7testing5testss_28test_allocate_multiple_ports
FNDA:14,_RINvNtCs4hEEQusrzoB_23sweet_grass_integration7testing19allocate_test_portsKj2_EB4_
FNDA:1,_RINvNtCs4hEEQusrzoB_23sweet_grass_integration7testing19allocate_test_portsKj3_EB4_
FNDA:35,_RNvNtCs4hEEQusrzoB_23sweet_grass_integration7testing18allocate_test_port
FNDA:1,_RNvNtNtCs4hEEQusrzoB_23sweet_grass_integration7testing5testss_18test_allocate_port
FNDA:1,_RNvNtNtCs4hEEQusrzoB_23sweet_grass_integration7testing5testss_24test_ports_are_available
FNDA:1,_RNvNtNtCs4hEEQusrzoB_23sweet_grass_integration7testing5testss_28test_allocate_multiple_ports
FNF:5
FNH:5
DA:28,35
DA:29,35
DA:30,35
DA:31,35
DA:32,35
DA:33,35
DA:34,35
DA:45,15
DA:46,15
DA:47,46
DA:48,31
DA:49,31
DA:50,15
DA:51,15
DA:58,1
DA:59,1
DA:60,1
DA:61,1
DA:64,1
DA:65,1
DA:66,1
DA:69,1
DA:70,1
DA:71,1
DA:72,1
DA:75,1
DA:76,1
DA:77,1
DA:78,1
DA:79,1
DA:80,1
DA:81,1
BRF:0
BRH:0
LF:32
LH:32
end_of_record
SF:/home/strandgate/Development/ecoPrimals/phase2/sweetGrass/crates/sweet-grass-query/src/engine.rs
FN:120,_RNCNCNvMNtCs37lZsjijy2z_17sweet_grass_query6engineNtB6_11QueryEngine17attribution_chain00Csad6wFluTeQR_11integration
FN:184,_RNCNCNvMNtCs37lZsjijy2z_17sweet_grass_query6engineNtB6_11QueryEngine18export_braid_provo00Csad6wFluTeQR_11integration
FN:53,_RNCNvMNtCs37lZsjijy2z_17sweet_grass_query6engineNtB4_11QueryEngine11get_by_hash0Csad6wFluTeQR_11integration
FN:84,_RNCNvMNtCs37lZsjijy2z_17sweet_grass_query6engineNtB4_11QueryEngine16provenance_graph0Csad6wFluTeQR_11integration
FN:116,_RNCNvMNtCs37lZsjijy2z_17sweet_grass_query6engineNtB4_11QueryEngine17attribution_chain0Csad6wFluTeQR_11integration
FN:180,_RNCNvMNtCs37lZsjijy2z_17sweet_grass_query6engineNtB4_11QueryEngine18export_braid_provo0Csad6wFluTeQR_11integration
FN:107,_RNvMNtCs37lZsjijy2z_17sweet_grass_query6engineNtB2_11QueryEngine11descendants
FN:53,_RNvMNtCs37lZsjijy2z_17sweet_grass_query6engineNtB2_11QueryEngine11get_by_hash
FN:68,_RNvMNtCs37lZsjijy2z_17sweet_grass_query6engineNtB2_11QueryEngine12derived_from
FN:40,_RNvMNtCs37lZsjijy2z_17sweet_grass_query6engineNtB2_11QueryEngine14with_max_depth
FN:80,_RNvMNtCs37lZsjijy2z_17sweet_grass_query6engineNtB2_11QueryEngine16provenance_graph
FN:116,_RNvMNtCs37lZsjijy2z_17sweet_grass_query6engineNtB2_11QueryEngine17attribution_chain
FN:180,_RNvMNtCs37lZsjijy2z_17sweet_grass_query6engineNtB2_11QueryEngine18export_braid_provo
FN:191,_RNvMNtCs37lZsjijy2z_17sweet_grass_query6engineNtB2_11QueryEngine18export_graph_provo
FN:155,_RNvMNtCs37lZsjijy2z_17sweet_grass_query6engineNtB2_11QueryEngine19agent_contributions
FN:132,_RNvMNtCs37lZsjijy2z_17sweet_grass_query6engineNtB2_11QueryEngine22full_attribution_chain
FN:48,_RNvMNtCs37lZsjijy2z_17sweet_grass_query6engineNtB2_11QueryEngine3get
FN:31,_RNvMNtCs37lZsjijy2z_17sweet_grass_query6engineNtB2_11QueryEngine3new
FN:58,_RNvMNtCs37lZsjijy2z_17sweet_grass_query6engineNtB2_11QueryEngine5query
FN:73,_RNvMNtCs37lZsjijy2z_17sweet_grass_query6engineNtB2_11QueryEngine6exists
FN:63,_RNvMNtCs37lZsjijy2z_17sweet_grass_query6engineNtB2_11QueryEngine8by_agent
FN:93,_RNvMNtCs37lZsjijy2z_17sweet_grass_query6engineNtB2_11QueryEngine9ancestors
FN:120,_RNCNCNvMNtCs37lZsjijy2z_17sweet_grass_query6engineNtB6_11QueryEngine17attribution_chain00B8_
FN:184,_RNCNCNvMNtCs37lZsjijy2z_17sweet_grass_query6engineNtB6_11QueryEngine18export_braid_provo00B8_
FN:158,_RNCNCNvMNtCs37lZsjijy2z_17sweet_grass_query6engineNtB6_11QueryEngine19agent_contributions00B8_
FN:145,_RNCNCNvMNtCs37lZsjijy2z_17sweet_grass_query6engineNtB6_11QueryEngine22full_attribution_chain00B8_
FN:148,_RNCNCNvMNtCs37lZsjijy2z_17sweet_grass_query6engineNtB6_11QueryEngine22full_attribution_chain0s_0B8_
FN:102,_RNCNCNvMNtCs37lZsjijy2z_17sweet_grass_query6engineNtB6_11QueryEngine9ancestors00B8_
FN:107,_RNCNvMNtCs37lZsjijy2z_17sweet_grass_query6engineNtB4_11QueryEngine11descendants0B6_
FN:53,_RNCNvMNtCs37lZsjijy2z_17sweet_grass_query6engineNtB4_11QueryEngine11get_by_hash0B6_
FN:68,_RNCNvMNtCs37lZsjijy2z_17sweet_grass_query6engineNtB4_11QueryEngine12derived_from0B6_
FN:84,_RNCNvMNtCs37lZsjijy2z_17sweet_grass_query6engineNtB4_11QueryEngine16provenance_graph0B6_
FN:116,_RNCNvMNtCs37lZsjijy2z_17sweet_grass_query6engineNtB4_11QueryEngine17attribution_chain0B6_
FN:180,_RNCNvMNtCs37lZsjijy2z_17sweet_grass_query6engineNtB4_11QueryEngine18export_braid_provo0B6_
FN:195,_RNCNvMNtCs37lZsjijy2z_17sweet_grass_query6engineNtB4_11QueryEngine18export_graph_provo0B6_
FN:155,_RNCNvMNtCs37lZsjijy2z_17sweet_grass_query6engineNtB4_11QueryEngine19agent_contributions0B6_
FN:136,_RNCNvMNtCs37lZsjijy2z_17sweet_grass_query6engineNtB4_11QueryEngine22full_attribution_chain0B6_
FN:48,_RNCNvMNtCs37lZsjijy2z_17sweet_grass_query6engineNtB4_11QueryEngine3get0B6_
FN:58,_RNCNvMNtCs37lZsjijy2z_17sweet_grass_query6engineNtB4_11QueryEngine5query0B6_
FN:73,_RNCNvMNtCs37lZsjijy2z_17sweet_grass_query6engineNtB4_11QueryEngine6exists0B6_
FN:63,_RNCNvMNtCs37lZsjijy2z_17sweet_grass_query6engineNtB4_11QueryEngine8by_agent0B6_
FN:93,_RNCNvMNtCs37lZsjijy2z_17sweet_grass_query6engineNtB4_11QueryEngine9ancestors0B6_
FN:145,_RNCNCNvMNtCs53T6FtQI1eQ_17sweet_grass_query6engineNtB6_11QueryEngine22full_attribution_chain00B8_
FN:148,_RNCNCNvMNtCs53T6FtQI1eQ_17sweet_grass_query6engineNtB6_11QueryEngine22full_attribution_chain0s_0B8_
FN:102,_RNCNCNvMNtCs53T6FtQI1eQ_17sweet_grass_query6engineNtB6_11QueryEngine9ancestors00B8_
FN:107,_RNCNvMNtCs53T6FtQI1eQ_17sweet_grass_query6engineNtB4_11QueryEngine11descendants0B6_
FN:136,_RNCNvMNtCs53T6FtQI1eQ_17sweet_grass_query6engineNtB4_11QueryEngine22full_attribution_chain0B6_
FN:93,_RNCNvMNtCs53T6FtQI1eQ_17sweet_grass_query6engineNtB4_11QueryEngine9ancestors0B6_
FN:107,_RNvMNtCs53T6FtQI1eQ_17sweet_grass_query6engineNtB2_11QueryEngine11descendants
FN:132,_RNvMNtCs53T6FtQI1eQ_17sweet_grass_query6engineNtB2_11QueryEngine22full_attribution_chain
FN:93,_RNvMNtCs53T6FtQI1eQ_17sweet_grass_query6engineNtB2_11QueryEngine9ancestors
FN:381,_RNCNvNtNtCs53T6FtQI1eQ_17sweet_grass_query6engine5testss_11test_exists0B7_
FN:252,_RNCNvNtNtCs53T6FtQI1eQ_17sweet_grass_query6engine5testss_13test_by_agent0B7_
FN:357,_RNCNvNtNtCs53T6FtQI1eQ_17sweet_grass_query6engine5testss_14test_get_by_id0B7_
FN:414,_RNCNvNtNtCs53T6FtQI1eQ_17sweet_grass_query6engine5testss_14test_max_depth0B7_
FN:236,_RNCNvNtNtCs53T6FtQI1eQ_17sweet_grass_query6engine5testss_16test_basic_query0B7_
FN:395,_RNCNvNtNtCs53T6FtQI1eQ_17sweet_grass_query6engine5testss_17test_derived_from0B7_
FN:340,_RNCNvNtNtCs53T6FtQI1eQ_17sweet_grass_query6engine5testss_17test_export_provo0B7_
FN:428,_RNCNvNtNtCs53T6FtQI1eQ_17sweet_grass_query6engine5testss_17test_query_filter0B7_
FN:370,_RNCNvNtNtCs53T6FtQI1eQ_17sweet_grass_query6engine5testss_20test_get_nonexistent0B7_
FN:279,_RNCNvNtNtCs53T6FtQI1eQ_17sweet_grass_query6engine5testss_21test_provenance_graph0B7_
FN:299,_RNCNvNtNtCs53T6FtQI1eQ_17sweet_grass_query6engine5testss_22test_attribution_chain0B7_
FN:315,_RNCNvNtNtCs53T6FtQI1eQ_17sweet_grass_query6engine5testss_24test_agent_contributions0B7_
FN:459,_RNCNvNtNtCs53T6FtQI1eQ_17sweet_grass_query6engine5testss_28test_provenance_graph_export0B7_
FN:449,_RNCNvNtNtCs53T6FtQI1eQ_17sweet_grass_query6engine5testss_32test_attribution_chain_not_found0B7_
FN:53,_RNvMNtCs53T6FtQI1eQ_17sweet_grass_query6engineNtB2_11QueryEngine11get_by_hash
FN:68,_RNvMNtCs53T6FtQI1eQ_17sweet_grass_query6engineNtB2_11QueryEngine12derived_from
FN:40,_RNvMNtCs53T6FtQI1eQ_17sweet_grass_query6engineNtB2_11QueryEngine14with_max_depth
FN:80,_RNvMNtCs53T6FtQI1eQ_17sweet_grass_query6engineNtB2_11QueryEngine16provenance_graph
FN:116,_RNvMNtCs53T6FtQI1eQ_17sweet_grass_query6engineNtB2_11QueryEngine17attribution_chain
FN:180,_RNvMNtCs53T6FtQI1eQ_17sweet_grass_query6engineNtB2_11QueryEngine18export_braid_provo
FN:191,_RNvMNtCs53T6FtQI1eQ_17sweet_grass_query6engineNtB2_11QueryEngine18export_graph_provo
FN:155,_RNvMNtCs53T6FtQI1eQ_17sweet_grass_query6engineNtB2_11QueryEngine19agent_contributions
FN:48,_RNvMNtCs53T6FtQI1eQ_17sweet_grass_query6engineNtB2_11QueryEngine3get
FN:31,_RNvMNtCs53T6FtQI1eQ_17sweet_grass_query6engineNtB2_11QueryEngine3new
FN:58,_RNvMNtCs53T6FtQI1eQ_17sweet_grass_query6engineNtB2_11QueryEngine5query
FN:73,_RNvMNtCs53T6FtQI1eQ_17sweet_grass_query6engineNtB2_11QueryEngine6exists
FN:63,_RNvMNtCs53T6FtQI1eQ_17sweet_grass_query6engineNtB2_11QueryEngine8by_agent
FN:120,_RNCNCNvMNtCs53T6FtQI1eQ_17sweet_grass_query6engineNtB6_11QueryEngine17attribution_chain00B8_
FN:184,_RNCNCNvMNtCs53T6FtQI1eQ_17sweet_grass_query6engineNtB6_11QueryEngine18export_braid_provo00B8_
FN:158,_RNCNCNvMNtCs53T6FtQI1eQ_17sweet_grass_query6engineNtB6_11QueryEngine19agent_contributions00B8_
FN:53,_RNCNvMNtCs53T6FtQI1eQ_17sweet_grass_query6engineNtB4_11QueryEngine11get_by_hash0B6_
FN:68,_RNCNvMNtCs53T6FtQI1eQ_17sweet_grass_query6engineNtB4_11QueryEngine12derived_from0B6_
FN:84,_RNCNvMNtCs53T6FtQI1eQ_17sweet_grass_query6engineNtB4_11QueryEngine16provenance_graph0B6_
FN:116,_RNCNvMNtCs53T6FtQI1eQ_17sweet_grass_query6engineNtB4_11QueryEngine17attribution_chain0B6_
FN:180,_RNCNvMNtCs53T6FtQI1eQ_17sweet_grass_query6engineNtB4_11QueryEngine18export_braid_provo0B6_
FN:195,_RNCNvMNtCs53T6FtQI1eQ_17sweet_grass_query6engineNtB4_11QueryEngine18export_graph_provo0B6_
FN:155,_RNCNvMNtCs53T6FtQI1eQ_17sweet_grass_query6engineNtB4_11QueryEngine19agent_contributions0B6_
FN:48,_RNCNvMNtCs53T6FtQI1eQ_17sweet_grass_query6engineNtB4_11QueryEngine3get0B6_
FN:58,_RNCNvMNtCs53T6FtQI1eQ_17sweet_grass_query6engineNtB4_11QueryEngine5query0B6_
FN:73,_RNCNvMNtCs53T6FtQI1eQ_17sweet_grass_query6engineNtB4_11QueryEngine6exists0B6_
FN:63,_RNCNvMNtCs53T6FtQI1eQ_17sweet_grass_query6engineNtB4_11QueryEngine8by_agent0B6_
FN:224,_RNvNtNtCs53T6FtQI1eQ_17sweet_grass_query6engine5tests15make_test_braid
FN:381,_RNvNtNtCs53T6FtQI1eQ_17sweet_grass_query6engine5testss_11test_exists
FN:252,_RNvNtNtCs53T6FtQI1eQ_17sweet_grass_query6engine5testss_13test_by_agent
FN:357,_RNvNtNtCs53T6FtQI1eQ_17sweet_grass_query6engine5testss_14test_get_by_id
FN:414,_RNvNtNtCs53T6FtQI1eQ_17sweet_grass_query6engine5testss_14test_max_depth
FN:236,_RNvNtNtCs53T6FtQI1eQ_17sweet_grass_query6engine5testss_16test_basic_query
FN:395,_RNvNtNtCs53T6FtQI1eQ_17sweet_grass_query6engine5testss_17test_derived_from
FN:340,_RNvNtNtCs53T6FtQI1eQ_17sweet_grass_query6engine5testss_17test_export_provo
FN:428,_RNvNtNtCs53T6FtQI1eQ_17sweet_grass_query6engine5testss_17test_query_filter
FN:370,_RNvNtNtCs53T6FtQI1eQ_17sweet_grass_query6engine5testss_20test_get_nonexistent
FN:279,_RNvNtNtCs53T6FtQI1eQ_17sweet_grass_query6engine5testss_21test_provenance_graph
FN:299,_RNvNtNtCs53T6FtQI1eQ_17sweet_grass_query6engine5testss_22test_attribution_chain
FN:315,_RNvNtNtCs53T6FtQI1eQ_17sweet_grass_query6engine5testss_24test_agent_contributions
FN:459,_RNvNtNtCs53T6FtQI1eQ_17sweet_grass_query6engine5testss_28test_provenance_graph_export
FN:449,_RNvNtNtCs53T6FtQI1eQ_17sweet_grass_query6engine5testss_32test_attribution_chain_not_found
FN:120,_RNCNCNvMNtCs37lZsjijy2z_17sweet_grass_query6engineNtB6_11QueryEngine17attribution_chain00CsdjAd9q7fPo9_19sweet_grass_service
FN:53,_RNCNvMNtCs37lZsjijy2z_17sweet_grass_query6engineNtB4_11QueryEngine11get_by_hash0CsdjAd9q7fPo9_19sweet_grass_service
FN:84,_RNCNvMNtCs37lZsjijy2z_17sweet_grass_query6engineNtB4_11QueryEngine16provenance_graph0CsdjAd9q7fPo9_19sweet_grass_service
FN:116,_RNCNvMNtCs37lZsjijy2z_17sweet_grass_query6engineNtB4_11QueryEngine17attribution_chain0CsdjAd9q7fPo9_19sweet_grass_service
FN:195,_RNCNvMNtCs37lZsjijy2z_17sweet_grass_query6engineNtB4_11QueryEngine18export_graph_provo0CsdjAd9q7fPo9_19sweet_grass_service
FN:120,_RNCNCNvMNtCs37lZsjijy2z_17sweet_grass_query6engineNtB6_11QueryEngine17attribution_chain00CsZK8v8cnrxE_19sweet_grass_service
FN:184,_RNCNCNvMNtCs37lZsjijy2z_17sweet_grass_query6engineNtB6_11QueryEngine18export_braid_provo00CsZK8v8cnrxE_19sweet_grass_service
FN:53,_RNCNvMNtCs37lZsjijy2z_17sweet_grass_query6engineNtB4_11QueryEngine11get_by_hash0CsZK8v8cnrxE_19sweet_grass_service
FN:84,_RNCNvMNtCs37lZsjijy2z_17sweet_grass_query6engineNtB4_11QueryEngine16provenance_graph0CsZK8v8cnrxE_19sweet_grass_service
FN:116,_RNCNvMNtCs37lZsjijy2z_17sweet_grass_query6engineNtB4_11QueryEngine17attribution_chain0CsZK8v8cnrxE_19sweet_grass_service
FN:180,_RNCNvMNtCs37lZsjijy2z_17sweet_grass_query6engineNtB4_11QueryEngine18export_braid_provo0CsZK8v8cnrxE_19sweet_grass_service
FN:195,_RNCNvMNtCs37lZsjijy2z_17sweet_grass_query6engineNtB4_11QueryEngine18export_graph_provo0CsZK8v8cnrxE_19sweet_grass_service
FNDA:0,_RNCNCNvMNtCs37lZsjijy2z_17sweet_grass_query6engineNtB6_11QueryEngine17attribution_chain00Csad6wFluTeQR_11integration
FNDA:0,_RNCNCNvMNtCs37lZsjijy2z_17sweet_grass_query6engineNtB6_11QueryEngine18export_braid_provo00Csad6wFluTeQR_11integration
FNDA:4,_RNCNvMNtCs37lZsjijy2z_17sweet_grass_query6engineNtB4_11QueryEngine11get_by_hash0Csad6wFluTeQR_11integration
FNDA:2,_RNCNvMNtCs37lZsjijy2z_17sweet_grass_query6engineNtB4_11QueryEngine16provenance_graph0Csad6wFluTeQR_11integration
FNDA:2,_RNCNvMNtCs37lZsjijy2z_17sweet_grass_query6engineNtB4_11QueryEngine17attribution_chain0Csad6wFluTeQR_11integration
FNDA:2,_RNCNvMNtCs37lZsjijy2z_17sweet_grass_query6engineNtB4_11QueryEngine18export_braid_provo0Csad6wFluTeQR_11integration
FNDA:0,_RNvMNtCs37lZsjijy2z_17sweet_grass_query6engineNtB2_11QueryEngine11descendants
FNDA:10,_RNvMNtCs37lZsjijy2z_17sweet_grass_query6engineNtB2_11QueryEngine11get_by_hash
FNDA:0,_RNvMNtCs37lZsjijy2z_17sweet_grass_query6engineNtB2_11QueryEngine12derived_from
FNDA:0,_RNvMNtCs37lZsjijy2z_17sweet_grass_query6engineNtB2_11QueryEngine14with_max_depth
FNDA:7,_RNvMNtCs37lZsjijy2z_17sweet_grass_query6engineNtB2_11QueryEngine16provenance_graph
FNDA:7,_RNvMNtCs37lZsjijy2z_17sweet_grass_query6engineNtB2_11QueryEngine17attribution_chain
FNDA:3,_RNvMNtCs37lZsjijy2z_17sweet_grass_query6engineNtB2_11QueryEngine18export_braid_provo
FNDA:5,_RNvMNtCs37lZsjijy2z_17sweet_grass_query6engineNtB2_11QueryEngine18export_graph_provo
FNDA:0,_RNvMNtCs37lZsjijy2z_17sweet_grass_query6engineNtB2_11QueryEngine19agent_contributions
FNDA:0,_RNvMNtCs37lZsjijy2z_17sweet_grass_query6engineNtB2_11QueryEngine22full_attribution_chain
FNDA:0,_RNvMNtCs37lZsjijy2z_17sweet_grass_query6engineNtB2_11QueryEngine3get
FNDA:80,_RNvMNtCs37lZsjijy2z_17sweet_grass_query6engineNtB2_11QueryEngine3new
FNDA:0,_RNvMNtCs37lZsjijy2z_17sweet_grass_query6engineNtB2_11QueryEngine5query
FNDA:0,_RNvMNtCs37lZsjijy2z_17sweet_grass_query6engineNtB2_11QueryEngine6exists
FNDA:0,_RNvMNtCs37lZsjijy2z_17sweet_grass_query6engineNtB2_11QueryEngine8by_agent
FNDA:0,_RNvMNtCs37lZsjijy2z_17sweet_grass_query6engineNtB2_11QueryEngine9ancestors
FNDA:0,_RNCNCNvMNtCs37lZsjijy2z_17sweet_grass_query6engineNtB6_11QueryEngine17attribution_chain00B8_
FNDA:0,_RNCNCNvMNtCs37lZsjijy2z_17sweet_grass_query6engineNtB6_11QueryEngine18export_braid_provo00B8_
FNDA:0,_RNCNCNvMNtCs37lZsjijy2z_17sweet_grass_query6engineNtB6_11QueryEngine19agent_contributions00B8_
FNDA:0,_RNCNCNvMNtCs37lZsjijy2z_17sweet_grass_query6engineNtB6_11QueryEngine22full_attribution_chain00B8_
FNDA:0,_RNCNCNvMNtCs37lZsjijy2z_17sweet_grass_query6engineNtB6_11QueryEngine22full_attribution_chain0s_0B8_
FNDA:0,_RNCNCNvMNtCs37lZsjijy2z_17sweet_grass_query6engineNtB6_11QueryEngine9ancestors00B8_
FNDA:0,_RNCNvMNtCs37lZsjijy2z_17sweet_grass_query6engineNtB4_11QueryEngine11descendants0B6_
FNDA:0,_RNCNvMNtCs37lZsjijy2z_17sweet_grass_query6engineNtB4_11QueryEngine11get_by_hash0B6_
FNDA:0,_RNCNvMNtCs37lZsjijy2z_17sweet_grass_query6engineNtB4_11QueryEngine12derived_from0B6_
FNDA:0,_RNCNvMNtCs37lZsjijy2z_17sweet_grass_query6engineNtB4_11QueryEngine16provenance_graph0B6_
FNDA:0,_RNCNvMNtCs37lZsjijy2z_17sweet_grass_query6engineNtB4_11QueryEngine17attribution_chain0B6_
FNDA:0,_RNCNvMNtCs37lZsjijy2z_17sweet_grass_query6engineNtB4_11QueryEngine18export_braid_provo0B6_
FNDA:0,_RNCNvMNtCs37lZsjijy2z_17sweet_grass_query6engineNtB4_11QueryEngine18export_graph_provo0B6_
FNDA:0,_RNCNvMNtCs37lZsjijy2z_17sweet_grass_query6engineNtB4_11QueryEngine19agent_contributions0B6_
FNDA:0,_RNCNvMNtCs37lZsjijy2z_17sweet_grass_query6engineNtB4_11QueryEngine22full_attribution_chain0B6_
FNDA:0,_RNCNvMNtCs37lZsjijy2z_17sweet_grass_query6engineNtB4_11QueryEngine3get0B6_
FNDA:0,_RNCNvMNtCs37lZsjijy2z_17sweet_grass_query6engineNtB4_11QueryEngine5query0B6_
FNDA:0,_RNCNvMNtCs37lZsjijy2z_17sweet_grass_query6engineNtB4_11QueryEngine6exists0B6_
FNDA:0,_RNCNvMNtCs37lZsjijy2z_17sweet_grass_query6engineNtB4_11QueryEngine8by_agent0B6_
FNDA:0,_RNCNvMNtCs37lZsjijy2z_17sweet_grass_query6engineNtB4_11QueryEngine9ancestors0B6_
FNDA:0,_RNCNCNvMNtCs53T6FtQI1eQ_17sweet_grass_query6engineNtB6_11QueryEngine22full_attribution_chain00B8_
FNDA:0,_RNCNCNvMNtCs53T6FtQI1eQ_17sweet_grass_query6engineNtB6_11QueryEngine22full_attribution_chain0s_0B8_
FNDA:0,_RNCNCNvMNtCs53T6FtQI1eQ_17sweet_grass_query6engineNtB6_11QueryEngine9ancestors00B8_
FNDA:0,_RNCNvMNtCs53T6FtQI1eQ_17sweet_grass_query6engineNtB4_11QueryEngine11descendants0B6_
FNDA:0,_RNCNvMNtCs53T6FtQI1eQ_17sweet_grass_query6engineNtB4_11QueryEngine22full_attribution_chain0B6_
FNDA:0,_RNCNvMNtCs53T6FtQI1eQ_17sweet_grass_query6engineNtB4_11QueryEngine9ancestors0B6_
FNDA:0,_RNvMNtCs53T6FtQI1eQ_17sweet_grass_query6engineNtB2_11QueryEngine11descendants
FNDA:0,_RNvMNtCs53T6FtQI1eQ_17sweet_grass_query6engineNtB2_11QueryEngine22full_attribution_chain
FNDA:0,_RNvMNtCs53T6FtQI1eQ_17sweet_grass_query6engineNtB2_11QueryEngine9ancestors
FNDA:1,_RNCNvNtNtCs53T6FtQI1eQ_17sweet_grass_query6engine5testss_11test_exists0B7_
FNDA:1,_RNCNvNtNtCs53T6FtQI1eQ_17sweet_grass_query6engine5testss_13test_by_agent0B7_
FNDA:1,_RNCNvNtNtCs53T6FtQI1eQ_17sweet_grass_query6engine5testss_14test_get_by_id0B7_
FNDA:1,_RNCNvNtNtCs53T6FtQI1eQ_17sweet_grass_query6engine5testss_14test_max_depth0B7_
FNDA:1,_RNCNvNtNtCs53T6FtQI1eQ_17sweet_grass_query6engine5testss_16test_basic_query0B7_
FNDA:1,_RNCNvNtNtCs53T6FtQI1eQ_17sweet_grass_query6engine5testss_17test_derived_from0B7_
FNDA:1,_RNCNvNtNtCs53T6FtQI1eQ_17sweet_grass_query6engine5testss_17test_export_provo0B7_
FNDA:1,_RNCNvNtNtCs53T6FtQI1eQ_17sweet_grass_query6engine5testss_17test_query_filter0B7_
FNDA:1,_RNCNvNtNtCs53T6FtQI1eQ_17sweet_grass_query6engine5testss_20test_get_nonexistent0B7_
FNDA:1,_RNCNvNtNtCs53T6FtQI1eQ_17sweet_grass_query6engine5testss_21test_provenance_graph0B7_
FNDA:1,_RNCNvNtNtCs53T6FtQI1eQ_17sweet_grass_query6engine5testss_22test_attribution_chain0B7_
FNDA:1,_RNCNvNtNtCs53T6FtQI1eQ_17sweet_grass_query6engine5testss_24test_agent_contributions0B7_
FNDA:1,_RNCNvNtNtCs53T6FtQI1eQ_17sweet_grass_query6engine5testss_28test_provenance_graph_export0B7_
FNDA:1,_RNCNvNtNtCs53T6FtQI1eQ_17sweet_grass_query6engine5testss_32test_attribution_chain_not_found0B7_
FNDA:5,_RNvMNtCs53T6FtQI1eQ_17sweet_grass_query6engineNtB2_11QueryEngine11get_by_hash
FNDA:1,_RNvMNtCs53T6FtQI1eQ_17sweet_grass_query6engineNtB2_11QueryEngine12derived_from
FNDA:1,_RNvMNtCs53T6FtQI1eQ_17sweet_grass_query6engineNtB2_11QueryEngine14with_max_depth
FNDA:3,_RNvMNtCs53T6FtQI1eQ_17sweet_grass_query6engineNtB2_11QueryEngine16provenance_graph
FNDA:2,_RNvMNtCs53T6FtQI1eQ_17sweet_grass_query6engineNtB2_11QueryEngine17attribution_chain
FNDA:1,_RNvMNtCs53T6FtQI1eQ_17sweet_grass_query6engineNtB2_11QueryEngine18export_braid_provo
FNDA:1,_RNvMNtCs53T6FtQI1eQ_17sweet_grass_query6engineNtB2_11QueryEngine18export_graph_provo
FNDA:1,_RNvMNtCs53T6FtQI1eQ_17sweet_grass_query6engineNtB2_11QueryEngine19agent_contributions
FNDA:1,_RNvMNtCs53T6FtQI1eQ_17sweet_grass_query6engineNtB2_11QueryEngine3get
FNDA:14,_RNvMNtCs53T6FtQI1eQ_17sweet_grass_query6engineNtB2_11QueryEngine3new
FNDA:1,_RNvMNtCs53T6FtQI1eQ_17sweet_grass_query6engineNtB2_11QueryEngine5query
FNDA:2,_RNvMNtCs53T6FtQI1eQ_17sweet_grass_query6engineNtB2_11QueryEngine6exists
FNDA:2,_RNvMNtCs53T6FtQI1eQ_17sweet_grass_query6engineNtB2_11QueryEngine8by_agent
FNDA:1,_RNCNCNvMNtCs53T6FtQI1eQ_17sweet_grass_query6engineNtB6_11QueryEngine17attribution_chain00B8_
FNDA:0,_RNCNCNvMNtCs53T6FtQI1eQ_17sweet_grass_query6engineNtB6_11QueryEngine18export_braid_provo00B8_
FNDA:2,_RNCNCNvMNtCs53T6FtQI1eQ_17sweet_grass_query6engineNtB6_11QueryEngine19agent_contributions00B8_
FNDA:5,_RNCNvMNtCs53T6FtQI1eQ_17sweet_grass_query6engineNtB4_11QueryEngine11get_by_hash0B6_
FNDA:1,_RNCNvMNtCs53T6FtQI1eQ_17sweet_grass_query6engineNtB4_11QueryEngine12derived_from0B6_
FNDA:3,_RNCNvMNtCs53T6FtQI1eQ_17sweet_grass_query6engineNtB4_11QueryEngine16provenance_graph0B6_
FNDA:2,_RNCNvMNtCs53T6FtQI1eQ_17sweet_grass_query6engineNtB4_11QueryEngine17attribution_chain0B6_
FNDA:1,_RNCNvMNtCs53T6FtQI1eQ_17sweet_grass_query6engineNtB4_11QueryEngine18export_braid_provo0B6_
FNDA:1,_RNCNvMNtCs53T6FtQI1eQ_17sweet_grass_query6engineNtB4_11QueryEngine18export_graph_provo0B6_
FNDA:1,_RNCNvMNtCs53T6FtQI1eQ_17sweet_grass_query6engineNtB4_11QueryEngine19agent_contributions0B6_
FNDA:1,_RNCNvMNtCs53T6FtQI1eQ_17sweet_grass_query6engineNtB4_11QueryEngine3get0B6_
FNDA:1,_RNCNvMNtCs53T6FtQI1eQ_17sweet_grass_query6engineNtB4_11QueryEngine5query0B6_
FNDA:2,_RNCNvMNtCs53T6FtQI1eQ_17sweet_grass_query6engineNtB4_11QueryEngine6exists0B6_
FNDA:2,_RNCNvMNtCs53T6FtQI1eQ_17sweet_grass_query6engineNtB4_11QueryEngine8by_agent0B6_
FNDA:19,_RNvNtNtCs53T6FtQI1eQ_17sweet_grass_query6engine5tests15make_test_braid
FNDA:1,_RNvNtNtCs53T6FtQI1eQ_17sweet_grass_query6engine5testss_11test_exists
FNDA:1,_RNvNtNtCs53T6FtQI1eQ_17sweet_grass_query6engine5testss_13test_by_agent
FNDA:1,_RNvNtNtCs53T6FtQI1eQ_17sweet_grass_query6engine5testss_14test_get_by_id
FNDA:1,_RNvNtNtCs53T6FtQI1eQ_17sweet_grass_query6engine5testss_14test_max_depth
FNDA:1,_RNvNtNtCs53T6FtQI1eQ_17sweet_grass_query6engine5testss_16test_basic_query
FNDA:1,_RNvNtNtCs53T6FtQI1eQ_17sweet_grass_query6engine5testss_17test_derived_from
FNDA:1,_RNvNtNtCs53T6FtQI1eQ_17sweet_grass_query6engine5testss_17test_export_provo
FNDA:1,_RNvNtNtCs53T6FtQI1eQ_17sweet_grass_query6engine5testss_17test_query_filter
FNDA:1,_RNvNtNtCs53T6FtQI1eQ_17sweet_grass_query6engine5testss_20test_get_nonexistent
FNDA:1,_RNvNtNtCs53T6FtQI1eQ_17sweet_grass_query6engine5testss_21test_provenance_graph
FNDA:1,_RNvNtNtCs53T6FtQI1eQ_17sweet_grass_query6engine5testss_22test_attribution_chain
FNDA:1,_RNvNtNtCs53T6FtQI1eQ_17sweet_grass_query6engine5testss_24test_agent_contributions
FNDA:1,_RNvNtNtCs53T6FtQI1eQ_17sweet_grass_query6engine5testss_28test_provenance_graph_export
FNDA:1,_RNvNtNtCs53T6FtQI1eQ_17sweet_grass_query6engine5testss_32test_attribution_chain_not_found
FNDA:0,_RNCNCNvMNtCs37lZsjijy2z_17sweet_grass_query6engineNtB6_11QueryEngine17attribution_chain00CsdjAd9q7fPo9_19sweet_grass_service
FNDA:0,_RNCNvMNtCs37lZsjijy2z_17sweet_grass_query6engineNtB4_11QueryEngine11get_by_hash0CsdjAd9q7fPo9_19sweet_grass_service
FNDA:0,_RNCNvMNtCs37lZsjijy2z_17sweet_grass_query6engineNtB4_11QueryEngine16provenance_graph0CsdjAd9q7fPo9_19sweet_grass_service
FNDA:0,_RNCNvMNtCs37lZsjijy2z_17sweet_grass_query6engineNtB4_11QueryEngine17attribution_chain0CsdjAd9q7fPo9_19sweet_grass_service
FNDA:0,_RNCNvMNtCs37lZsjijy2z_17sweet_grass_query6engineNtB4_11QueryEngine18export_graph_provo0CsdjAd9q7fPo9_19sweet_grass_service
FNDA:1,_RNCNCNvMNtCs37lZsjijy2z_17sweet_grass_query6engineNtB6_11QueryEngine17attribution_chain00CsZK8v8cnrxE_19sweet_grass_service
FNDA:0,_RNCNCNvMNtCs37lZsjijy2z_17sweet_grass_query6engineNtB6_11QueryEngine18export_braid_provo00CsZK8v8cnrxE_19sweet_grass_service
FNDA:6,_RNCNvMNtCs37lZsjijy2z_17sweet_grass_query6engineNtB4_11QueryEngine11get_by_hash0CsZK8v8cnrxE_19sweet_grass_service
FNDA:5,_RNCNvMNtCs37lZsjijy2z_17sweet_grass_query6engineNtB4_11QueryEngine16provenance_graph0CsZK8v8cnrxE_19sweet_grass_service
FNDA:5,_RNCNvMNtCs37lZsjijy2z_17sweet_grass_query6engineNtB4_11QueryEngine17attribution_chain0CsZK8v8cnrxE_19sweet_grass_service
FNDA:1,_RNCNvMNtCs37lZsjijy2z_17sweet_grass_query6engineNtB4_11QueryEngine18export_braid_provo0CsZK8v8cnrxE_19sweet_grass_service
FNDA:5,_RNCNvMNtCs37lZsjijy2z_17sweet_grass_query6engineNtB4_11QueryEngine18export_graph_provo0CsZK8v8cnrxE_19sweet_grass_service
FNF:65
FNH:55
DA:31,94
DA:32,94
DA:33,94
DA:34,94
DA:35,94
DA:36,94
DA:40,1
DA:41,1
DA:42,1
DA:43,1
DA:48,1
DA:49,1
DA:50,1
DA:53,15
DA:54,15
DA:55,15
DA:58,1
DA:59,1
DA:60,1
DA:63,2
DA:64,2
DA:65,2
DA:68,1
DA:69,1
DA:70,1
DA:73,2
DA:74,2
DA:75,2
DA:80,10
DA:81,10
DA:82,10
DA:83,10
DA:84,10
DA:85,10
DA:86,10
DA:87,10
DA:88,10
DA:89,10
DA:90,10
DA:93,0
DA:94,0
DA:95,0
DA:96,0
DA:99,0
DA:100,0
DA:101,0
DA:102,0
DA:103,0
DA:104,0
DA:107,0
DA:108,0
DA:109,0
DA:110,0
DA:111,0
DA:116,9
DA:117,9
DA:118,9
DA:119,9
DA:120,9
DA:122,7
DA:123,7
DA:124,7
DA:125,7
DA:126,7
DA:127,9
DA:132,0
DA:133,0
DA:134,0
DA:135,0
DA:136,0
DA:138,0
DA:139,0
DA:140,0
DA:143,0
DA:144,0
DA:145,0
DA:148,0
DA:150,0
DA:151,0
DA:152,0
DA:155,1
DA:156,1
DA:158,2
DA:159,1
DA:160,1
DA:161,1
DA:162,1
DA:163,3
DA:164,2
DA:165,2
DA:166,2
DA:167,2
DA:169,1
DA:170,1
DA:171,1
DA:172,1
DA:173,1
DA:174,1
DA:175,1
DA:180,4
DA:181,4
DA:182,4
DA:183,4
DA:184,4
DA:186,4
DA:187,4
DA:188,4
DA:191,6
DA:192,6
DA:193,6
DA:194,6
DA:195,6
DA:196,6
DA:197,6
DA:198,6
DA:199,6
DA:224,19
DA:225,19
DA:226,19
DA:227,19
DA:228,19
DA:229,19
DA:230,19
DA:231,19
DA:232,19
DA:233,19
DA:236,1
DA:237,1
DA:238,1
DA:239,1
DA:240,1
DA:241,1
DA:242,1
DA:243,1
DA:244,1
DA:245,1
DA:246,1
DA:247,1
DA:248,1
DA:249,1
DA:252,1
DA:253,1
DA:254,1
DA:255,1
DA:256,1
DA:257,1
DA:258,1
DA:259,1
DA:260,1
DA:261,1
DA:262,1
DA:263,1
DA:264,1
DA:265,1
DA:266,1
DA:267,1
DA:268,1
DA:269,1
DA:270,1
DA:271,1
DA:272,1
DA:273,1
DA:274,1
DA:275,1
DA:276,1
DA:279,1
DA:280,1
DA:281,1
DA:282,1
DA:283,1
DA:284,1
DA:285,1
DA:286,1
DA:287,1
DA:288,1
DA:289,1
DA:290,1
DA:291,1
DA:292,1
DA:293,1
DA:294,1
DA:295,1
DA:296,1
DA:299,1
DA:300,1
DA:301,1
DA:302,1
DA:303,1
DA:304,1
DA:305,1
DA:306,1
DA:307,1
DA:308,1
DA:309,1
DA:310,1
DA:311,1
DA:312,1
DA:315,1
DA:316,1
DA:317,1
DA:318,1
DA:319,1
DA:320,1
DA:321,1
DA:322,1
DA:323,1
DA:324,1
DA:325,1
DA:326,1
DA:327,1
DA:328,1
DA:329,1
DA:330,1
DA:331,1
DA:332,1
DA:333,1
DA:334,1
DA:335,1
DA:336,1
DA:337,1
DA:340,1
DA:341,1
DA:342,1
DA:343,1
DA:344,1
DA:345,1
DA:346,1
DA:347,1
DA:348,1
DA:349,1
DA:350,1
DA:351,1
DA:352,1
DA:353,1
DA:354,1
DA:357,1
DA:358,1
DA:359,1
DA:360,1
DA:361,1
DA:362,1
DA:363,1
DA:364,1
DA:365,1
DA:366,1
DA:367,1
DA:370,1
DA:371,1
DA:372,1
DA:373,1
DA:374,1
DA:375,1
DA:376,1
DA:377,1
DA:378,1
DA:381,1
DA:382,1
DA:383,1
DA:384,1
DA:385,1
DA:386,1
DA:387,1
DA:388,1
DA:389,1
DA:390,1
DA:391,1
DA:392,1
DA:395,1
DA:396,1
DA:397,1
DA:398,1
DA:399,1
DA:400,1
DA:401,1
DA:402,1
DA:403,1
DA:404,1
DA:405,1
DA:406,1
DA:407,1
DA:408,1
DA:409,1
DA:410,1
DA:411,1
DA:414,1
DA:415,1
DA:416,1
DA:417,1
DA:418,1
DA:419,1
DA:420,1
DA:421,1
DA:422,1
DA:423,1
DA:424,1
DA:425,1
DA:428,1
DA:429,1
DA:430,1
DA:431,1
DA:432,1
DA:433,1
DA:434,1
DA:435,1
DA:436,1
DA:437,1
DA:438,1
DA:439,1
DA:440,1
DA:441,1
DA:442,1
DA:443,1
DA:444,1
DA:445,1
DA:446,1
DA:449,1
DA:450,1
DA:451,1
DA:452,1
DA:453,1
DA:454,1
DA:455,1
DA:456,1
DA:459,1
DA:460,1
DA:461,1
DA:462,1
DA:463,1
DA:464,1
DA:465,1
DA:466,1
DA:467,1
DA:468,1
DA:469,1
DA:470,1
DA:471,1
DA:472,1
DA:473,1
DA:474,1
DA:475,1
BRF:0
BRH:0
LF:559
LH:522
end_of_record
SF:/home/strandgate/Development/ecoPrimals/phase2/sweetGrass/crates/sweet-grass-query/src/error.rs
FN:38,_RNvXNtCs37lZsjijy2z_17sweet_grass_query5errorNtB2_10QueryErrorINtNtCs9sjCchOt1K7_4core7convert4FromNtNtCs98BKYEhbmrI_10serde_json5error5ErrorE4from
FN:49,_RNvNtNtCs53T6FtQI1eQ_17sweet_grass_query5error5testss_24test_query_error_display
FN:68,_RNvNtNtCs53T6FtQI1eQ_17sweet_grass_query5error5testss_26test_from_serde_json_error
FN:38,_RNvXNtCs53T6FtQI1eQ_17sweet_grass_query5errorNtB2_10QueryErrorINtNtCs9sjCchOt1K7_4core7convert4FromNtNtCs98BKYEhbmrI_10serde_json5error5ErrorE4from
FNDA:0,_RNvXNtCs37lZsjijy2z_17sweet_grass_query5errorNtB2_10QueryErrorINtNtCs9sjCchOt1K7_4core7convert4FromNtNtCs98BKYEhbmrI_10serde_json5error5ErrorE4from
FNDA:1,_RNvNtNtCs53T6FtQI1eQ_17sweet_grass_query5error5testss_24test_query_error_display
FNDA:1,_RNvNtNtCs53T6FtQI1eQ_17sweet_grass_query5error5testss_26test_from_serde_json_error
FNDA:1,_RNvXNtCs53T6FtQI1eQ_17sweet_grass_query5errorNtB2_10QueryErrorINtNtCs9sjCchOt1K7_4core7convert4FromNtNtCs98BKYEhbmrI_10serde_json5error5ErrorE4from
FNF:3
FNH:3
DA:38,1
DA:39,1
DA:40,1
DA:49,1
DA:50,1
DA:51,1
DA:53,1
DA:54,1
DA:56,1
DA:57,1
DA:58,1
DA:60,1
DA:61,1
DA:63,1
DA:64,1
DA:65,1
DA:68,1
DA:69,1
DA:70,1
DA:71,1
DA:72,1
BRF:0
BRH:0
LF:21
LH:21
end_of_record
SF:/home/strandgate/Development/ecoPrimals/phase2/sweetGrass/crates/sweet-grass-query/src/provo.rs
FN:36,_RNvMNtCs37lZsjijy2z_17sweet_grass_query5provoNtB2_14JsonLdDocument14prov_o_context
FN:83,_RNvMNtCs37lZsjijy2z_17sweet_grass_query5provoNtB2_14JsonLdDocument15to_json_compact
FN:28,_RNvMNtCs37lZsjijy2z_17sweet_grass_query5provoNtB2_14JsonLdDocument3new
FN:78,_RNvMNtCs37lZsjijy2z_17sweet_grass_query5provoNtB2_14JsonLdDocument7to_json
FN:73,_RNvMNtCs37lZsjijy2z_17sweet_grass_query5provoNtB2_14JsonLdDocument8add_node
FN:125,_RNvMs0_NtCs37lZsjijy2z_17sweet_grass_query5provoNtB5_11ProvoExport12export_braid
FN:140,_RNvMs0_NtCs37lZsjijy2z_17sweet_grass_query5provoNtB5_11ProvoExport12export_graph
FN:119,_RNvMs0_NtCs37lZsjijy2z_17sweet_grass_query5provoNtB5_11ProvoExport12include_ecop
FN:157,_RNvMs0_NtCs37lZsjijy2z_17sweet_grass_query5provoNtB5_11ProvoExport15braid_to_entity
FN:220,_RNvMs0_NtCs37lZsjijy2z_17sweet_grass_query5provoNtB5_11ProvoExport16activity_to_prov
FN:112,_RNvMs0_NtCs37lZsjijy2z_17sweet_grass_query5provoNtB5_11ProvoExport16include_metadata
FN:103,_RNvMs0_NtCs37lZsjijy2z_17sweet_grass_query5provoNtB5_11ProvoExport3new
FN:287,_RNvNtCs37lZsjijy2z_17sweet_grass_query5provo16timestamp_to_iso
FN:281,_RNvXs1_NtCs37lZsjijy2z_17sweet_grass_query5provoNtB5_11ProvoExportNtNtCs9sjCchOt1K7_4core7default7Default7default
FN:89,_RNvXs_NtCs37lZsjijy2z_17sweet_grass_query5provoNtB4_14JsonLdDocumentNtNtCs9sjCchOt1K7_4core7default7Default7default
FN:189,_RNCNCNvMs0_NtCs37lZsjijy2z_17sweet_grass_query5provoNtB9_11ProvoExport15braid_to_entity00Bb_
FN:262,_RNCNCNvMs0_NtCs37lZsjijy2z_17sweet_grass_query5provoNtB9_11ProvoExport16activity_to_provs_00Bb_
FN:189,_RNCNvMs0_NtCs37lZsjijy2z_17sweet_grass_query5provoNtB7_11ProvoExport15braid_to_entity0B9_
FN:247,_RNCNvMs0_NtCs37lZsjijy2z_17sweet_grass_query5provoNtB7_11ProvoExport16activity_to_prov0B9_
FN:262,_RNCNvMs0_NtCs37lZsjijy2z_17sweet_grass_query5provoNtB7_11ProvoExport16activity_to_provs_0B9_
FN:306,_RNvNtNtCs53T6FtQI1eQ_17sweet_grass_query5provo5tests15make_test_braid
FN:356,_RNvNtNtCs53T6FtQI1eQ_17sweet_grass_query5provo5testss_16test_json_output
FN:380,_RNvNtNtCs53T6FtQI1eQ_17sweet_grass_query5provo5testss_17test_without_ecop
FN:318,_RNvNtNtCs53T6FtQI1eQ_17sweet_grass_query5provo5testss_21test_json_ld_document
FN:441,_RNvNtNtCs53T6FtQI1eQ_17sweet_grass_query5provo5testss_21test_provo_export_new
FN:368,_RNvNtNtCs53T6FtQI1eQ_17sweet_grass_query5provo5testss_21test_without_metadata
FN:515,_RNvNtNtCs53T6FtQI1eQ_17sweet_grass_query5provo5testss_23test_export_graph_empty
FN:325,_RNvNtNtCs53T6FtQI1eQ_17sweet_grass_query5provo5testss_24test_export_single_braid
FN:458,_RNvNtNtCs53T6FtQI1eQ_17sweet_grass_query5provo5testss_25test_export_with_activity
FN:406,_RNvNtNtCs53T6FtQI1eQ_17sweet_grass_query5provo5testss_25test_json_ld_document_new
FN:450,_RNvNtNtCs53T6FtQI1eQ_17sweet_grass_query5provo5testss_25test_provo_export_default
FN:392,_RNvNtNtCs53T6FtQI1eQ_17sweet_grass_query5provo5testss_25test_timestamp_conversion
FN:558,_RNvNtNtCs53T6FtQI1eQ_17sweet_grass_query5provo5testss_26test_export_preserves_size
FN:340,_RNvNtNtCs53T6FtQI1eQ_17sweet_grass_query5provo5testss_27test_export_with_derivation
FN:414,_RNvNtNtCs53T6FtQI1eQ_17sweet_grass_query5provo5testss_29test_json_ld_document_default
FN:499,_RNvNtNtCs53T6FtQI1eQ_17sweet_grass_query5provo5testss_30test_export_with_both_disabled
FN:420,_RNvNtNtCs53T6FtQI1eQ_17sweet_grass_query5provo5testss_30test_json_ld_document_add_node
FN:399,_RNvNtNtCs53T6FtQI1eQ_17sweet_grass_query5provo5testss_30test_timestamp_conversion_zero
FN:534,_RNvNtNtCs53T6FtQI1eQ_17sweet_grass_query5provo5testss_31test_export_preserves_data_hash
FN:546,_RNvNtNtCs53T6FtQI1eQ_17sweet_grass_query5provo5testss_31test_export_preserves_mime_type
FN:473,_RNvNtNtCs53T6FtQI1eQ_17sweet_grass_query5provo5testss_31test_export_with_metadata_title
FN:485,_RNvNtNtCs53T6FtQI1eQ_17sweet_grass_query5provo5testss_32test_export_with_ecop_extensions
FN:581,_RNvNtNtCs53T6FtQI1eQ_17sweet_grass_query5provo5testss_34test_context_contains_prov_classes
FN:430,_RNvNtNtCs53T6FtQI1eQ_17sweet_grass_query5provo5testss_37test_json_ld_document_to_json_compact
FN:570,_RNvNtNtCs53T6FtQI1eQ_17sweet_grass_query5provo5testss_39test_context_contains_required_prefixes
FN:36,_RNvMNtCs53T6FtQI1eQ_17sweet_grass_query5provoNtB2_14JsonLdDocument14prov_o_context
FN:83,_RNvMNtCs53T6FtQI1eQ_17sweet_grass_query5provoNtB2_14JsonLdDocument15to_json_compact
FN:28,_RNvMNtCs53T6FtQI1eQ_17sweet_grass_query5provoNtB2_14JsonLdDocument3new
FN:78,_RNvMNtCs53T6FtQI1eQ_17sweet_grass_query5provoNtB2_14JsonLdDocument7to_json
FN:73,_RNvMNtCs53T6FtQI1eQ_17sweet_grass_query5provoNtB2_14JsonLdDocument8add_node
FN:125,_RNvMs0_NtCs53T6FtQI1eQ_17sweet_grass_query5provoNtB5_11ProvoExport12export_braid
FN:140,_RNvMs0_NtCs53T6FtQI1eQ_17sweet_grass_query5provoNtB5_11ProvoExport12export_graph
FN:119,_RNvMs0_NtCs53T6FtQI1eQ_17sweet_grass_query5provoNtB5_11ProvoExport12include_ecop
FN:157,_RNvMs0_NtCs53T6FtQI1eQ_17sweet_grass_query5provoNtB5_11ProvoExport15braid_to_entity
FN:220,_RNvMs0_NtCs53T6FtQI1eQ_17sweet_grass_query5provoNtB5_11ProvoExport16activity_to_prov
FN:112,_RNvMs0_NtCs53T6FtQI1eQ_17sweet_grass_query5provoNtB5_11ProvoExport16include_metadata
FN:103,_RNvMs0_NtCs53T6FtQI1eQ_17sweet_grass_query5provoNtB5_11ProvoExport3new
FN:287,_RNvNtCs53T6FtQI1eQ_17sweet_grass_query5provo16timestamp_to_iso
FN:281,_RNvXs1_NtCs53T6FtQI1eQ_17sweet_grass_query5provoNtB5_11ProvoExportNtNtCs9sjCchOt1K7_4core7default7Default7default
FN:89,_RNvXs_NtCs53T6FtQI1eQ_17sweet_grass_query5provoNtB4_14JsonLdDocumentNtNtCs9sjCchOt1K7_4core7default7Default7default
FN:189,_RNCNCNvMs0_NtCs53T6FtQI1eQ_17sweet_grass_query5provoNtB9_11ProvoExport15braid_to_entity00Bb_
FN:262,_RNCNCNvMs0_NtCs53T6FtQI1eQ_17sweet_grass_query5provoNtB9_11ProvoExport16activity_to_provs_00Bb_
FN:189,_RNCNvMs0_NtCs53T6FtQI1eQ_17sweet_grass_query5provoNtB7_11ProvoExport15braid_to_entity0B9_
FN:247,_RNCNvMs0_NtCs53T6FtQI1eQ_17sweet_grass_query5provoNtB7_11ProvoExport16activity_to_prov0B9_
FN:262,_RNCNvMs0_NtCs53T6FtQI1eQ_17sweet_grass_query5provoNtB7_11ProvoExport16activity_to_provs_0B9_
FNDA:8,_RNvMNtCs37lZsjijy2z_17sweet_grass_query5provoNtB2_14JsonLdDocument14prov_o_context
FNDA:0,_RNvMNtCs37lZsjijy2z_17sweet_grass_query5provoNtB2_14JsonLdDocument15to_json_compact
FNDA:8,_RNvMNtCs37lZsjijy2z_17sweet_grass_query5provoNtB2_14JsonLdDocument3new
FNDA:0,_RNvMNtCs37lZsjijy2z_17sweet_grass_query5provoNtB2_14JsonLdDocument7to_json
FNDA:8,_RNvMNtCs37lZsjijy2z_17sweet_grass_query5provoNtB2_14JsonLdDocument8add_node
FNDA:3,_RNvMs0_NtCs37lZsjijy2z_17sweet_grass_query5provoNtB5_11ProvoExport12export_braid
FNDA:5,_RNvMs0_NtCs37lZsjijy2z_17sweet_grass_query5provoNtB5_11ProvoExport12export_graph
FNDA:0,_RNvMs0_NtCs37lZsjijy2z_17sweet_grass_query5provoNtB5_11ProvoExport12include_ecop
FNDA:8,_RNvMs0_NtCs37lZsjijy2z_17sweet_grass_query5provoNtB5_11ProvoExport15braid_to_entity
FNDA:0,_RNvMs0_NtCs37lZsjijy2z_17sweet_grass_query5provoNtB5_11ProvoExport16activity_to_prov
FNDA:0,_RNvMs0_NtCs37lZsjijy2z_17sweet_grass_query5provoNtB5_11ProvoExport16include_metadata
FNDA:8,_RNvMs0_NtCs37lZsjijy2z_17sweet_grass_query5provoNtB5_11ProvoExport3new
FNDA:8,_RNvNtCs37lZsjijy2z_17sweet_grass_query5provo16timestamp_to_iso
FNDA:0,_RNvXs1_NtCs37lZsjijy2z_17sweet_grass_query5provoNtB5_11ProvoExportNtNtCs9sjCchOt1K7_4core7default7Default7default
FNDA:0,_RNvXs_NtCs37lZsjijy2z_17sweet_grass_query5provoNtB4_14JsonLdDocumentNtNtCs9sjCchOt1K7_4core7default7Default7default
FNDA:1,_RNCNCNvMs0_NtCs37lZsjijy2z_17sweet_grass_query5provoNtB9_11ProvoExport15braid_to_entity00Bb_
FNDA:0,_RNCNCNvMs0_NtCs37lZsjijy2z_17sweet_grass_query5provoNtB9_11ProvoExport16activity_to_provs_00Bb_
FNDA:1,_RNCNvMs0_NtCs37lZsjijy2z_17sweet_grass_query5provoNtB7_11ProvoExport15braid_to_entity0B9_
FNDA:0,_RNCNvMs0_NtCs37lZsjijy2z_17sweet_grass_query5provoNtB7_11ProvoExport16activity_to_prov0B9_
FNDA:0,_RNCNvMs0_NtCs37lZsjijy2z_17sweet_grass_query5provoNtB7_11ProvoExport16activity_to_provs_0B9_
FNDA:15,_RNvNtNtCs53T6FtQI1eQ_17sweet_grass_query5provo5tests15make_test_braid
FNDA:1,_RNvNtNtCs53T6FtQI1eQ_17sweet_grass_query5provo5testss_16test_json_output
FNDA:1,_RNvNtNtCs53T6FtQI1eQ_17sweet_grass_query5provo5testss_17test_without_ecop
FNDA:1,_RNvNtNtCs53T6FtQI1eQ_17sweet_grass_query5provo5testss_21test_json_ld_document
FNDA:1,_RNvNtNtCs53T6FtQI1eQ_17sweet_grass_query5provo5testss_21test_provo_export_new
FNDA:1,_RNvNtNtCs53T6FtQI1eQ_17sweet_grass_query5provo5testss_21test_without_metadata
FNDA:1,_RNvNtNtCs53T6FtQI1eQ_17sweet_grass_query5provo5testss_23test_export_graph_empty
FNDA:1,_RNvNtNtCs53T6FtQI1eQ_17sweet_grass_query5provo5testss_24test_export_single_braid
FNDA:1,_RNvNtNtCs53T6FtQI1eQ_17sweet_grass_query5provo5testss_25test_export_with_activity
FNDA:1,_RNvNtNtCs53T6FtQI1eQ_17sweet_grass_query5provo5testss_25test_json_ld_document_new
FNDA:1,_RNvNtNtCs53T6FtQI1eQ_17sweet_grass_query5provo5testss_25test_provo_export_default
FNDA:1,_RNvNtNtCs53T6FtQI1eQ_17sweet_grass_query5provo5testss_25test_timestamp_conversion
FNDA:1,_RNvNtNtCs53T6FtQI1eQ_17sweet_grass_query5provo5testss_26test_export_preserves_size
FNDA:1,_RNvNtNtCs53T6FtQI1eQ_17sweet_grass_query5provo5testss_27test_export_with_derivation
FNDA:1,_RNvNtNtCs53T6FtQI1eQ_17sweet_grass_query5provo5testss_29test_json_ld_document_default
FNDA:1,_RNvNtNtCs53T6FtQI1eQ_17sweet_grass_query5provo5testss_30test_export_with_both_disabled
FNDA:1,_RNvNtNtCs53T6FtQI1eQ_17sweet_grass_query5provo5testss_30test_json_ld_document_add_node
FNDA:1,_RNvNtNtCs53T6FtQI1eQ_17sweet_grass_query5provo5testss_30test_timestamp_conversion_zero
FNDA:1,_RNvNtNtCs53T6FtQI1eQ_17sweet_grass_query5provo5testss_31test_export_preserves_data_hash
FNDA:1,_RNvNtNtCs53T6FtQI1eQ_17sweet_grass_query5provo5testss_31test_export_preserves_mime_type
FNDA:1,_RNvNtNtCs53T6FtQI1eQ_17sweet_grass_query5provo5testss_31test_export_with_metadata_title
FNDA:1,_RNvNtNtCs53T6FtQI1eQ_17sweet_grass_query5provo5testss_32test_export_with_ecop_extensions
FNDA:1,_RNvNtNtCs53T6FtQI1eQ_17sweet_grass_query5provo5testss_34test_context_contains_prov_classes
FNDA:1,_RNvNtNtCs53T6FtQI1eQ_17sweet_grass_query5provo5testss_37test_json_ld_document_to_json_compact
FNDA:1,_RNvNtNtCs53T6FtQI1eQ_17sweet_grass_query5provo5testss_39test_context_contains_required_prefixes
FNDA:24,_RNvMNtCs53T6FtQI1eQ_17sweet_grass_query5provoNtB2_14JsonLdDocument14prov_o_context
FNDA:1,_RNvMNtCs53T6FtQI1eQ_17sweet_grass_query5provoNtB2_14JsonLdDocument15to_json_compact
FNDA:24,_RNvMNtCs53T6FtQI1eQ_17sweet_grass_query5provoNtB2_14JsonLdDocument3new
FNDA:3,_RNvMNtCs53T6FtQI1eQ_17sweet_grass_query5provoNtB2_14JsonLdDocument7to_json
FNDA:21,_RNvMNtCs53T6FtQI1eQ_17sweet_grass_query5provoNtB2_14JsonLdDocument8add_node
FNDA:16,_RNvMs0_NtCs53T6FtQI1eQ_17sweet_grass_query5provoNtB5_11ProvoExport12export_braid
FNDA:2,_RNvMs0_NtCs53T6FtQI1eQ_17sweet_grass_query5provoNtB5_11ProvoExport12export_graph
FNDA:3,_RNvMs0_NtCs53T6FtQI1eQ_17sweet_grass_query5provoNtB5_11ProvoExport12include_ecop
FNDA:18,_RNvMs0_NtCs53T6FtQI1eQ_17sweet_grass_query5provoNtB5_11ProvoExport15braid_to_entity
FNDA:1,_RNvMs0_NtCs53T6FtQI1eQ_17sweet_grass_query5provoNtB5_11ProvoExport16activity_to_prov
FNDA:3,_RNvMs0_NtCs53T6FtQI1eQ_17sweet_grass_query5provoNtB5_11ProvoExport16include_metadata
FNDA:18,_RNvMs0_NtCs53T6FtQI1eQ_17sweet_grass_query5provoNtB5_11ProvoExport3new
FNDA:21,_RNvNtCs53T6FtQI1eQ_17sweet_grass_query5provo16timestamp_to_iso
FNDA:1,_RNvXs1_NtCs53T6FtQI1eQ_17sweet_grass_query5provoNtB5_11ProvoExportNtNtCs9sjCchOt1K7_4core7default7Default7default
FNDA:1,_RNvXs_NtCs53T6FtQI1eQ_17sweet_grass_query5provoNtB4_14JsonLdDocumentNtNtCs9sjCchOt1K7_4core7default7Default7default
FNDA:3,_RNCNCNvMs0_NtCs53T6FtQI1eQ_17sweet_grass_query5provoNtB9_11ProvoExport15braid_to_entity00Bb_
FNDA:0,_RNCNCNvMs0_NtCs53T6FtQI1eQ_17sweet_grass_query5provoNtB9_11ProvoExport16activity_to_provs_00Bb_
FNDA:3,_RNCNvMs0_NtCs53T6FtQI1eQ_17sweet_grass_query5provoNtB7_11ProvoExport15braid_to_entity0B9_
FNDA:0,_RNCNvMs0_NtCs53T6FtQI1eQ_17sweet_grass_query5provoNtB7_11ProvoExport16activity_to_prov0B9_
FNDA:0,_RNCNvMs0_NtCs53T6FtQI1eQ_17sweet_grass_query5provoNtB7_11ProvoExport16activity_to_provs_0B9_
FNF:45
FNH:42
DA:28,32
DA:29,32
DA:30,32
DA:31,32
DA:32,32
DA:33,32
DA:36,32
DA:37,32
DA:38,32
DA:39,32
DA:40,32
DA:41,32
DA:42,32
DA:43,32
DA:44,32
DA:45,32
DA:46,32
DA:47,32
DA:48,32
DA:49,32
DA:50,32
DA:51,32
DA:52,32
DA:53,32
DA:54,32
DA:55,32
DA:56,32
DA:57,32
DA:58,32
DA:59,32
DA:60,32
DA:61,32
DA:62,32
DA:63,32
DA:64,32
DA:65,32
DA:66,32
DA:67,32
DA:68,32
DA:69,32
DA:70,32
DA:73,29
DA:74,29
DA:75,29
DA:78,3
DA:79,3
DA:80,3
DA:83,1
DA:84,1
DA:85,1
DA:89,1
DA:90,1
DA:91,1
DA:103,26
DA:104,26
DA:105,26
DA:106,26
DA:107,26
DA:108,26
DA:112,3
DA:113,3
DA:114,3
DA:115,3
DA:119,3
DA:120,3
DA:121,3
DA:122,3
DA:125,19
DA:126,19
DA:127,19
DA:128,19
DA:129,19
DA:132,19
DA:133,1
DA:134,18
DA:136,19
DA:137,19
DA:140,7
DA:141,7
DA:144,7
DA:145,7
DA:146,7
DA:149,7
DA:150,0
DA:151,0
DA:153,7
DA:154,7
DA:157,26
DA:158,26
DA:159,26
DA:160,26
DA:161,26
DA:162,26
DA:163,26
DA:164,26
DA:165,26
DA:166,26
DA:167,26
DA:168,26
DA:169,26
DA:170,26
DA:171,26
DA:172,26
DA:173,26
DA:174,26
DA:175,26
DA:176,26
DA:177,26
DA:180,26
DA:181,1
DA:182,25
DA:185,26
DA:186,3
DA:187,3
DA:188,3
DA:189,4
DA:190,3
DA:191,3
DA:192,3
DA:193,3
DA:194,23
DA:197,26
DA:198,24
DA:199,2
DA:200,22
DA:201,24
DA:202,0
DA:203,24
DA:204,2
DA:207,26
DA:208,24
DA:209,9
DA:210,15
DA:211,24
DA:212,1
DA:213,23
DA:214,2
DA:216,26
DA:217,26
DA:220,1
DA:221,1
DA:222,1
DA:223,1
DA:224,1
DA:225,1
DA:226,1
DA:227,1
DA:228,1
DA:229,1
DA:230,1
DA:231,1
DA:232,1
DA:233,1
DA:234,1
DA:235,1
DA:236,1
DA:237,1
DA:238,1
DA:239,0
DA:240,1
DA:243,1
DA:244,0
DA:245,0
DA:246,0
DA:247,0
DA:248,0
DA:249,0
DA:250,0
DA:251,0
DA:252,0
DA:253,0
DA:254,0
DA:255,1
DA:258,1
DA:259,0
DA:260,0
DA:261,0
DA:262,0
DA:263,0
DA:264,0
DA:265,0
DA:266,0
DA:267,1
DA:270,1
DA:271,1
DA:272,0
DA:273,1
DA:274,0
DA:276,1
DA:277,1
DA:281,1
DA:282,1
DA:283,1
DA:287,29
DA:291,29
DA:292,29
DA:293,29
DA:294,29
DA:295,29
DA:296,0
DA:298,29
DA:306,15
DA:307,15
DA:308,15
DA:309,15
DA:310,15
DA:311,15
DA:312,15
DA:313,15
DA:314,15
DA:315,15
DA:318,1
DA:319,1
DA:320,1
DA:321,1
DA:322,1
DA:325,1
DA:326,1
DA:327,1
DA:328,1
DA:329,1
DA:330,1
DA:331,1
DA:333,1
DA:334,1
DA:335,1
DA:336,1
DA:337,1
DA:340,1
DA:341,1
DA:342,1
DA:343,1
DA:344,1
DA:345,1
DA:346,1
DA:347,1
DA:348,1
DA:349,1
DA:350,1
DA:351,1
DA:352,1
DA:353,1
DA:356,1
DA:357,1
DA:358,1
DA:359,1
DA:360,1
DA:361,1
DA:362,1
DA:363,1
DA:364,1
DA:365,1
DA:368,1
DA:369,1
DA:370,1
DA:371,1
DA:372,1
DA:373,1
DA:374,1
DA:375,1
DA:376,1
DA:377,1
DA:380,1
DA:381,1
DA:382,1
DA:383,1
DA:384,1
DA:385,1
DA:386,1
DA:387,1
DA:388,1
DA:389,1
DA:392,1
DA:393,1
DA:394,1
DA:395,1
DA:396,1
DA:399,1
DA:400,1
DA:401,1
DA:402,1
DA:403,1
DA:406,1
DA:407,1
DA:408,1
DA:409,1
DA:410,1
DA:411,1
DA:414,1
DA:415,1
DA:416,1
DA:417,1
DA:420,1
DA:421,1
DA:422,1
DA:423,1
DA:425,1
DA:426,1
DA:427,1
DA:430,1
DA:431,1
DA:432,1
DA:433,1
DA:434,1
DA:435,1
DA:436,1
DA:437,1
DA:438,1
DA:441,1
DA:442,1
DA:443,1
DA:444,1
DA:445,1
DA:446,1
DA:447,1
DA:450,1
DA:451,1
DA:452,1
DA:453,1
DA:454,1
DA:455,1
DA:458,1
DA:462,1
DA:463,1
DA:464,1
DA:465,1
DA:466,1
DA:467,1
DA:468,1
DA:469,1
DA:470,1
DA:473,1
DA:474,1
DA:475,1
DA:476,1
DA:477,1
DA:478,1
DA:479,1
DA:480,1
DA:481,1
DA:482,1
DA:485,1
DA:486,1
DA:487,1
DA:488,1
DA:489,1
DA:490,1
DA:491,1
DA:492,1
DA:493,1
DA:494,1
DA:495,1
DA:496,1
DA:499,1
DA:500,1
DA:501,1
DA:502,1
DA:503,1
DA:504,1
DA:505,1
DA:506,1
DA:507,1
DA:508,1
DA:509,1
DA:510,1
DA:511,1
DA:512,1
DA:515,1
DA:518,1
DA:519,1
DA:520,1
DA:521,1
DA:522,1
DA:523,1
DA:524,1
DA:525,1
DA:526,1
DA:527,1
DA:528,1
DA:529,1
DA:530,1
DA:531,1
DA:534,1
DA:535,1
DA:536,1
DA:537,1
DA:538,1
DA:539,1
DA:540,1
DA:541,1
DA:542,1
DA:543,1
DA:546,1
DA:547,1
DA:548,1
DA:549,1
DA:550,1
DA:551,1
DA:552,1
DA:553,1
DA:554,1
DA:555,1
DA:558,1
DA:559,1
DA:560,1
DA:561,1
DA:562,1
DA:563,1
DA:564,1
DA:565,1
DA:566,1
DA:567,1
DA:570,1
DA:571,1
DA:572,1
DA:573,1
DA:574,1
DA:575,1
DA:576,1
DA:577,1
DA:578,1
DA:581,1
DA:582,1
DA:583,1
DA:584,1
DA:585,1
DA:586,1
DA:587,1
BRF:0
BRH:0
LF:434
LH:404
end_of_record
SF:/home/strandgate/Development/ecoPrimals/phase2/sweetGrass/crates/sweet-grass-query/src/traversal.rs
FN:146,_RNCNvMs_NtCs37lZsjijy2z_17sweet_grass_query9traversalNtB6_22ProvenanceGraphBuilder5build0Csad6wFluTeQR_11integration
FN:41,_RNvMNtCs37lZsjijy2z_17sweet_grass_query9traversalNtB2_15ProvenanceGraph10root_braid
FN:53,_RNvMNtCs37lZsjijy2z_17sweet_grass_query9traversalNtB2_15ProvenanceGraph12activity_ids
FN:59,_RNvMNtCs37lZsjijy2z_17sweet_grass_query9traversalNtB2_15ProvenanceGraph12entity_count
FN:47,_RNvMNtCs37lZsjijy2z_17sweet_grass_query9traversalNtB2_15ProvenanceGraph13entity_hashes
FN:65,_RNvMNtCs37lZsjijy2z_17sweet_grass_query9traversalNtB2_15ProvenanceGraph14activity_count
FN:106,_RNvMNtCs37lZsjijy2z_17sweet_grass_query9traversalNtB2_15ProvenanceGraph15contains_entity
FN:98,_RNvMNtCs37lZsjijy2z_17sweet_grass_query9traversalNtB2_15ProvenanceGraph19generating_activity
FN:71,_RNvMNtCs37lZsjijy2z_17sweet_grass_query9traversalNtB2_15ProvenanceGraph7parents
FN:85,_RNvMNtCs37lZsjijy2z_17sweet_grass_query9traversalNtB2_15ProvenanceGraph8children
FN:136,_RNvMs_NtCs37lZsjijy2z_17sweet_grass_query9traversalNtB4_22ProvenanceGraphBuilder18include_activities
FN:120,_RNvMs_NtCs37lZsjijy2z_17sweet_grass_query9traversalNtB4_22ProvenanceGraphBuilder3new
FN:142,_RNvMs_NtCs37lZsjijy2z_17sweet_grass_query9traversalNtB4_22ProvenanceGraphBuilder5build
FN:167,_RNvMs_NtCs37lZsjijy2z_17sweet_grass_query9traversalNtB4_22ProvenanceGraphBuilder8traverse
FN:129,_RNvMs_NtCs37lZsjijy2z_17sweet_grass_query9traversalNtB4_22ProvenanceGraphBuilder9max_depth
FN:237,_RNvXs0_NtCs37lZsjijy2z_17sweet_grass_query9traversalNtB5_22ProvenanceGraphBuilderNtNtCs9sjCchOt1K7_4core7default7Default7default
FN:77,_RNCNCNvMNtCs37lZsjijy2z_17sweet_grass_query9traversalNtB6_15ProvenanceGraph7parents00B8_
FN:91,_RNCNCNvMNtCs37lZsjijy2z_17sweet_grass_query9traversalNtB6_15ProvenanceGraph8children00B8_
FN:216,_RNCNCNvMs_NtCs37lZsjijy2z_17sweet_grass_query9traversalNtB8_22ProvenanceGraphBuilder8traverse00Ba_
FN:42,_RNCNvMNtCs37lZsjijy2z_17sweet_grass_query9traversalNtB4_15ProvenanceGraph10root_braid0B6_
FN:101,_RNCNvMNtCs37lZsjijy2z_17sweet_grass_query9traversalNtB4_15ProvenanceGraph19generating_activity0B6_
FN:74,_RNCNvMNtCs37lZsjijy2z_17sweet_grass_query9traversalNtB4_15ProvenanceGraph7parents0B6_
FN:88,_RNCNvMNtCs37lZsjijy2z_17sweet_grass_query9traversalNtB4_15ProvenanceGraph8children0B6_
FN:175,_RNCNvMs_NtCs37lZsjijy2z_17sweet_grass_query9traversalNtB6_22ProvenanceGraphBuilder8traverse0B8_
FN:146,_RNCNvMs_NtCs37lZsjijy2z_17sweet_grass_query9traversalNtB6_22ProvenanceGraphBuilder5build0B8_
FN:77,_RNCNCNvMNtCs53T6FtQI1eQ_17sweet_grass_query9traversalNtB6_15ProvenanceGraph7parents00B8_
FN:91,_RNCNCNvMNtCs53T6FtQI1eQ_17sweet_grass_query9traversalNtB6_15ProvenanceGraph8children00B8_
FN:216,_RNCNCNvMs_NtCs53T6FtQI1eQ_17sweet_grass_query9traversalNtB8_22ProvenanceGraphBuilder8traverse00Ba_
FN:42,_RNCNvMNtCs53T6FtQI1eQ_17sweet_grass_query9traversalNtB4_15ProvenanceGraph10root_braid0B6_
FN:101,_RNCNvMNtCs53T6FtQI1eQ_17sweet_grass_query9traversalNtB4_15ProvenanceGraph19generating_activity0B6_
FN:74,_RNCNvMNtCs53T6FtQI1eQ_17sweet_grass_query9traversalNtB4_15ProvenanceGraph7parents0B6_
FN:88,_RNCNvMNtCs53T6FtQI1eQ_17sweet_grass_query9traversalNtB4_15ProvenanceGraph8children0B6_
FN:146,_RNCNvMs_NtCs53T6FtQI1eQ_17sweet_grass_query9traversalNtB6_22ProvenanceGraphBuilder5build0B8_
FN:175,_RNCNvMs_NtCs53T6FtQI1eQ_17sweet_grass_query9traversalNtB6_22ProvenanceGraphBuilder8traverse0B8_
FN:254,_RNvNtNtCs53T6FtQI1eQ_17sweet_grass_query9traversal5tests15make_test_braid
FN:387,_RNvNtNtCs53T6FtQI1eQ_17sweet_grass_query9traversal5testss_13test_children
FN:414,_RNvNtNtCs53T6FtQI1eQ_17sweet_grass_query9traversal5testss_15test_root_braid
FN:324,_RNvNtNtCs53T6FtQI1eQ_17sweet_grass_query9traversal5testss_16test_depth_limit
FN:542,_RNvNtNtCs53T6FtQI1eQ_17sweet_grass_query9traversal5testss_17test_missing_root
FN:516,_RNvNtNtCs53T6FtQI1eQ_17sweet_grass_query9traversal5testss_18test_parents_empty
FN:535,_RNvNtNtCs53T6FtQI1eQ_17sweet_grass_query9traversal5testss_20test_builder_default
FN:458,_RNvNtNtCs53T6FtQI1eQ_17sweet_grass_query9traversal5testss_20test_contains_entity
FN:293,_RNvNtNtCs53T6FtQI1eQ_17sweet_grass_query9traversal5testss_21test_derivation_chain
FN:356,_RNvNtNtCs53T6FtQI1eQ_17sweet_grass_query9traversal5testss_21test_multiple_parents
FN:477,_RNvNtNtCs53T6FtQI1eQ_17sweet_grass_query9traversal5testss_23test_without_activities
FN:496,_RNvNtNtCs53T6FtQI1eQ_17sweet_grass_query9traversal5testss_24test_generating_activity
FN:273,_RNvNtNtCs53T6FtQI1eQ_17sweet_grass_query9traversal5testss_24test_single_entity_graph
FN:434,_RNvNtNtCs53T6FtQI1eQ_17sweet_grass_query9traversal5testss_34test_entity_and_activity_accessors
FN:560,_RNvNtNtCs53T6FtQI1eQ_17sweet_grass_query9traversal5testss_35test_provenance_graph_serialization
FN:387,_RNCNvNtNtCs53T6FtQI1eQ_17sweet_grass_query9traversal5testss_13test_children0B7_
FN:414,_RNCNvNtNtCs53T6FtQI1eQ_17sweet_grass_query9traversal5testss_15test_root_braid0B7_
FN:324,_RNCNvNtNtCs53T6FtQI1eQ_17sweet_grass_query9traversal5testss_16test_depth_limit0B7_
FN:542,_RNCNvNtNtCs53T6FtQI1eQ_17sweet_grass_query9traversal5testss_17test_missing_root0B7_
FN:516,_RNCNvNtNtCs53T6FtQI1eQ_17sweet_grass_query9traversal5testss_18test_parents_empty0B7_
FN:535,_RNCNvNtNtCs53T6FtQI1eQ_17sweet_grass_query9traversal5testss_20test_builder_default0B7_
FN:458,_RNCNvNtNtCs53T6FtQI1eQ_17sweet_grass_query9traversal5testss_20test_contains_entity0B7_
FN:293,_RNCNvNtNtCs53T6FtQI1eQ_17sweet_grass_query9traversal5testss_21test_derivation_chain0B7_
FN:356,_RNCNvNtNtCs53T6FtQI1eQ_17sweet_grass_query9traversal5testss_21test_multiple_parents0B7_
FN:477,_RNCNvNtNtCs53T6FtQI1eQ_17sweet_grass_query9traversal5testss_23test_without_activities0B7_
FN:496,_RNCNvNtNtCs53T6FtQI1eQ_17sweet_grass_query9traversal5testss_24test_generating_activity0B7_
FN:273,_RNCNvNtNtCs53T6FtQI1eQ_17sweet_grass_query9traversal5testss_24test_single_entity_graph0B7_
FN:434,_RNCNvNtNtCs53T6FtQI1eQ_17sweet_grass_query9traversal5testss_34test_entity_and_activity_accessors0B7_
FN:41,_RNvMNtCs53T6FtQI1eQ_17sweet_grass_query9traversalNtB2_15ProvenanceGraph10root_braid
FN:53,_RNvMNtCs53T6FtQI1eQ_17sweet_grass_query9traversalNtB2_15ProvenanceGraph12activity_ids
FN:59,_RNvMNtCs53T6FtQI1eQ_17sweet_grass_query9traversalNtB2_15ProvenanceGraph12entity_count
FN:47,_RNvMNtCs53T6FtQI1eQ_17sweet_grass_query9traversalNtB2_15ProvenanceGraph13entity_hashes
FN:65,_RNvMNtCs53T6FtQI1eQ_17sweet_grass_query9traversalNtB2_15ProvenanceGraph14activity_count
FN:106,_RNvMNtCs53T6FtQI1eQ_17sweet_grass_query9traversalNtB2_15ProvenanceGraph15contains_entity
FN:98,_RNvMNtCs53T6FtQI1eQ_17sweet_grass_query9traversalNtB2_15ProvenanceGraph19generating_activity
FN:71,_RNvMNtCs53T6FtQI1eQ_17sweet_grass_query9traversalNtB2_15ProvenanceGraph7parents
FN:85,_RNvMNtCs53T6FtQI1eQ_17sweet_grass_query9traversalNtB2_15ProvenanceGraph8children
FN:136,_RNvMs_NtCs53T6FtQI1eQ_17sweet_grass_query9traversalNtB4_22ProvenanceGraphBuilder18include_activities
FN:120,_RNvMs_NtCs53T6FtQI1eQ_17sweet_grass_query9traversalNtB4_22ProvenanceGraphBuilder3new
FN:142,_RNvMs_NtCs53T6FtQI1eQ_17sweet_grass_query9traversalNtB4_22ProvenanceGraphBuilder5build
FN:167,_RNvMs_NtCs53T6FtQI1eQ_17sweet_grass_query9traversalNtB4_22ProvenanceGraphBuilder8traverse
FN:129,_RNvMs_NtCs53T6FtQI1eQ_17sweet_grass_query9traversalNtB4_22ProvenanceGraphBuilder9max_depth
FN:237,_RNvXs0_NtCs53T6FtQI1eQ_17sweet_grass_query9traversalNtB5_22ProvenanceGraphBuilderNtNtCs9sjCchOt1K7_4core7default7Default7default
FN:146,_RNCNvMs_NtCs37lZsjijy2z_17sweet_grass_query9traversalNtB6_22ProvenanceGraphBuilder5build0CsdjAd9q7fPo9_19sweet_grass_service
FN:146,_RNCNvMs_NtCs37lZsjijy2z_17sweet_grass_query9traversalNtB6_22ProvenanceGraphBuilder5build0CsZK8v8cnrxE_19sweet_grass_service
FNDA:2,_RNCNvMs_NtCs37lZsjijy2z_17sweet_grass_query9traversalNtB6_22ProvenanceGraphBuilder5build0Csad6wFluTeQR_11integration
FNDA:0,_RNvMNtCs37lZsjijy2z_17sweet_grass_query9traversalNtB2_15ProvenanceGraph10root_braid
FNDA:0,_RNvMNtCs37lZsjijy2z_17sweet_grass_query9traversalNtB2_15ProvenanceGraph12activity_ids
FNDA:0,_RNvMNtCs37lZsjijy2z_17sweet_grass_query9traversalNtB2_15ProvenanceGraph12entity_count
FNDA:0,_RNvMNtCs37lZsjijy2z_17sweet_grass_query9traversalNtB2_15ProvenanceGraph13entity_hashes
FNDA:0,_RNvMNtCs37lZsjijy2z_17sweet_grass_query9traversalNtB2_15ProvenanceGraph14activity_count
FNDA:0,_RNvMNtCs37lZsjijy2z_17sweet_grass_query9traversalNtB2_15ProvenanceGraph15contains_entity
FNDA:0,_RNvMNtCs37lZsjijy2z_17sweet_grass_query9traversalNtB2_15ProvenanceGraph19generating_activity
FNDA:0,_RNvMNtCs37lZsjijy2z_17sweet_grass_query9traversalNtB2_15ProvenanceGraph7parents
FNDA:0,_RNvMNtCs37lZsjijy2z_17sweet_grass_query9traversalNtB2_15ProvenanceGraph8children
FNDA:8,_RNvMs_NtCs37lZsjijy2z_17sweet_grass_query9traversalNtB4_22ProvenanceGraphBuilder18include_activities
FNDA:8,_RNvMs_NtCs37lZsjijy2z_17sweet_grass_query9traversalNtB4_22ProvenanceGraphBuilder3new
FNDA:8,_RNvMs_NtCs37lZsjijy2z_17sweet_grass_query9traversalNtB4_22ProvenanceGraphBuilder5build
FNDA:12,_RNvMs_NtCs37lZsjijy2z_17sweet_grass_query9traversalNtB4_22ProvenanceGraphBuilder8traverse
FNDA:8,_RNvMs_NtCs37lZsjijy2z_17sweet_grass_query9traversalNtB4_22ProvenanceGraphBuilder9max_depth
FNDA:0,_RNvXs0_NtCs37lZsjijy2z_17sweet_grass_query9traversalNtB5_22ProvenanceGraphBuilderNtNtCs9sjCchOt1K7_4core7default7Default7default
FNDA:0,_RNCNCNvMNtCs37lZsjijy2z_17sweet_grass_query9traversalNtB6_15ProvenanceGraph7parents00B8_
FNDA:0,_RNCNCNvMNtCs37lZsjijy2z_17sweet_grass_query9traversalNtB6_15ProvenanceGraph8children00B8_
FNDA:4,_RNCNCNvMs_NtCs37lZsjijy2z_17sweet_grass_query9traversalNtB8_22ProvenanceGraphBuilder8traverse00Ba_
FNDA:0,_RNCNvMNtCs37lZsjijy2z_17sweet_grass_query9traversalNtB4_15ProvenanceGraph10root_braid0B6_
FNDA:0,_RNCNvMNtCs37lZsjijy2z_17sweet_grass_query9traversalNtB4_15ProvenanceGraph19generating_activity0B6_
FNDA:0,_RNCNvMNtCs37lZsjijy2z_17sweet_grass_query9traversalNtB4_15ProvenanceGraph7parents0B6_
FNDA:0,_RNCNvMNtCs37lZsjijy2z_17sweet_grass_query9traversalNtB4_15ProvenanceGraph8children0B6_
FNDA:12,_RNCNvMs_NtCs37lZsjijy2z_17sweet_grass_query9traversalNtB6_22ProvenanceGraphBuilder8traverse0B8_
FNDA:0,_RNCNvMs_NtCs37lZsjijy2z_17sweet_grass_query9traversalNtB6_22ProvenanceGraphBuilder5build0B8_
FNDA:3,_RNCNCNvMNtCs53T6FtQI1eQ_17sweet_grass_query9traversalNtB6_15ProvenanceGraph7parents00B8_
FNDA:1,_RNCNCNvMNtCs53T6FtQI1eQ_17sweet_grass_query9traversalNtB6_15ProvenanceGraph8children00B8_
FNDA:13,_RNCNCNvMs_NtCs53T6FtQI1eQ_17sweet_grass_query9traversalNtB8_22ProvenanceGraphBuilder8traverse00Ba_
FNDA:1,_RNCNvMNtCs53T6FtQI1eQ_17sweet_grass_query9traversalNtB4_15ProvenanceGraph10root_braid0B6_
FNDA:0,_RNCNvMNtCs53T6FtQI1eQ_17sweet_grass_query9traversalNtB4_15ProvenanceGraph19generating_activity0B6_
FNDA:2,_RNCNvMNtCs53T6FtQI1eQ_17sweet_grass_query9traversalNtB4_15ProvenanceGraph7parents0B6_
FNDA:2,_RNCNvMNtCs53T6FtQI1eQ_17sweet_grass_query9traversalNtB4_15ProvenanceGraph8children0B6_
FNDA:15,_RNCNvMs_NtCs53T6FtQI1eQ_17sweet_grass_query9traversalNtB6_22ProvenanceGraphBuilder5build0B8_
FNDA:28,_RNCNvMs_NtCs53T6FtQI1eQ_17sweet_grass_query9traversalNtB6_22ProvenanceGraphBuilder8traverse0B8_
FNDA:31,_RNvNtNtCs53T6FtQI1eQ_17sweet_grass_query9traversal5tests15make_test_braid
FNDA:1,_RNvNtNtCs53T6FtQI1eQ_17sweet_grass_query9traversal5testss_13test_children
FNDA:1,_RNvNtNtCs53T6FtQI1eQ_17sweet_grass_query9traversal5testss_15test_root_braid
FNDA:1,_RNvNtNtCs53T6FtQI1eQ_17sweet_grass_query9traversal5testss_16test_depth_limit
FNDA:1,_RNvNtNtCs53T6FtQI1eQ_17sweet_grass_query9traversal5testss_17test_missing_root
FNDA:1,_RNvNtNtCs53T6FtQI1eQ_17sweet_grass_query9traversal5testss_18test_parents_empty
FNDA:1,_RNvNtNtCs53T6FtQI1eQ_17sweet_grass_query9traversal5testss_20test_builder_default
FNDA:1,_RNvNtNtCs53T6FtQI1eQ_17sweet_grass_query9traversal5testss_20test_contains_entity
FNDA:1,_RNvNtNtCs53T6FtQI1eQ_17sweet_grass_query9traversal5testss_21test_derivation_chain
FNDA:1,_RNvNtNtCs53T6FtQI1eQ_17sweet_grass_query9traversal5testss_21test_multiple_parents
FNDA:1,_RNvNtNtCs53T6FtQI1eQ_17sweet_grass_query9traversal5testss_23test_without_activities
FNDA:1,_RNvNtNtCs53T6FtQI1eQ_17sweet_grass_query9traversal5testss_24test_generating_activity
FNDA:1,_RNvNtNtCs53T6FtQI1eQ_17sweet_grass_query9traversal5testss_24test_single_entity_graph
FNDA:1,_RNvNtNtCs53T6FtQI1eQ_17sweet_grass_query9traversal5testss_34test_entity_and_activity_accessors
FNDA:1,_RNvNtNtCs53T6FtQI1eQ_17sweet_grass_query9traversal5testss_35test_provenance_graph_serialization
FNDA:1,_RNCNvNtNtCs53T6FtQI1eQ_17sweet_grass_query9traversal5testss_13test_children0B7_
FNDA:1,_RNCNvNtNtCs53T6FtQI1eQ_17sweet_grass_query9traversal5testss_15test_root_braid0B7_
FNDA:1,_RNCNvNtNtCs53T6FtQI1eQ_17sweet_grass_query9traversal5testss_16test_depth_limit0B7_
FNDA:1,_RNCNvNtNtCs53T6FtQI1eQ_17sweet_grass_query9traversal5testss_17test_missing_root0B7_
FNDA:1,_RNCNvNtNtCs53T6FtQI1eQ_17sweet_grass_query9traversal5testss_18test_parents_empty0B7_
FNDA:1,_RNCNvNtNtCs53T6FtQI1eQ_17sweet_grass_query9traversal5testss_20test_builder_default0B7_
FNDA:1,_RNCNvNtNtCs53T6FtQI1eQ_17sweet_grass_query9traversal5testss_20test_contains_entity0B7_
FNDA:1,_RNCNvNtNtCs53T6FtQI1eQ_17sweet_grass_query9traversal5testss_21test_derivation_chain0B7_
FNDA:1,_RNCNvNtNtCs53T6FtQI1eQ_17sweet_grass_query9traversal5testss_21test_multiple_parents0B7_
FNDA:1,_RNCNvNtNtCs53T6FtQI1eQ_17sweet_grass_query9traversal5testss_23test_without_activities0B7_
FNDA:1,_RNCNvNtNtCs53T6FtQI1eQ_17sweet_grass_query9traversal5testss_24test_generating_activity0B7_
FNDA:1,_RNCNvNtNtCs53T6FtQI1eQ_17sweet_grass_query9traversal5testss_24test_single_entity_graph0B7_
FNDA:1,_RNCNvNtNtCs53T6FtQI1eQ_17sweet_grass_query9traversal5testss_34test_entity_and_activity_accessors0B7_
FNDA:1,_RNvMNtCs53T6FtQI1eQ_17sweet_grass_query9traversalNtB2_15ProvenanceGraph10root_braid
FNDA:1,_RNvMNtCs53T6FtQI1eQ_17sweet_grass_query9traversalNtB2_15ProvenanceGraph12activity_ids
FNDA:7,_RNvMNtCs53T6FtQI1eQ_17sweet_grass_query9traversalNtB2_15ProvenanceGraph12entity_count
FNDA:1,_RNvMNtCs53T6FtQI1eQ_17sweet_grass_query9traversalNtB2_15ProvenanceGraph13entity_hashes
FNDA:1,_RNvMNtCs53T6FtQI1eQ_17sweet_grass_query9traversalNtB2_15ProvenanceGraph14activity_count
FNDA:2,_RNvMNtCs53T6FtQI1eQ_17sweet_grass_query9traversalNtB2_15ProvenanceGraph15contains_entity
FNDA:1,_RNvMNtCs53T6FtQI1eQ_17sweet_grass_query9traversalNtB2_15ProvenanceGraph19generating_activity
FNDA:3,_RNvMNtCs53T6FtQI1eQ_17sweet_grass_query9traversalNtB2_15ProvenanceGraph7parents
FNDA:1,_RNvMNtCs53T6FtQI1eQ_17sweet_grass_query9traversalNtB2_15ProvenanceGraph8children
FNDA:4,_RNvMs_NtCs53T6FtQI1eQ_17sweet_grass_query9traversalNtB4_22ProvenanceGraphBuilder18include_activities
FNDA:16,_RNvMs_NtCs53T6FtQI1eQ_17sweet_grass_query9traversalNtB4_22ProvenanceGraphBuilder3new
FNDA:15,_RNvMs_NtCs53T6FtQI1eQ_17sweet_grass_query9traversalNtB4_22ProvenanceGraphBuilder5build
FNDA:28,_RNvMs_NtCs53T6FtQI1eQ_17sweet_grass_query9traversalNtB4_22ProvenanceGraphBuilder8traverse
FNDA:4,_RNvMs_NtCs53T6FtQI1eQ_17sweet_grass_query9traversalNtB4_22ProvenanceGraphBuilder9max_depth
FNDA:1,_RNvXs0_NtCs53T6FtQI1eQ_17sweet_grass_query9traversalNtB5_22ProvenanceGraphBuilderNtNtCs9sjCchOt1K7_4core7default7Default7default
FNDA:0,_RNCNvMs_NtCs37lZsjijy2z_17sweet_grass_query9traversalNtB6_22ProvenanceGraphBuilder5build0CsdjAd9q7fPo9_19sweet_grass_service
FNDA:6,_RNCNvMs_NtCs37lZsjijy2z_17sweet_grass_query9traversalNtB6_22ProvenanceGraphBuilder5build0CsZK8v8cnrxE_19sweet_grass_service
FNF:52
FNH:51
DA:41,1
DA:42,1
DA:43,1
DA:47,1
DA:48,1
DA:49,1
DA:53,1
DA:54,1
DA:55,1
DA:59,7
DA:60,7
DA:61,7
DA:65,1
DA:66,1
DA:67,1
DA:71,3
DA:72,3
DA:73,3
DA:74,3
DA:75,2
DA:76,2
DA:77,3
DA:78,2
DA:79,3
DA:80,3
DA:81,3
DA:85,1
DA:86,1
DA:87,1
DA:88,2
DA:89,2
DA:90,2
DA:91,2
DA:92,2
DA:93,1
DA:94,1
DA:98,1
DA:99,1
DA:100,1
DA:101,1
DA:102,1
DA:106,2
DA:107,2
DA:108,2
DA:120,24
DA:121,24
DA:122,24
DA:123,24
DA:124,24
DA:125,24
DA:129,12
DA:130,12
DA:131,12
DA:132,12
DA:136,12
DA:137,12
DA:138,12
DA:139,12
DA:142,23
DA:143,23
DA:144,23
DA:145,23
DA:146,23
DA:147,23
DA:148,23
DA:149,23
DA:150,23
DA:151,23
DA:152,23
DA:153,23
DA:154,23
DA:155,23
DA:156,23
DA:157,23
DA:159,23
DA:160,23
DA:161,23
DA:162,0
DA:164,23
DA:165,23
DA:167,40
DA:168,40
DA:169,40
DA:170,40
DA:171,40
DA:172,40
DA:173,40
DA:174,40
DA:175,40
DA:176,40
DA:177,40
DA:178,1
DA:179,1
DA:180,39
DA:181,39
DA:182,39
DA:183,39
DA:184,0
DA:185,39
DA:186,39
DA:187,39
DA:188,39
DA:189,39
DA:190,15
DA:191,24
DA:194,39
DA:195,2
DA:199,37
DA:200,37
DA:201,37
DA:202,37
DA:203,36
DA:204,3
DA:205,3
DA:206,3
DA:207,3
DA:208,3
DA:209,33
DA:210,1
DA:213,37
DA:214,37
DA:215,37
DA:216,37
DA:217,37
DA:218,37
DA:219,37
DA:220,16
DA:221,16
DA:222,16
DA:225,33
DA:226,17
DA:227,17
DA:229,21
DA:231,37
DA:232,40
DA:233,40
DA:237,1
DA:238,1
DA:239,1
DA:254,31
DA:255,31
DA:256,31
DA:257,31
DA:258,31
DA:259,31
DA:260,31
DA:261,31
DA:262,31
DA:263,31
DA:264,31
DA:265,31
DA:266,31
DA:267,31
DA:268,31
DA:269,31
DA:270,31
DA:273,1
DA:274,1
DA:275,1
DA:276,1
DA:277,1
DA:278,1
DA:279,1
DA:280,1
DA:281,1
DA:282,1
DA:283,1
DA:284,1
DA:285,1
DA:286,1
DA:287,1
DA:288,1
DA:289,1
DA:290,1
DA:293,1
DA:294,1
DA:295,1
DA:296,1
DA:297,1
DA:298,1
DA:299,1
DA:300,1
DA:301,1
DA:302,1
DA:303,1
DA:304,1
DA:305,1
DA:306,1
DA:307,1
DA:308,1
DA:309,1
DA:310,1
DA:311,1
DA:312,1
DA:313,1
DA:314,1
DA:315,1
DA:316,1
DA:317,1
DA:318,1
DA:319,1
DA:320,1
DA:321,1
DA:324,1
DA:325,1
DA:326,1
DA:327,1
DA:328,16
DA:329,15
DA:330,14
DA:331,1
DA:332,1
DA:333,1
DA:334,15
DA:335,15
DA:336,15
DA:337,15
DA:338,15
DA:339,15
DA:340,1
DA:341,1
DA:342,1
DA:343,1
DA:344,1
DA:345,1
DA:346,1
DA:347,1
DA:348,1
DA:349,1
DA:350,1
DA:351,1
DA:352,1
DA:353,1
DA:356,1
DA:357,1
DA:358,1
DA:359,1
DA:360,1
DA:361,1
DA:362,1
DA:363,1
DA:364,1
DA:365,1
DA:366,1
DA:367,1
DA:368,1
DA:369,1
DA:370,1
DA:371,1
DA:372,1
DA:373,1
DA:374,1
DA:375,1
DA:376,1
DA:377,1
DA:378,1
DA:379,1
DA:380,1
DA:381,1
DA:382,1
DA:383,1
DA:384,1
DA:387,1
DA:388,1
DA:389,1
DA:390,1
DA:391,1
DA:392,1
DA:393,1
DA:394,1
DA:395,1
DA:396,1
DA:397,1
DA:398,1
DA:399,1
DA:400,1
DA:401,1
DA:402,1
DA:403,1
DA:404,1
DA:405,1
DA:406,1
DA:407,1
DA:408,1
DA:409,1
DA:410,1
DA:411,1
DA:414,1
DA:415,1
DA:416,1
DA:417,1
DA:418,1
DA:419,1
DA:420,1
DA:421,1
DA:422,1
DA:423,1
DA:424,1
DA:425,1
DA:426,1
DA:427,1
DA:428,1
DA:429,1
DA:430,1
DA:431,1
DA:434,1
DA:435,1
DA:436,1
DA:437,1
DA:438,1
DA:439,1
DA:440,1
DA:441,1
DA:442,1
DA:443,1
DA:444,1
DA:445,1
DA:446,1
DA:447,1
DA:448,1
DA:449,1
DA:450,1
DA:451,1
DA:452,1
DA:453,1
DA:454,1
DA:455,1
DA:458,1
DA:459,1
DA:460,1
DA:461,1
DA:462,1
DA:463,1
DA:464,1
DA:465,1
DA:466,1
DA:467,1
DA:468,1
DA:469,1
DA:470,1
DA:471,1
DA:472,1
DA:473,1
DA:474,1
DA:477,1
DA:478,1
DA:479,1
DA:480,1
DA:481,1
DA:482,1
DA:483,1
DA:484,1
DA:485,1
DA:486,1
DA:487,1
DA:488,1
DA:489,1
DA:490,1
DA:491,1
DA:492,1
DA:493,1
DA:496,1
DA:497,1
DA:498,1
DA:499,1
DA:500,1
DA:501,1
DA:502,1
DA:503,1
DA:504,1
DA:505,1
DA:506,1
DA:507,1
DA:508,1
DA:509,1
DA:510,1
DA:511,1
DA:512,1
DA:513,1
DA:516,1
DA:517,1
DA:518,1
DA:519,1
DA:520,1
DA:521,1
DA:522,1
DA:523,1
DA:524,1
DA:525,1
DA:526,1
DA:527,1
DA:528,1
DA:529,1
DA:530,1
DA:531,1
DA:532,1
DA:535,1
DA:536,1
DA:537,1
DA:538,1
DA:539,1
DA:542,1
DA:543,1
DA:544,1
DA:545,1
DA:546,1
DA:547,1
DA:548,1
DA:549,1
DA:550,1
DA:551,1
DA:552,1
DA:553,1
DA:554,1
DA:555,1
DA:556,1
DA:557,1
DA:560,1
DA:561,1
DA:562,1
DA:563,1
DA:564,1
DA:565,1
DA:566,1
DA:567,1
DA:568,1
DA:569,1
DA:570,1
DA:571,1
DA:572,1
DA:573,1
DA:574,1
DA:575,1
DA:576,1
BRF:0
BRH:0
LF:684
LH:678
end_of_record
SF:/home/strandgate/Development/ecoPrimals/phase2/sweetGrass/crates/sweet-grass-service/src/bin/service.rs
FN:49,_RNvCslEXvRT2J7YU_19sweet_grass_service4main
FN:25,_RNCNvXs0_CslEXvRT2J7YU_19sweet_grass_serviceNtB7_3CliNtNtCs4ZDjq0odZDX_12clap_builder6derive14FromArgMatches27update_from_arg_matches_mut0B7_
FN:37,_RNCNvXs0_CslEXvRT2J7YU_19sweet_grass_serviceNtB7_3CliNtNtCs4ZDjq0odZDX_12clap_builder6derive14FromArgMatches27update_from_arg_matches_muts0_0B7_
FN:41,_RNCNvXs0_CslEXvRT2J7YU_19sweet_grass_serviceNtB7_3CliNtNtCs4ZDjq0odZDX_12clap_builder6derive14FromArgMatches27update_from_arg_matches_muts1_0B7_
FN:45,_RNCNvXs0_CslEXvRT2J7YU_19sweet_grass_serviceNtB7_3CliNtNtCs4ZDjq0odZDX_12clap_builder6derive14FromArgMatches27update_from_arg_matches_muts2_0B7_
FN:29,_RNCNvXs0_CslEXvRT2J7YU_19sweet_grass_serviceNtB7_3CliNtNtCs4ZDjq0odZDX_12clap_builder6derive14FromArgMatches27update_from_arg_matches_muts_0B7_
FN:49,_RNCNvCslEXvRT2J7YU_19sweet_grass_service4main0B3_
FN:25,_RNCNvXs0_CslEXvRT2J7YU_19sweet_grass_serviceNtB7_3CliNtNtCs4ZDjq0odZDX_12clap_builder6derive14FromArgMatches20from_arg_matches_mut0B7_
FN:37,_RNCNvXs0_CslEXvRT2J7YU_19sweet_grass_serviceNtB7_3CliNtNtCs4ZDjq0odZDX_12clap_builder6derive14FromArgMatches20from_arg_matches_muts0_0B7_
FN:41,_RNCNvXs0_CslEXvRT2J7YU_19sweet_grass_serviceNtB7_3CliNtNtCs4ZDjq0odZDX_12clap_builder6derive14FromArgMatches20from_arg_matches_muts1_0B7_
FN:45,_RNCNvXs0_CslEXvRT2J7YU_19sweet_grass_serviceNtB7_3CliNtNtCs4ZDjq0odZDX_12clap_builder6derive14FromArgMatches20from_arg_matches_muts2_0B7_
FN:29,_RNCNvXs0_CslEXvRT2J7YU_19sweet_grass_serviceNtB7_3CliNtNtCs4ZDjq0odZDX_12clap_builder6derive14FromArgMatches20from_arg_matches_muts_0B7_
FN:49,_RNCNvCsiJxL9vMMLVx_19sweet_grass_service4main0B3_
FN:25,_RNCNvXs0_CsiJxL9vMMLVx_19sweet_grass_serviceNtB7_3CliNtNtCs4ZDjq0odZDX_12clap_builder6derive14FromArgMatches20from_arg_matches_mut0B7_
FN:37,_RNCNvXs0_CsiJxL9vMMLVx_19sweet_grass_serviceNtB7_3CliNtNtCs4ZDjq0odZDX_12clap_builder6derive14FromArgMatches20from_arg_matches_muts0_0B7_
FN:41,_RNCNvXs0_CsiJxL9vMMLVx_19sweet_grass_serviceNtB7_3CliNtNtCs4ZDjq0odZDX_12clap_builder6derive14FromArgMatches20from_arg_matches_muts1_0B7_
FN:45,_RNCNvXs0_CsiJxL9vMMLVx_19sweet_grass_serviceNtB7_3CliNtNtCs4ZDjq0odZDX_12clap_builder6derive14FromArgMatches20from_arg_matches_muts2_0B7_
FN:29,_RNCNvXs0_CsiJxL9vMMLVx_19sweet_grass_serviceNtB7_3CliNtNtCs4ZDjq0odZDX_12clap_builder6derive14FromArgMatches20from_arg_matches_muts_0B7_
FN:25,_RNCNvXs0_CsiJxL9vMMLVx_19sweet_grass_serviceNtB7_3CliNtNtCs4ZDjq0odZDX_12clap_builder6derive14FromArgMatches27update_from_arg_matches_mut0B7_
FN:37,_RNCNvXs0_CsiJxL9vMMLVx_19sweet_grass_serviceNtB7_3CliNtNtCs4ZDjq0odZDX_12clap_builder6derive14FromArgMatches27update_from_arg_matches_muts0_0B7_
FN:41,_RNCNvXs0_CsiJxL9vMMLVx_19sweet_grass_serviceNtB7_3CliNtNtCs4ZDjq0odZDX_12clap_builder6derive14FromArgMatches27update_from_arg_matches_muts1_0B7_
FN:45,_RNCNvXs0_CsiJxL9vMMLVx_19sweet_grass_serviceNtB7_3CliNtNtCs4ZDjq0odZDX_12clap_builder6derive14FromArgMatches27update_from_arg_matches_muts2_0B7_
FN:29,_RNCNvXs0_CsiJxL9vMMLVx_19sweet_grass_serviceNtB7_3CliNtNtCs4ZDjq0odZDX_12clap_builder6derive14FromArgMatches27update_from_arg_matches_muts_0B7_
FN:49,_RNvCsiJxL9vMMLVx_19sweet_grass_service4main
FNDA:0,_RNvCslEXvRT2J7YU_19sweet_grass_service4main
FNDA:0,_RNCNvXs0_CslEXvRT2J7YU_19sweet_grass_serviceNtB7_3CliNtNtCs4ZDjq0odZDX_12clap_builder6derive14FromArgMatches27update_from_arg_matches_mut0B7_
FNDA:0,_RNCNvXs0_CslEXvRT2J7YU_19sweet_grass_serviceNtB7_3CliNtNtCs4ZDjq0odZDX_12clap_builder6derive14FromArgMatches27update_from_arg_matches_muts0_0B7_
FNDA:0,_RNCNvXs0_CslEXvRT2J7YU_19sweet_grass_serviceNtB7_3CliNtNtCs4ZDjq0odZDX_12clap_builder6derive14FromArgMatches27update_from_arg_matches_muts1_0B7_
FNDA:0,_RNCNvXs0_CslEXvRT2J7YU_19sweet_grass_serviceNtB7_3CliNtNtCs4ZDjq0odZDX_12clap_builder6derive14FromArgMatches27update_from_arg_matches_muts2_0B7_
FNDA:0,_RNCNvXs0_CslEXvRT2J7YU_19sweet_grass_serviceNtB7_3CliNtNtCs4ZDjq0odZDX_12clap_builder6derive14FromArgMatches27update_from_arg_matches_muts_0B7_
FNDA:0,_RNCNvCslEXvRT2J7YU_19sweet_grass_service4main0B3_
FNDA:0,_RNCNvXs0_CslEXvRT2J7YU_19sweet_grass_serviceNtB7_3CliNtNtCs4ZDjq0odZDX_12clap_builder6derive14FromArgMatches20from_arg_matches_mut0B7_
FNDA:0,_RNCNvXs0_CslEXvRT2J7YU_19sweet_grass_serviceNtB7_3CliNtNtCs4ZDjq0odZDX_12clap_builder6derive14FromArgMatches20from_arg_matches_muts0_0B7_
FNDA:0,_RNCNvXs0_CslEXvRT2J7YU_19sweet_grass_serviceNtB7_3CliNtNtCs4ZDjq0odZDX_12clap_builder6derive14FromArgMatches20from_arg_matches_muts1_0B7_
FNDA:0,_RNCNvXs0_CslEXvRT2J7YU_19sweet_grass_serviceNtB7_3CliNtNtCs4ZDjq0odZDX_12clap_builder6derive14FromArgMatches20from_arg_matches_muts2_0B7_
FNDA:0,_RNCNvXs0_CslEXvRT2J7YU_19sweet_grass_serviceNtB7_3CliNtNtCs4ZDjq0odZDX_12clap_builder6derive14FromArgMatches20from_arg_matches_muts_0B7_
FNDA:0,_RNCNvCsiJxL9vMMLVx_19sweet_grass_service4main0B3_
FNDA:0,_RNCNvXs0_CsiJxL9vMMLVx_19sweet_grass_serviceNtB7_3CliNtNtCs4ZDjq0odZDX_12clap_builder6derive14FromArgMatches20from_arg_matches_mut0B7_
FNDA:0,_RNCNvXs0_CsiJxL9vMMLVx_19sweet_grass_serviceNtB7_3CliNtNtCs4ZDjq0odZDX_12clap_builder6derive14FromArgMatches20from_arg_matches_muts0_0B7_
FNDA:0,_RNCNvXs0_CsiJxL9vMMLVx_19sweet_grass_serviceNtB7_3CliNtNtCs4ZDjq0odZDX_12clap_builder6derive14FromArgMatches20from_arg_matches_muts1_0B7_
FNDA:0,_RNCNvXs0_CsiJxL9vMMLVx_19sweet_grass_serviceNtB7_3CliNtNtCs4ZDjq0odZDX_12clap_builder6derive14FromArgMatches20from_arg_matches_muts2_0B7_
FNDA:0,_RNCNvXs0_CsiJxL9vMMLVx_19sweet_grass_serviceNtB7_3CliNtNtCs4ZDjq0odZDX_12clap_builder6derive14FromArgMatches20from_arg_matches_muts_0B7_
FNDA:0,_RNCNvXs0_CsiJxL9vMMLVx_19sweet_grass_serviceNtB7_3CliNtNtCs4ZDjq0odZDX_12clap_builder6derive14FromArgMatches27update_from_arg_matches_mut0B7_
FNDA:0,_RNCNvXs0_CsiJxL9vMMLVx_19sweet_grass_serviceNtB7_3CliNtNtCs4ZDjq0odZDX_12clap_builder6derive14FromArgMatches27update_from_arg_matches_muts0_0B7_
FNDA:0,_RNCNvXs0_CsiJxL9vMMLVx_19sweet_grass_serviceNtB7_3CliNtNtCs4ZDjq0odZDX_12clap_builder6derive14FromArgMatches27update_from_arg_matches_muts1_0B7_
FNDA:0,_RNCNvXs0_CsiJxL9vMMLVx_19sweet_grass_serviceNtB7_3CliNtNtCs4ZDjq0odZDX_12clap_builder6derive14FromArgMatches27update_from_arg_matches_muts2_0B7_
FNDA:0,_RNCNvXs0_CsiJxL9vMMLVx_19sweet_grass_serviceNtB7_3CliNtNtCs4ZDjq0odZDX_12clap_builder6derive14FromArgMatches27update_from_arg_matches_muts_0B7_
FNDA:0,_RNvCsiJxL9vMMLVx_19sweet_grass_service4main
FNF:7
FNH:0
DA:25,0
DA:29,0
DA:37,0
DA:41,0
DA:45,0
DA:49,0
DA:50,0
DA:51,0
DA:52,0
DA:53,0
DA:54,0
DA:55,0
DA:56,0
DA:57,0
DA:58,0
DA:59,0
DA:60,0
DA:61,0
DA:62,0
DA:63,0
DA:64,0
DA:65,0
DA:66,0
DA:67,0
DA:68,0
DA:69,0
DA:70,0
DA:71,0
DA:72,0
DA:73,0
DA:74,0
DA:75,0
DA:76,0
DA:77,0
DA:78,0
DA:79,0
DA:80,0
DA:81,0
DA:82,0
DA:83,0
DA:84,0
DA:85,0
DA:86,0
DA:87,0
DA:88,0
DA:89,0
DA:90,0
DA:91,0
DA:92,0
BRF:0
BRH:0
LF:81
LH:0
end_of_record
SF:/home/strandgate/Development/ecoPrimals/phase2/sweetGrass/crates/sweet-grass-service/src/bootstrap.rs
FN:98,_RNCNvNtCsdjAd9q7fPo9_19sweet_grass_service9bootstrap16infant_bootstrap0B5_
FN:173,_RNCNvNtCsdjAd9q7fPo9_19sweet_grass_service9bootstrap25create_app_state_from_env0B5_
FN:98,_RNvNtCsZK8v8cnrxE_19sweet_grass_service9bootstrap16infant_bootstrap
FN:173,_RNvNtCsZK8v8cnrxE_19sweet_grass_service9bootstrap25create_app_state_from_env
FN:229,_RNCNCNvNtNtCsZK8v8cnrxE_19sweet_grass_service9bootstrap5testss_30test_create_app_state_from_env00B9_
FN:189,_RNCNCNvNtNtCsZK8v8cnrxE_19sweet_grass_service9bootstrap5testss_30test_infant_bootstrap_defaults00B9_
FN:208,_RNCNCNvNtNtCsZK8v8cnrxE_19sweet_grass_service9bootstrap5testss_33test_infant_bootstrap_with_config00B9_
FN:229,_RNCNvNtNtCsZK8v8cnrxE_19sweet_grass_service9bootstrap5testss_30test_create_app_state_from_env0B7_
FN:189,_RNCNvNtNtCsZK8v8cnrxE_19sweet_grass_service9bootstrap5testss_30test_infant_bootstrap_defaults0B7_
FN:208,_RNCNvNtNtCsZK8v8cnrxE_19sweet_grass_service9bootstrap5testss_33test_infant_bootstrap_with_config0B7_
FN:98,_RNCNvNtCsZK8v8cnrxE_19sweet_grass_service9bootstrap16infant_bootstrap0B5_
FN:173,_RNCNvNtCsZK8v8cnrxE_19sweet_grass_service9bootstrap25create_app_state_from_env0B5_
FNDA:0,_RNCNvNtCsdjAd9q7fPo9_19sweet_grass_service9bootstrap16infant_bootstrap0B5_
FNDA:0,_RNCNvNtCsdjAd9q7fPo9_19sweet_grass_service9bootstrap25create_app_state_from_env0B5_
FNDA:2,_RNvNtCsZK8v8cnrxE_19sweet_grass_service9bootstrap16infant_bootstrap
FNDA:1,_RNvNtCsZK8v8cnrxE_19sweet_grass_service9bootstrap25create_app_state_from_env
FNDA:1,_RNCNCNvNtNtCsZK8v8cnrxE_19sweet_grass_service9bootstrap5testss_30test_create_app_state_from_env00B9_
FNDA:1,_RNCNCNvNtNtCsZK8v8cnrxE_19sweet_grass_service9bootstrap5testss_30test_infant_bootstrap_defaults00B9_
FNDA:1,_RNCNCNvNtNtCsZK8v8cnrxE_19sweet_grass_service9bootstrap5testss_33test_infant_bootstrap_with_config00B9_
FNDA:1,_RNCNvNtNtCsZK8v8cnrxE_19sweet_grass_service9bootstrap5testss_30test_create_app_state_from_env0B7_
FNDA:1,_RNCNvNtNtCsZK8v8cnrxE_19sweet_grass_service9bootstrap5testss_30test_infant_bootstrap_defaults0B7_
FNDA:1,_RNCNvNtNtCsZK8v8cnrxE_19sweet_grass_service9bootstrap5testss_33test_infant_bootstrap_with_config0B7_
FNDA:2,_RNCNvNtCsZK8v8cnrxE_19sweet_grass_service9bootstrap16infant_bootstrap0B5_
FNDA:1,_RNCNvNtCsZK8v8cnrxE_19sweet_grass_service9bootstrap25create_app_state_from_env0B5_
FNF:7
FNH:7
DA:98,2
DA:163,2
DA:173,1
DA:174,1
DA:175,1
DA:176,1
DA:177,1
DA:189,1
DA:190,1
DA:191,1
DA:192,1
DA:193,1
DA:194,1
DA:195,1
DA:196,1
DA:197,1
DA:198,1
DA:199,1
DA:200,1
DA:201,1
DA:202,1
DA:203,1
DA:208,1
DA:209,1
DA:210,1
DA:211,1
DA:212,1
DA:213,1
DA:214,1
DA:215,1
DA:216,1
DA:217,1
DA:218,1
DA:219,1
DA:220,1
DA:221,1
DA:222,1
DA:223,1
DA:224,1
DA:229,1
DA:230,1
DA:231,1
DA:232,1
DA:233,1
DA:234,1
DA:235,1
DA:236,1
DA:237,1
DA:238,1
BRF:0
BRH:0
LF:51
LH:51
end_of_record
SF:/home/strandgate/Development/ecoPrimals/phase2/sweetGrass/crates/sweet-grass-service/src/error.rs
FN:59,_RNvXNtCsdjAd9q7fPo9_19sweet_grass_service5errorNtB2_12ServiceErrorNtNtNtCs4IlSJuzwtLQ_9axum_core8response13into_response12IntoResponse13into_response
FN:82,_RNvXs_NtCsdjAd9q7fPo9_19sweet_grass_service5errorNtB4_12ServiceErrorINtNtCs9sjCchOt1K7_4core7convert4FromNtNtCs98BKYEhbmrI_10serde_json5error5ErrorE4from
FN:130,_RNvNtNtCsZK8v8cnrxE_19sweet_grass_service5error5testss_26test_from_serde_json_error
FN:94,_RNvNtNtCsZK8v8cnrxE_19sweet_grass_service5error5testss_26test_service_error_display
FN:123,_RNvNtNtCsZK8v8cnrxE_19sweet_grass_service5error5testss_27test_into_response_internal
FN:109,_RNvNtNtCsZK8v8cnrxE_19sweet_grass_service5error5testss_28test_into_response_not_found
FN:116,_RNvNtNtCsZK8v8cnrxE_19sweet_grass_service5error5testss_30test_into_response_bad_request
FN:59,_RNvXNtCsZK8v8cnrxE_19sweet_grass_service5errorNtB2_12ServiceErrorNtNtNtCs4IlSJuzwtLQ_9axum_core8response13into_response12IntoResponse13into_response
FN:82,_RNvXs_NtCsZK8v8cnrxE_19sweet_grass_service5errorNtB4_12ServiceErrorINtNtCs9sjCchOt1K7_4core7convert4FromNtNtCs98BKYEhbmrI_10serde_json5error5ErrorE4from
FNDA:0,_RNvXNtCsdjAd9q7fPo9_19sweet_grass_service5errorNtB2_12ServiceErrorNtNtNtCs4IlSJuzwtLQ_9axum_core8response13into_response12IntoResponse13into_response
FNDA:0,_RNvXs_NtCsdjAd9q7fPo9_19sweet_grass_service5errorNtB4_12ServiceErrorINtNtCs9sjCchOt1K7_4core7convert4FromNtNtCs98BKYEhbmrI_10serde_json5error5ErrorE4from
FNDA:1,_RNvNtNtCsZK8v8cnrxE_19sweet_grass_service5error5testss_26test_from_serde_json_error
FNDA:1,_RNvNtNtCsZK8v8cnrxE_19sweet_grass_service5error5testss_26test_service_error_display
FNDA:1,_RNvNtNtCsZK8v8cnrxE_19sweet_grass_service5error5testss_27test_into_response_internal
FNDA:1,_RNvNtNtCsZK8v8cnrxE_19sweet_grass_service5error5testss_28test_into_response_not_found
FNDA:1,_RNvNtNtCsZK8v8cnrxE_19sweet_grass_service5error5testss_30test_into_response_bad_request
FNDA:3,_RNvXNtCsZK8v8cnrxE_19sweet_grass_service5errorNtB2_12ServiceErrorNtNtNtCs4IlSJuzwtLQ_9axum_core8response13into_response12IntoResponse13into_response
FNDA:1,_RNvXs_NtCsZK8v8cnrxE_19sweet_grass_service5errorNtB4_12ServiceErrorINtNtCs9sjCchOt1K7_4core7convert4FromNtNtCs98BKYEhbmrI_10serde_json5error5ErrorE4from
FNF:7
FNH:7
DA:59,3
DA:60,3
DA:61,1
DA:62,1
DA:63,0
DA:65,0
DA:68,1
DA:72,3
DA:73,3
DA:74,3
DA:75,3
DA:76,3
DA:77,3
DA:78,3
DA:82,1
DA:83,1
DA:84,1
DA:94,1
DA:95,1
DA:96,1
DA:98,1
DA:99,1
DA:101,1
DA:102,1
DA:104,1
DA:105,1
DA:106,1
DA:109,1
DA:110,1
DA:111,1
DA:112,1
DA:113,1
DA:116,1
DA:117,1
DA:118,1
DA:119,1
DA:120,1
DA:123,1
DA:124,1
DA:125,1
DA:126,1
DA:127,1
DA:130,1
DA:131,1
DA:132,1
DA:133,1
DA:134,1
BRF:0
BRH:0
LF:47
LH:45
end_of_record
SF:/home/strandgate/Development/ecoPrimals/phase2/sweetGrass/crates/sweet-grass-service/src/factory.rs
FN:130,_RINvMNtCsdjAd9q7fPo9_19sweet_grass_service7factoryNtB3_17BraidStoreFactory13parse_env_varmEB5_
FN:130,_RINvMNtCsdjAd9q7fPo9_19sweet_grass_service7factoryNtB3_17BraidStoreFactory13parse_env_varyEB5_
FN:154,_RNCNvMNtCsdjAd9q7fPo9_19sweet_grass_service7factoryNtB4_17BraidStoreFactory17build_sled_config0B6_
FN:108,_RNCNvMNtCsdjAd9q7fPo9_19sweet_grass_service7factoryNtB4_17BraidStoreFactory21build_postgres_config0B6_
FN:109,_RNCNvMNtCsdjAd9q7fPo9_19sweet_grass_service7factoryNtB4_17BraidStoreFactory21build_postgres_configs_0B6_
FN:150,_RNvMNtCsdjAd9q7fPo9_19sweet_grass_service7factoryNtB2_17BraidStoreFactory17build_sled_config
FN:135,_RNvMNtCsdjAd9q7fPo9_19sweet_grass_service7factoryNtB2_17BraidStoreFactory19create_sled_backend
FN:105,_RNvMNtCsdjAd9q7fPo9_19sweet_grass_service7factoryNtB2_17BraidStoreFactory21build_postgres_config
FN:89,_RNvMNtCsdjAd9q7fPo9_19sweet_grass_service7factoryNtB2_17BraidStoreFactory23create_postgres_backend
FN:67,_RNvMNtCsdjAd9q7fPo9_19sweet_grass_service7factoryNtB2_17BraidStoreFactory8from_env
FN:68,_RNCNCNvMNtCsdjAd9q7fPo9_19sweet_grass_service7factoryNtB6_17BraidStoreFactory8from_env00B8_
FN:89,_RNCNvMNtCsdjAd9q7fPo9_19sweet_grass_service7factoryNtB4_17BraidStoreFactory23create_postgres_backend0B6_
FN:67,_RNCNvMNtCsdjAd9q7fPo9_19sweet_grass_service7factoryNtB4_17BraidStoreFactory8from_env0B6_
FN:233,_RNCNCNvNtNtCsZK8v8cnrxE_19sweet_grass_service7factory5testss_33test_postgres_backend_missing_url00B9_
FN:179,_RNCNvNtNtCsZK8v8cnrxE_19sweet_grass_service7factory5testss_19test_memory_backend0B7_
FN:186,_RNCNvNtNtCsZK8v8cnrxE_19sweet_grass_service7factory5testss_20test_default_backend0B7_
FN:205,_RNCNvNtNtCsZK8v8cnrxE_19sweet_grass_service7factory5testss_20test_unknown_backend0B7_
FN:381,_RNCNvNtNtCsZK8v8cnrxE_19sweet_grass_service7factory5testss_26test_parse_env_var_missing0B7_
FN:373,_RNCNvNtNtCsZK8v8cnrxE_19sweet_grass_service7factory5testss_26test_parse_env_var_success0B7_
FN:193,_RNCNvNtNtCsZK8v8cnrxE_19sweet_grass_service7factory5testss_28test_memory_backend_explicit0B7_
FN:389,_RNCNvNtNtCsZK8v8cnrxE_19sweet_grass_service7factory5testss_32test_parse_env_var_invalid_parse0B7_
FN:233,_RNCNvNtNtCsZK8v8cnrxE_19sweet_grass_service7factory5testss_33test_postgres_backend_missing_url0B7_
FN:333,_RNCNvNtNtCsZK8v8cnrxE_19sweet_grass_service7factory5testss_34test_build_sled_config_custom_path0B7_
FN:397,_RNCNvNtNtCsZK8v8cnrxE_19sweet_grass_service7factory5testss_34test_parse_env_var_different_types0B7_
FN:324,_RNCNvNtNtCsZK8v8cnrxE_19sweet_grass_service7factory5testss_35test_build_sled_config_default_path0B7_
FN:216,_RNCNvNtNtCsZK8v8cnrxE_19sweet_grass_service7factory5testss_37test_unknown_backend_specific_message0B7_
FN:247,_RNCNvNtNtCsZK8v8cnrxE_19sweet_grass_service7factory5testss_38test_build_postgres_config_missing_url0B7_
FN:342,_RNCNvNtNtCsZK8v8cnrxE_19sweet_grass_service7factory5testss_38test_build_sled_config_with_cache_size0B7_
FN:352,_RNCNvNtNtCsZK8v8cnrxE_19sweet_grass_service7factory5testss_42test_build_sled_config_with_flush_interval0B7_
FN:269,_RNCNvNtNtCsZK8v8cnrxE_19sweet_grass_service7factory5testss_43test_build_postgres_config_with_storage_url0B7_
FN:259,_RNCNvNtNtCsZK8v8cnrxE_19sweet_grass_service7factory5testss_44test_build_postgres_config_with_database_url0B7_
FN:361,_RNCNvNtNtCsZK8v8cnrxE_19sweet_grass_service7factory5testss_46test_build_sled_config_with_invalid_cache_size0B7_
FN:279,_RNCNvNtNtCsZK8v8cnrxE_19sweet_grass_service7factory5testss_47test_build_postgres_config_prefers_database_url0B7_
FN:290,_RNCNvNtNtCsZK8v8cnrxE_19sweet_grass_service7factory5testss_47test_build_postgres_config_with_max_connections0B7_
FN:301,_RNCNvNtNtCsZK8v8cnrxE_19sweet_grass_service7factory5testss_47test_build_postgres_config_with_min_connections0B7_
FN:311,_RNCNvNtNtCsZK8v8cnrxE_19sweet_grass_service7factory5testss_55test_build_postgres_config_with_invalid_max_connections0B7_
FN:150,_RNvMNtCsZK8v8cnrxE_19sweet_grass_service7factoryNtB2_17BraidStoreFactory17build_sled_config
FN:135,_RNvMNtCsZK8v8cnrxE_19sweet_grass_service7factoryNtB2_17BraidStoreFactory19create_sled_backend
FN:105,_RNvMNtCsZK8v8cnrxE_19sweet_grass_service7factoryNtB2_17BraidStoreFactory21build_postgres_config
FN:89,_RNvMNtCsZK8v8cnrxE_19sweet_grass_service7factoryNtB2_17BraidStoreFactory23create_postgres_backend
FN:67,_RNvMNtCsZK8v8cnrxE_19sweet_grass_service7factoryNtB2_17BraidStoreFactory8from_env
FN:179,_RNvNtNtCsZK8v8cnrxE_19sweet_grass_service7factory5testss_19test_memory_backend
FN:186,_RNvNtNtCsZK8v8cnrxE_19sweet_grass_service7factory5testss_20test_default_backend
FN:205,_RNvNtNtCsZK8v8cnrxE_19sweet_grass_service7factory5testss_20test_unknown_backend
FN:193,_RNvNtNtCsZK8v8cnrxE_19sweet_grass_service7factory5testss_28test_memory_backend_explicit
FN:216,_RNvNtNtCsZK8v8cnrxE_19sweet_grass_service7factory5testss_37test_unknown_backend_specific_message
FN:130,_RINvMNtCsZK8v8cnrxE_19sweet_grass_service7factoryNtB3_17BraidStoreFactory13parse_env_varNtNtCs6bBekJvxEMJ_5alloc6string6StringEB5_
FN:130,_RINvMNtCsZK8v8cnrxE_19sweet_grass_service7factoryNtB3_17BraidStoreFactory13parse_env_varbEB5_
FN:130,_RINvMNtCsZK8v8cnrxE_19sweet_grass_service7factoryNtB3_17BraidStoreFactory13parse_env_vardEB5_
FN:130,_RINvMNtCsZK8v8cnrxE_19sweet_grass_service7factoryNtB3_17BraidStoreFactory13parse_env_varmEB5_
FN:130,_RINvMNtCsZK8v8cnrxE_19sweet_grass_service7factoryNtB3_17BraidStoreFactory13parse_env_varyEB5_
FN:68,_RNCNCNvMNtCsZK8v8cnrxE_19sweet_grass_service7factoryNtB6_17BraidStoreFactory8from_env00B8_
FN:154,_RNCNvMNtCsZK8v8cnrxE_19sweet_grass_service7factoryNtB4_17BraidStoreFactory17build_sled_config0B6_
FN:108,_RNCNvMNtCsZK8v8cnrxE_19sweet_grass_service7factoryNtB4_17BraidStoreFactory21build_postgres_config0B6_
FN:109,_RNCNvMNtCsZK8v8cnrxE_19sweet_grass_service7factoryNtB4_17BraidStoreFactory21build_postgres_configs_0B6_
FN:89,_RNCNvMNtCsZK8v8cnrxE_19sweet_grass_service7factoryNtB4_17BraidStoreFactory23create_postgres_backend0B6_
FN:67,_RNCNvMNtCsZK8v8cnrxE_19sweet_grass_service7factoryNtB4_17BraidStoreFactory8from_env0B6_
FNDA:0,_RINvMNtCsdjAd9q7fPo9_19sweet_grass_service7factoryNtB3_17BraidStoreFactory13parse_env_varmEB5_
FNDA:0,_RINvMNtCsdjAd9q7fPo9_19sweet_grass_service7factoryNtB3_17BraidStoreFactory13parse_env_varyEB5_
FNDA:0,_RNCNvMNtCsdjAd9q7fPo9_19sweet_grass_service7factoryNtB4_17BraidStoreFactory17build_sled_config0B6_
FNDA:0,_RNCNvMNtCsdjAd9q7fPo9_19sweet_grass_service7factoryNtB4_17BraidStoreFactory21build_postgres_config0B6_
FNDA:0,_RNCNvMNtCsdjAd9q7fPo9_19sweet_grass_service7factoryNtB4_17BraidStoreFactory21build_postgres_configs_0B6_
FNDA:0,_RNvMNtCsdjAd9q7fPo9_19sweet_grass_service7factoryNtB2_17BraidStoreFactory17build_sled_config
FNDA:0,_RNvMNtCsdjAd9q7fPo9_19sweet_grass_service7factoryNtB2_17BraidStoreFactory19create_sled_backend
FNDA:0,_RNvMNtCsdjAd9q7fPo9_19sweet_grass_service7factoryNtB2_17BraidStoreFactory21build_postgres_config
FNDA:0,_RNvMNtCsdjAd9q7fPo9_19sweet_grass_service7factoryNtB2_17BraidStoreFactory23create_postgres_backend
FNDA:0,_RNvMNtCsdjAd9q7fPo9_19sweet_grass_service7factoryNtB2_17BraidStoreFactory8from_env
FNDA:0,_RNCNCNvMNtCsdjAd9q7fPo9_19sweet_grass_service7factoryNtB6_17BraidStoreFactory8from_env00B8_
FNDA:0,_RNCNvMNtCsdjAd9q7fPo9_19sweet_grass_service7factoryNtB4_17BraidStoreFactory23create_postgres_backend0B6_
FNDA:0,_RNCNvMNtCsdjAd9q7fPo9_19sweet_grass_service7factoryNtB4_17BraidStoreFactory8from_env0B6_
FNDA:1,_RNCNCNvNtNtCsZK8v8cnrxE_19sweet_grass_service7factory5testss_33test_postgres_backend_missing_url00B9_
FNDA:1,_RNCNvNtNtCsZK8v8cnrxE_19sweet_grass_service7factory5testss_19test_memory_backend0B7_
FNDA:1,_RNCNvNtNtCsZK8v8cnrxE_19sweet_grass_service7factory5testss_20test_default_backend0B7_
FNDA:1,_RNCNvNtNtCsZK8v8cnrxE_19sweet_grass_service7factory5testss_20test_unknown_backend0B7_
FNDA:1,_RNCNvNtNtCsZK8v8cnrxE_19sweet_grass_service7factory5testss_26test_parse_env_var_missing0B7_
FNDA:1,_RNCNvNtNtCsZK8v8cnrxE_19sweet_grass_service7factory5testss_26test_parse_env_var_success0B7_
FNDA:1,_RNCNvNtNtCsZK8v8cnrxE_19sweet_grass_service7factory5testss_28test_memory_backend_explicit0B7_
FNDA:1,_RNCNvNtNtCsZK8v8cnrxE_19sweet_grass_service7factory5testss_32test_parse_env_var_invalid_parse0B7_
FNDA:1,_RNCNvNtNtCsZK8v8cnrxE_19sweet_grass_service7factory5testss_33test_postgres_backend_missing_url0B7_
FNDA:1,_RNCNvNtNtCsZK8v8cnrxE_19sweet_grass_service7factory5testss_34test_build_sled_config_custom_path0B7_
FNDA:1,_RNCNvNtNtCsZK8v8cnrxE_19sweet_grass_service7factory5testss_34test_parse_env_var_different_types0B7_
FNDA:1,_RNCNvNtNtCsZK8v8cnrxE_19sweet_grass_service7factory5testss_35test_build_sled_config_default_path0B7_
FNDA:1,_RNCNvNtNtCsZK8v8cnrxE_19sweet_grass_service7factory5testss_37test_unknown_backend_specific_message0B7_
FNDA:1,_RNCNvNtNtCsZK8v8cnrxE_19sweet_grass_service7factory5testss_38test_build_postgres_config_missing_url0B7_
FNDA:1,_RNCNvNtNtCsZK8v8cnrxE_19sweet_grass_service7factory5testss_38test_build_sled_config_with_cache_size0B7_
FNDA:1,_RNCNvNtNtCsZK8v8cnrxE_19sweet_grass_service7factory5testss_42test_build_sled_config_with_flush_interval0B7_
FNDA:1,_RNCNvNtNtCsZK8v8cnrxE_19sweet_grass_service7factory5testss_43test_build_postgres_config_with_storage_url0B7_
FNDA:1,_RNCNvNtNtCsZK8v8cnrxE_19sweet_grass_service7factory5testss_44test_build_postgres_config_with_database_url0B7_
FNDA:1,_RNCNvNtNtCsZK8v8cnrxE_19sweet_grass_service7factory5testss_46test_build_sled_config_with_invalid_cache_size0B7_
FNDA:1,_RNCNvNtNtCsZK8v8cnrxE_19sweet_grass_service7factory5testss_47test_build_postgres_config_prefers_database_url0B7_
FNDA:1,_RNCNvNtNtCsZK8v8cnrxE_19sweet_grass_service7factory5testss_47test_build_postgres_config_with_max_connections0B7_
FNDA:1,_RNCNvNtNtCsZK8v8cnrxE_19sweet_grass_service7factory5testss_47test_build_postgres_config_with_min_connections0B7_
FNDA:1,_RNCNvNtNtCsZK8v8cnrxE_19sweet_grass_service7factory5testss_55test_build_postgres_config_with_invalid_max_connections0B7_
FNDA:5,_RNvMNtCsZK8v8cnrxE_19sweet_grass_service7factoryNtB2_17BraidStoreFactory17build_sled_config
FNDA:0,_RNvMNtCsZK8v8cnrxE_19sweet_grass_service7factoryNtB2_17BraidStoreFactory19create_sled_backend
FNDA:8,_RNvMNtCsZK8v8cnrxE_19sweet_grass_service7factoryNtB2_17BraidStoreFactory21build_postgres_config
FNDA:1,_RNvMNtCsZK8v8cnrxE_19sweet_grass_service7factoryNtB2_17BraidStoreFactory23create_postgres_backend
FNDA:9,_RNvMNtCsZK8v8cnrxE_19sweet_grass_service7factoryNtB2_17BraidStoreFactory8from_env
FNDA:1,_RNvNtNtCsZK8v8cnrxE_19sweet_grass_service7factory5testss_19test_memory_backend
FNDA:1,_RNvNtNtCsZK8v8cnrxE_19sweet_grass_service7factory5testss_20test_default_backend
FNDA:1,_RNvNtNtCsZK8v8cnrxE_19sweet_grass_service7factory5testss_20test_unknown_backend
FNDA:1,_RNvNtNtCsZK8v8cnrxE_19sweet_grass_service7factory5testss_28test_memory_backend_explicit
FNDA:1,_RNvNtNtCsZK8v8cnrxE_19sweet_grass_service7factory5testss_37test_unknown_backend_specific_message
FNDA:1,_RINvMNtCsZK8v8cnrxE_19sweet_grass_service7factoryNtB3_17BraidStoreFactory13parse_env_varNtNtCs6bBekJvxEMJ_5alloc6string6StringEB5_
FNDA:1,_RINvMNtCsZK8v8cnrxE_19sweet_grass_service7factoryNtB3_17BraidStoreFactory13parse_env_varbEB5_
FNDA:1,_RINvMNtCsZK8v8cnrxE_19sweet_grass_service7factoryNtB3_17BraidStoreFactory13parse_env_vardEB5_
FNDA:15,_RINvMNtCsZK8v8cnrxE_19sweet_grass_service7factoryNtB3_17BraidStoreFactory13parse_env_varmEB5_
FNDA:10,_RINvMNtCsZK8v8cnrxE_19sweet_grass_service7factoryNtB3_17BraidStoreFactory13parse_env_varyEB5_
FNDA:4,_RNCNCNvMNtCsZK8v8cnrxE_19sweet_grass_service7factoryNtB6_17BraidStoreFactory8from_env00B8_
FNDA:1,_RNCNvMNtCsZK8v8cnrxE_19sweet_grass_service7factoryNtB4_17BraidStoreFactory17build_sled_config0B6_
FNDA:3,_RNCNvMNtCsZK8v8cnrxE_19sweet_grass_service7factoryNtB4_17BraidStoreFactory21build_postgres_config0B6_
FNDA:2,_RNCNvMNtCsZK8v8cnrxE_19sweet_grass_service7factoryNtB4_17BraidStoreFactory21build_postgres_configs_0B6_
FNDA:1,_RNCNvMNtCsZK8v8cnrxE_19sweet_grass_service7factoryNtB4_17BraidStoreFactory23create_postgres_backend0B6_
FNDA:9,_RNCNvMNtCsZK8v8cnrxE_19sweet_grass_service7factoryNtB4_17BraidStoreFactory8from_env0B6_
FNF:39
FNH:38
DA:67,9
DA:68,9
DA:69,9
DA:70,9
DA:72,9
DA:73,9
DA:74,6
DA:75,6
DA:78,3
DA:80,2
DA:82,2
DA:83,2
DA:84,2
DA:86,9
DA:89,1
DA:92,1
DA:94,0
DA:95,0
DA:97,0
DA:98,0
DA:100,0
DA:101,0
DA:102,1
DA:105,8
DA:107,8
DA:108,8
DA:109,8
DA:110,2
DA:111,2
DA:112,2
DA:113,8
DA:115,6
DA:118,6
DA:119,4
DA:120,4
DA:122,6
DA:123,1
DA:124,5
DA:126,6
DA:127,8
DA:130,28
DA:131,28
DA:132,28
DA:135,0
DA:138,0
DA:139,0
DA:140,0
DA:141,0
DA:143,0
DA:144,0
DA:145,0
DA:150,5
DA:153,5
DA:154,5
DA:155,5
DA:158,5
DA:159,1
DA:160,4
DA:163,5
DA:164,5
DA:165,5
DA:167,5
DA:168,5
DA:179,1
DA:180,1
DA:181,1
DA:182,1
DA:183,1
DA:186,1
DA:187,1
DA:188,1
DA:189,1
DA:190,1
DA:193,1
DA:194,1
DA:195,1
DA:196,1
DA:197,1
DA:198,1
DA:199,1
DA:200,1
DA:205,1
DA:206,1
DA:207,1
DA:208,1
DA:209,1
DA:210,1
DA:211,1
DA:212,1
DA:213,1
DA:216,1
DA:217,1
DA:218,1
DA:219,1
DA:220,1
DA:221,1
DA:222,1
DA:223,1
DA:224,1
DA:225,1
DA:226,1
DA:227,1
DA:233,1
DA:234,1
DA:235,1
DA:236,1
DA:237,1
DA:238,1
DA:239,1
DA:240,1
DA:241,1
DA:242,1
DA:247,1
DA:248,1
DA:249,1
DA:250,1
DA:251,1
DA:252,1
DA:253,1
DA:254,1
DA:259,1
DA:260,1
DA:261,1
DA:262,1
DA:263,1
DA:264,1
DA:269,1
DA:270,1
DA:271,1
DA:272,1
DA:273,1
DA:274,1
DA:279,1
DA:280,1
DA:281,1
DA:282,1
DA:283,1
DA:284,1
DA:290,1
DA:291,1
DA:292,1
DA:293,1
DA:294,1
DA:295,1
DA:301,1
DA:302,1
DA:303,1
DA:304,1
DA:305,1
DA:306,1
DA:311,1
DA:312,1
DA:313,1
DA:314,1
DA:315,1
DA:316,1
DA:317,1
DA:324,1
DA:325,1
DA:326,1
DA:327,1
DA:328,1
DA:333,1
DA:334,1
DA:335,1
DA:336,1
DA:337,1
DA:342,1
DA:343,1
DA:344,1
DA:345,1
DA:346,1
DA:352,1
DA:353,1
DA:354,1
DA:355,1
DA:356,1
DA:361,1
DA:362,1
DA:363,1
DA:364,1
DA:365,1
DA:373,1
DA:374,1
DA:375,1
DA:376,1
DA:381,1
DA:382,1
DA:383,1
DA:384,1
DA:389,1
DA:390,1
DA:391,1
DA:392,1
DA:397,1
DA:398,1
DA:399,1
DA:400,1
DA:402,1
DA:403,1
DA:404,1
DA:406,1
DA:407,1
DA:408,1
BRF:0
BRH:0
LF:244
LH:228
end_of_record
SF:/home/strandgate/Development/ecoPrimals/phase2/sweetGrass/crates/sweet-grass-service/src/handlers/attribution.rs
FN:47,_RNvNtNtCsdjAd9q7fPo9_19sweet_grass_service8handlers11attribution15get_attribution
FN:109,_RNvNtNtCsdjAd9q7fPo9_19sweet_grass_service8handlers11attribution17calculate_rewards
FN:56,_RNCNCNvNtNtCsdjAd9q7fPo9_19sweet_grass_service8handlers11attribution15get_attribution00B9_
FN:65,_RNCNCNvNtNtCsdjAd9q7fPo9_19sweet_grass_service8handlers11attribution15get_attribution0s_0B9_
FN:119,_RNCNCNvNtNtCsdjAd9q7fPo9_19sweet_grass_service8handlers11attribution17calculate_rewards00B9_
FN:126,_RNCNCNvNtNtCsdjAd9q7fPo9_19sweet_grass_service8handlers11attribution17calculate_rewards0s_0B9_
FN:50,_RNCNvNtNtCsdjAd9q7fPo9_19sweet_grass_service8handlers11attribution15get_attribution0B7_
FN:113,_RNCNvNtNtCsdjAd9q7fPo9_19sweet_grass_service8handlers11attribution17calculate_rewards0B7_
FN:47,_RNvNtNtCsZK8v8cnrxE_19sweet_grass_service8handlers11attribution15get_attribution
FN:109,_RNvNtNtCsZK8v8cnrxE_19sweet_grass_service8handlers11attribution17calculate_rewards
FN:148,_RNCNvNtNtNtCsZK8v8cnrxE_19sweet_grass_service8handlers11attribution5tests23create_state_with_braid0B9_
FN:180,_RNCNvNtNtNtCsZK8v8cnrxE_19sweet_grass_service8handlers11attribution5testss_22test_calculate_rewards0B9_
FN:237,_RNCNvNtNtNtCsZK8v8cnrxE_19sweet_grass_service8handlers11attribution5testss_28test_contributor_info_fields0B9_
FN:172,_RNCNvNtNtNtCsZK8v8cnrxE_19sweet_grass_service8handlers11attribution5testss_30test_get_attribution_not_found0B9_
FN:158,_RNCNvNtNtNtCsZK8v8cnrxE_19sweet_grass_service8handlers11attribution5testss_39test_get_attribution_single_contributor0B9_
FN:194,_RNCNvNtNtNtCsZK8v8cnrxE_19sweet_grass_service8handlers11attribution5testss_41test_calculate_rewards_with_derived_braid0B9_
FN:56,_RNCNCNvNtNtCsZK8v8cnrxE_19sweet_grass_service8handlers11attribution15get_attribution00B9_
FN:65,_RNCNCNvNtNtCsZK8v8cnrxE_19sweet_grass_service8handlers11attribution15get_attribution0s_0B9_
FN:119,_RNCNCNvNtNtCsZK8v8cnrxE_19sweet_grass_service8handlers11attribution17calculate_rewards00B9_
FN:126,_RNCNCNvNtNtCsZK8v8cnrxE_19sweet_grass_service8handlers11attribution17calculate_rewards0s_0B9_
FN:50,_RNCNvNtNtCsZK8v8cnrxE_19sweet_grass_service8handlers11attribution15get_attribution0B7_
FN:113,_RNCNvNtNtCsZK8v8cnrxE_19sweet_grass_service8handlers11attribution17calculate_rewards0B7_
FN:144,_RNvNtNtNtCsZK8v8cnrxE_19sweet_grass_service8handlers11attribution5tests17create_test_state
FN:148,_RNvNtNtNtCsZK8v8cnrxE_19sweet_grass_service8handlers11attribution5tests23create_state_with_braid
FN:180,_RNvNtNtNtCsZK8v8cnrxE_19sweet_grass_service8handlers11attribution5testss_22test_calculate_rewards
FN:237,_RNvNtNtNtCsZK8v8cnrxE_19sweet_grass_service8handlers11attribution5testss_28test_contributor_info_fields
FN:172,_RNvNtNtNtCsZK8v8cnrxE_19sweet_grass_service8handlers11attribution5testss_30test_get_attribution_not_found
FN:158,_RNvNtNtNtCsZK8v8cnrxE_19sweet_grass_service8handlers11attribution5testss_39test_get_attribution_single_contributor
FN:194,_RNvNtNtNtCsZK8v8cnrxE_19sweet_grass_service8handlers11attribution5testss_41test_calculate_rewards_with_derived_braid
FNDA:0,_RNvNtNtCsdjAd9q7fPo9_19sweet_grass_service8handlers11attribution15get_attribution
FNDA:0,_RNvNtNtCsdjAd9q7fPo9_19sweet_grass_service8handlers11attribution17calculate_rewards
FNDA:0,_RNCNCNvNtNtCsdjAd9q7fPo9_19sweet_grass_service8handlers11attribution15get_attribution00B9_
FNDA:0,_RNCNCNvNtNtCsdjAd9q7fPo9_19sweet_grass_service8handlers11attribution15get_attribution0s_0B9_
FNDA:0,_RNCNCNvNtNtCsdjAd9q7fPo9_19sweet_grass_service8handlers11attribution17calculate_rewards00B9_
FNDA:0,_RNCNCNvNtNtCsdjAd9q7fPo9_19sweet_grass_service8handlers11attribution17calculate_rewards0s_0B9_
FNDA:0,_RNCNvNtNtCsdjAd9q7fPo9_19sweet_grass_service8handlers11attribution15get_attribution0B7_
FNDA:0,_RNCNvNtNtCsdjAd9q7fPo9_19sweet_grass_service8handlers11attribution17calculate_rewards0B7_
FNDA:3,_RNvNtNtCsZK8v8cnrxE_19sweet_grass_service8handlers11attribution15get_attribution
FNDA:2,_RNvNtNtCsZK8v8cnrxE_19sweet_grass_service8handlers11attribution17calculate_rewards
FNDA:3,_RNCNvNtNtNtCsZK8v8cnrxE_19sweet_grass_service8handlers11attribution5tests23create_state_with_braid0B9_
FNDA:1,_RNCNvNtNtNtCsZK8v8cnrxE_19sweet_grass_service8handlers11attribution5testss_22test_calculate_rewards0B9_
FNDA:1,_RNCNvNtNtNtCsZK8v8cnrxE_19sweet_grass_service8handlers11attribution5testss_28test_contributor_info_fields0B9_
FNDA:1,_RNCNvNtNtNtCsZK8v8cnrxE_19sweet_grass_service8handlers11attribution5testss_30test_get_attribution_not_found0B9_
FNDA:1,_RNCNvNtNtNtCsZK8v8cnrxE_19sweet_grass_service8handlers11attribution5testss_39test_get_attribution_single_contributor0B9_
FNDA:1,_RNCNvNtNtNtCsZK8v8cnrxE_19sweet_grass_service8handlers11attribution5testss_41test_calculate_rewards_with_derived_braid0B9_
FNDA:2,_RNCNCNvNtNtCsZK8v8cnrxE_19sweet_grass_service8handlers11attribution15get_attribution00B9_
FNDA:2,_RNCNCNvNtNtCsZK8v8cnrxE_19sweet_grass_service8handlers11attribution15get_attribution0s_0B9_
FNDA:2,_RNCNCNvNtNtCsZK8v8cnrxE_19sweet_grass_service8handlers11attribution17calculate_rewards00B9_
FNDA:2,_RNCNCNvNtNtCsZK8v8cnrxE_19sweet_grass_service8handlers11attribution17calculate_rewards0s_0B9_
FNDA:3,_RNCNvNtNtCsZK8v8cnrxE_19sweet_grass_service8handlers11attribution15get_attribution0B7_
FNDA:2,_RNCNvNtNtCsZK8v8cnrxE_19sweet_grass_service8handlers11attribution17calculate_rewards0B7_
FNDA:5,_RNvNtNtNtCsZK8v8cnrxE_19sweet_grass_service8handlers11attribution5tests17create_test_state
FNDA:3,_RNvNtNtNtCsZK8v8cnrxE_19sweet_grass_service8handlers11attribution5tests23create_state_with_braid
FNDA:1,_RNvNtNtNtCsZK8v8cnrxE_19sweet_grass_service8handlers11attribution5testss_22test_calculate_rewards
FNDA:1,_RNvNtNtNtCsZK8v8cnrxE_19sweet_grass_service8handlers11attribution5testss_28test_contributor_info_fields
FNDA:1,_RNvNtNtNtCsZK8v8cnrxE_19sweet_grass_service8handlers11attribution5testss_30test_get_attribution_not_found
FNDA:1,_RNvNtNtNtCsZK8v8cnrxE_19sweet_grass_service8handlers11attribution5testss_39test_get_attribution_single_contributor
FNDA:1,_RNvNtNtNtCsZK8v8cnrxE_19sweet_grass_service8handlers11attribution5testss_41test_calculate_rewards_with_derived_braid
FNF:21
FNH:21
DA:47,3
DA:48,3
DA:49,3
DA:50,3
DA:51,3
DA:53,2
DA:54,2
DA:55,2
DA:56,2
DA:57,2
DA:58,2
DA:59,2
DA:60,2
DA:61,2
DA:62,2
DA:63,2
DA:64,2
DA:65,2
DA:66,2
DA:67,2
DA:68,2
DA:69,2
DA:70,2
DA:71,2
DA:72,2
DA:73,3
DA:109,2
DA:110,2
DA:111,2
DA:112,2
DA:113,2
DA:114,2
DA:116,2
DA:117,2
DA:118,2
DA:119,2
DA:120,2
DA:121,2
DA:122,2
DA:123,2
DA:124,2
DA:125,2
DA:126,2
DA:127,2
DA:128,2
DA:129,2
DA:130,2
DA:131,2
DA:132,2
DA:133,2
DA:144,5
DA:145,5
DA:146,5
DA:148,3
DA:149,3
DA:150,3
DA:151,3
DA:152,3
DA:153,3
DA:154,3
DA:155,3
DA:158,1
DA:159,1
DA:160,1
DA:161,1
DA:162,1
DA:163,1
DA:164,1
DA:165,1
DA:166,1
DA:167,1
DA:168,1
DA:169,1
DA:172,1
DA:173,1
DA:174,1
DA:175,1
DA:176,1
DA:177,1
DA:180,1
DA:181,1
DA:182,1
DA:183,1
DA:184,1
DA:185,1
DA:186,1
DA:187,1
DA:188,1
DA:189,1
DA:190,1
DA:191,1
DA:194,1
DA:195,1
DA:196,1
DA:197,1
DA:198,1
DA:199,1
DA:200,1
DA:201,1
DA:202,1
DA:203,1
DA:204,1
DA:205,1
DA:206,1
DA:207,1
DA:208,1
DA:209,1
DA:210,1
DA:211,1
DA:212,1
DA:213,1
DA:214,1
DA:215,1
DA:216,1
DA:217,1
DA:218,1
DA:219,1
DA:220,1
DA:221,1
DA:222,1
DA:223,1
DA:224,1
DA:225,1
DA:226,1
DA:227,1
DA:228,1
DA:229,1
DA:230,1
DA:231,1
DA:232,1
DA:233,1
DA:234,1
DA:237,1
DA:238,1
DA:239,1
DA:240,1
DA:241,1
DA:242,1
DA:243,1
DA:244,1
DA:245,1
DA:246,1
DA:247,1
DA:248,1
DA:249,1
BRF:0
BRH:0
LF:220
LH:219
end_of_record
SF:/home/strandgate/Development/ecoPrimals/phase2/sweetGrass/crates/sweet-grass-service/src/handlers/braids.rs
FN:219,_RNvNtNtCsdjAd9q7fPo9_19sweet_grass_service8handlers6braids11list_braids
FN:138,_RNvNtNtCsdjAd9q7fPo9_19sweet_grass_service8handlers6braids12create_braid
FN:266,_RNvNtNtCsdjAd9q7fPo9_19sweet_grass_service8handlers6braids12delete_braid
FN:124,_RNvNtNtCsdjAd9q7fPo9_19sweet_grass_service8handlers6braids17get_braid_by_hash
FN:174,_RNvNtNtCsdjAd9q7fPo9_19sweet_grass_service8handlers6braids23create_provenance_braid
FN:108,_RNvNtNtCsdjAd9q7fPo9_19sweet_grass_service8handlers6braids9get_braid
FN:132,_RNCNCNvNtNtCsdjAd9q7fPo9_19sweet_grass_service8handlers6braids17get_braid_by_hash00B9_
FN:118,_RNCNCNvNtNtCsdjAd9q7fPo9_19sweet_grass_service8handlers6braids9get_braid00B9_
FN:222,_RNCNvNtNtCsdjAd9q7fPo9_19sweet_grass_service8handlers6braids11list_braids0B7_
FN:269,_RNCNvNtNtCsdjAd9q7fPo9_19sweet_grass_service8handlers6braids12delete_braid0B7_
FN:127,_RNCNvNtNtCsdjAd9q7fPo9_19sweet_grass_service8handlers6braids17get_braid_by_hash0B7_
FN:177,_RNCNvNtNtCsdjAd9q7fPo9_19sweet_grass_service8handlers6braids23create_provenance_braid0B7_
FN:111,_RNCNvNtNtCsdjAd9q7fPo9_19sweet_grass_service8handlers6braids9get_braid0B7_
FN:146,_RNCNCNvNtNtCsdjAd9q7fPo9_19sweet_grass_service8handlers6braids12create_braid00B9_
FN:141,_RNCNvNtNtCsdjAd9q7fPo9_19sweet_grass_service8handlers6braids12create_braid0B7_
FN:219,_RNvNtNtCsZK8v8cnrxE_19sweet_grass_service8handlers6braids11list_braids
FN:138,_RNvNtNtCsZK8v8cnrxE_19sweet_grass_service8handlers6braids12create_braid
FN:266,_RNvNtNtCsZK8v8cnrxE_19sweet_grass_service8handlers6braids12delete_braid
FN:124,_RNvNtNtCsZK8v8cnrxE_19sweet_grass_service8handlers6braids17get_braid_by_hash
FN:174,_RNvNtNtCsZK8v8cnrxE_19sweet_grass_service8handlers6braids23create_provenance_braid
FN:108,_RNvNtNtCsZK8v8cnrxE_19sweet_grass_service8handlers6braids9get_braid
FN:146,_RNCNCNvNtNtCsZK8v8cnrxE_19sweet_grass_service8handlers6braids12create_braid00B9_
FN:132,_RNCNCNvNtNtCsZK8v8cnrxE_19sweet_grass_service8handlers6braids17get_braid_by_hash00B9_
FN:118,_RNCNCNvNtNtCsZK8v8cnrxE_19sweet_grass_service8handlers6braids9get_braid00B9_
FN:222,_RNCNvNtNtCsZK8v8cnrxE_19sweet_grass_service8handlers6braids11list_braids0B7_
FN:141,_RNCNvNtNtCsZK8v8cnrxE_19sweet_grass_service8handlers6braids12create_braid0B7_
FN:269,_RNCNvNtNtCsZK8v8cnrxE_19sweet_grass_service8handlers6braids12delete_braid0B7_
FN:127,_RNCNvNtNtCsZK8v8cnrxE_19sweet_grass_service8handlers6braids17get_braid_by_hash0B7_
FN:177,_RNCNvNtNtCsZK8v8cnrxE_19sweet_grass_service8handlers6braids23create_provenance_braid0B7_
FN:111,_RNCNvNtNtCsZK8v8cnrxE_19sweet_grass_service8handlers6braids9get_braid0B7_
FN:285,_RNCNvNtNtNtCsZK8v8cnrxE_19sweet_grass_service8handlers6braids5tests17create_test_braid0B9_
FN:489,_RNCNvNtNtNtCsZK8v8cnrxE_19sweet_grass_service8handlers6braids5testss_17test_delete_braid0B9_
FN:310,_RNCNvNtNtNtCsZK8v8cnrxE_19sweet_grass_service8handlers6braids5testss_22test_get_braid_success0B9_
FN:395,_RNCNvNtNtNtCsZK8v8cnrxE_19sweet_grass_service8handlers6braids5testss_22test_list_braids_empty0B9_
FN:322,_RNCNvNtNtNtCsZK8v8cnrxE_19sweet_grass_service8handlers6braids5testss_24test_get_braid_not_found0B9_
FN:352,_RNCNvNtNtNtCsZK8v8cnrxE_19sweet_grass_service8handlers6braids5testss_25test_create_braid_success0B9_
FN:417,_RNCNvNtNtNtCsZK8v8cnrxE_19sweet_grass_service8handlers6braids5testss_26test_list_braids_with_data0B9_
FN:448,_RNCNvNtNtNtCsZK8v8cnrxE_19sweet_grass_service8handlers6braids5testss_29test_list_braids_with_filters0B9_
FN:331,_RNCNvNtNtNtCsZK8v8cnrxE_19sweet_grass_service8handlers6braids5testss_30test_get_braid_by_hash_success0B9_
FN:469,_RNCNvNtNtNtCsZK8v8cnrxE_19sweet_grass_service8handlers6braids5testss_31test_list_braids_order_variants0B9_
FN:378,_RNCNvNtNtNtCsZK8v8cnrxE_19sweet_grass_service8handlers6braids5testss_32test_create_braid_invalid_base640B9_
FN:343,_RNCNvNtNtNtCsZK8v8cnrxE_19sweet_grass_service8handlers6braids5testss_32test_get_braid_by_hash_not_found0B9_
FN:281,_RNvNtNtNtCsZK8v8cnrxE_19sweet_grass_service8handlers6braids5tests10make_state
FN:285,_RNvNtNtNtCsZK8v8cnrxE_19sweet_grass_service8handlers6braids5tests17create_test_braid
FN:489,_RNvNtNtNtCsZK8v8cnrxE_19sweet_grass_service8handlers6braids5testss_17test_delete_braid
FN:310,_RNvNtNtNtCsZK8v8cnrxE_19sweet_grass_service8handlers6braids5testss_22test_get_braid_success
FN:395,_RNvNtNtNtCsZK8v8cnrxE_19sweet_grass_service8handlers6braids5testss_22test_list_braids_empty
FN:322,_RNvNtNtNtCsZK8v8cnrxE_19sweet_grass_service8handlers6braids5testss_24test_get_braid_not_found
FN:295,_RNvNtNtNtCsZK8v8cnrxE_19sweet_grass_service8handlers6braids5testss_24test_list_query_defaults
FN:352,_RNvNtNtNtCsZK8v8cnrxE_19sweet_grass_service8handlers6braids5testss_25test_create_braid_success
FN:417,_RNvNtNtNtCsZK8v8cnrxE_19sweet_grass_service8handlers6braids5testss_26test_list_braids_with_data
FN:448,_RNvNtNtNtCsZK8v8cnrxE_19sweet_grass_service8handlers6braids5testss_29test_list_braids_with_filters
FN:331,_RNvNtNtNtCsZK8v8cnrxE_19sweet_grass_service8handlers6braids5testss_30test_get_braid_by_hash_success
FN:469,_RNvNtNtNtCsZK8v8cnrxE_19sweet_grass_service8handlers6braids5testss_31test_list_braids_order_variants
FN:378,_RNvNtNtNtCsZK8v8cnrxE_19sweet_grass_service8handlers6braids5testss_32test_create_braid_invalid_base64
FN:343,_RNvNtNtNtCsZK8v8cnrxE_19sweet_grass_service8handlers6braids5testss_32test_get_braid_by_hash_not_found
FNDA:0,_RNvNtNtCsdjAd9q7fPo9_19sweet_grass_service8handlers6braids11list_braids
FNDA:0,_RNvNtNtCsdjAd9q7fPo9_19sweet_grass_service8handlers6braids12create_braid
FNDA:0,_RNvNtNtCsdjAd9q7fPo9_19sweet_grass_service8handlers6braids12delete_braid
FNDA:0,_RNvNtNtCsdjAd9q7fPo9_19sweet_grass_service8handlers6braids17get_braid_by_hash
FNDA:0,_RNvNtNtCsdjAd9q7fPo9_19sweet_grass_service8handlers6braids23create_provenance_braid
FNDA:0,_RNvNtNtCsdjAd9q7fPo9_19sweet_grass_service8handlers6braids9get_braid
FNDA:0,_RNCNCNvNtNtCsdjAd9q7fPo9_19sweet_grass_service8handlers6braids17get_braid_by_hash00B9_
FNDA:0,_RNCNCNvNtNtCsdjAd9q7fPo9_19sweet_grass_service8handlers6braids9get_braid00B9_
FNDA:0,_RNCNvNtNtCsdjAd9q7fPo9_19sweet_grass_service8handlers6braids11list_braids0B7_
FNDA:0,_RNCNvNtNtCsdjAd9q7fPo9_19sweet_grass_service8handlers6braids12delete_braid0B7_
FNDA:0,_RNCNvNtNtCsdjAd9q7fPo9_19sweet_grass_service8handlers6braids17get_braid_by_hash0B7_
FNDA:0,_RNCNvNtNtCsdjAd9q7fPo9_19sweet_grass_service8handlers6braids23create_provenance_braid0B7_
FNDA:0,_RNCNvNtNtCsdjAd9q7fPo9_19sweet_grass_service8handlers6braids9get_braid0B7_
FNDA:0,_RNCNCNvNtNtCsdjAd9q7fPo9_19sweet_grass_service8handlers6braids12create_braid00B9_
FNDA:0,_RNCNvNtNtCsdjAd9q7fPo9_19sweet_grass_service8handlers6braids12create_braid0B7_
FNDA:7,_RNvNtNtCsZK8v8cnrxE_19sweet_grass_service8handlers6braids11list_braids
FNDA:2,_RNvNtNtCsZK8v8cnrxE_19sweet_grass_service8handlers6braids12create_braid
FNDA:1,_RNvNtNtCsZK8v8cnrxE_19sweet_grass_service8handlers6braids12delete_braid
FNDA:2,_RNvNtNtCsZK8v8cnrxE_19sweet_grass_service8handlers6braids17get_braid_by_hash
FNDA:0,_RNvNtNtCsZK8v8cnrxE_19sweet_grass_service8handlers6braids23create_provenance_braid
FNDA:2,_RNvNtNtCsZK8v8cnrxE_19sweet_grass_service8handlers6braids9get_braid
FNDA:1,_RNCNCNvNtNtCsZK8v8cnrxE_19sweet_grass_service8handlers6braids12create_braid00B9_
FNDA:1,_RNCNCNvNtNtCsZK8v8cnrxE_19sweet_grass_service8handlers6braids17get_braid_by_hash00B9_
FNDA:1,_RNCNCNvNtNtCsZK8v8cnrxE_19sweet_grass_service8handlers6braids9get_braid00B9_
FNDA:7,_RNCNvNtNtCsZK8v8cnrxE_19sweet_grass_service8handlers6braids11list_braids0B7_
FNDA:2,_RNCNvNtNtCsZK8v8cnrxE_19sweet_grass_service8handlers6braids12create_braid0B7_
FNDA:1,_RNCNvNtNtCsZK8v8cnrxE_19sweet_grass_service8handlers6braids12delete_braid0B7_
FNDA:2,_RNCNvNtNtCsZK8v8cnrxE_19sweet_grass_service8handlers6braids17get_braid_by_hash0B7_
FNDA:0,_RNCNvNtNtCsZK8v8cnrxE_19sweet_grass_service8handlers6braids23create_provenance_braid0B7_
FNDA:2,_RNCNvNtNtCsZK8v8cnrxE_19sweet_grass_service8handlers6braids9get_braid0B7_
FNDA:5,_RNCNvNtNtNtCsZK8v8cnrxE_19sweet_grass_service8handlers6braids5tests17create_test_braid0B9_
FNDA:1,_RNCNvNtNtNtCsZK8v8cnrxE_19sweet_grass_service8handlers6braids5testss_17test_delete_braid0B9_
FNDA:1,_RNCNvNtNtNtCsZK8v8cnrxE_19sweet_grass_service8handlers6braids5testss_22test_get_braid_success0B9_
FNDA:1,_RNCNvNtNtNtCsZK8v8cnrxE_19sweet_grass_service8handlers6braids5testss_22test_list_braids_empty0B9_
FNDA:1,_RNCNvNtNtNtCsZK8v8cnrxE_19sweet_grass_service8handlers6braids5testss_24test_get_braid_not_found0B9_
FNDA:1,_RNCNvNtNtNtCsZK8v8cnrxE_19sweet_grass_service8handlers6braids5testss_25test_create_braid_success0B9_
FNDA:1,_RNCNvNtNtNtCsZK8v8cnrxE_19sweet_grass_service8handlers6braids5testss_26test_list_braids_with_data0B9_
FNDA:1,_RNCNvNtNtNtCsZK8v8cnrxE_19sweet_grass_service8handlers6braids5testss_29test_list_braids_with_filters0B9_
FNDA:1,_RNCNvNtNtNtCsZK8v8cnrxE_19sweet_grass_service8handlers6braids5testss_30test_get_braid_by_hash_success0B9_
FNDA:1,_RNCNvNtNtNtCsZK8v8cnrxE_19sweet_grass_service8handlers6braids5testss_31test_list_braids_order_variants0B9_
FNDA:1,_RNCNvNtNtNtCsZK8v8cnrxE_19sweet_grass_service8handlers6braids5testss_32test_create_braid_invalid_base640B9_
FNDA:1,_RNCNvNtNtNtCsZK8v8cnrxE_19sweet_grass_service8handlers6braids5testss_32test_get_braid_by_hash_not_found0B9_
FNDA:11,_RNvNtNtNtCsZK8v8cnrxE_19sweet_grass_service8handlers6braids5tests10make_state
FNDA:5,_RNvNtNtNtCsZK8v8cnrxE_19sweet_grass_service8handlers6braids5tests17create_test_braid
FNDA:1,_RNvNtNtNtCsZK8v8cnrxE_19sweet_grass_service8handlers6braids5testss_17test_delete_braid
FNDA:1,_RNvNtNtNtCsZK8v8cnrxE_19sweet_grass_service8handlers6braids5testss_22test_get_braid_success
FNDA:1,_RNvNtNtNtCsZK8v8cnrxE_19sweet_grass_service8handlers6braids5testss_22test_list_braids_empty
FNDA:1,_RNvNtNtNtCsZK8v8cnrxE_19sweet_grass_service8handlers6braids5testss_24test_get_braid_not_found
FNDA:1,_RNvNtNtNtCsZK8v8cnrxE_19sweet_grass_service8handlers6braids5testss_24test_list_query_defaults
FNDA:1,_RNvNtNtNtCsZK8v8cnrxE_19sweet_grass_service8handlers6braids5testss_25test_create_braid_success
FNDA:1,_RNvNtNtNtCsZK8v8cnrxE_19sweet_grass_service8handlers6braids5testss_26test_list_braids_with_data
FNDA:1,_RNvNtNtNtCsZK8v8cnrxE_19sweet_grass_service8handlers6braids5testss_29test_list_braids_with_filters
FNDA:1,_RNvNtNtNtCsZK8v8cnrxE_19sweet_grass_service8handlers6braids5testss_30test_get_braid_by_hash_success
FNDA:1,_RNvNtNtNtCsZK8v8cnrxE_19sweet_grass_service8handlers6braids5testss_31test_list_braids_order_variants
FNDA:1,_RNvNtNtNtCsZK8v8cnrxE_19sweet_grass_service8handlers6braids5testss_32test_create_braid_invalid_base64
FNDA:1,_RNvNtNtNtCsZK8v8cnrxE_19sweet_grass_service8handlers6braids5testss_32test_get_braid_by_hash_not_found
FNF:41
FNH:39
DA:108,2
DA:109,2
DA:110,2
DA:111,2
DA:112,2
DA:114,2
DA:115,2
DA:116,2
DA:117,2
DA:118,2
DA:120,1
DA:121,2
DA:124,2
DA:125,2
DA:126,2
DA:127,2
DA:128,2
DA:129,2
DA:130,2
DA:131,2
DA:132,2
DA:134,1
DA:135,2
DA:138,2
DA:139,2
DA:140,2
DA:141,2
DA:144,2
DA:145,2
DA:146,2
DA:149,1
DA:150,1
DA:151,1
DA:152,1
DA:153,1
DA:154,1
DA:157,1
DA:158,1
DA:159,1
DA:162,1
DA:164,1
DA:165,1
DA:166,1
DA:167,1
DA:168,1
DA:169,1
DA:170,1
DA:171,2
DA:174,0
DA:175,0
DA:176,0
DA:177,0
DA:178,0
DA:179,0
DA:180,0
DA:181,0
DA:182,0
DA:183,0
DA:184,0
DA:185,0
DA:186,0
DA:187,0
DA:188,0
DA:189,0
DA:190,0
DA:191,0
DA:192,0
DA:195,0
DA:196,0
DA:197,0
DA:198,0
DA:199,0
DA:200,0
DA:203,0
DA:204,0
DA:205,0
DA:206,0
DA:207,0
DA:209,0
DA:210,0
DA:211,0
DA:212,0
DA:213,0
DA:214,0
DA:215,0
DA:216,0
DA:219,7
DA:220,7
DA:221,7
DA:222,7
DA:223,7
DA:224,7
DA:226,7
DA:227,0
DA:228,7
DA:230,7
DA:231,1
DA:232,6
DA:234,7
DA:235,1
DA:236,6
DA:238,7
DA:239,0
DA:240,7
DA:243,7
DA:244,0
DA:245,7
DA:248,7
DA:249,5
DA:250,3
DA:251,2
DA:252,3
DA:256,7
DA:258,7
DA:259,7
DA:260,7
DA:261,7
DA:262,7
DA:263,7
DA:266,1
DA:267,1
DA:268,1
DA:269,1
DA:270,1
DA:271,1
DA:272,1
DA:273,1
DA:281,11
DA:282,11
DA:283,11
DA:285,5
DA:286,5
DA:287,5
DA:288,5
DA:289,5
DA:290,5
DA:291,5
DA:292,5
DA:295,1
DA:296,1
DA:297,1
DA:298,1
DA:299,1
DA:300,1
DA:301,1
DA:302,1
DA:303,1
DA:304,1
DA:305,1
DA:306,1
DA:307,1
DA:310,1
DA:311,1
DA:312,1
DA:313,1
DA:314,1
DA:315,1
DA:316,1
DA:317,1
DA:318,1
DA:319,1
DA:322,1
DA:323,1
DA:324,1
DA:325,1
DA:326,1
DA:327,1
DA:328,1
DA:331,1
DA:332,1
DA:333,1
DA:334,1
DA:335,1
DA:336,1
DA:337,1
DA:338,1
DA:339,1
DA:340,1
DA:343,1
DA:344,1
DA:345,1
DA:346,1
DA:347,1
DA:348,1
DA:349,1
DA:352,1
DA:353,1
DA:354,1
DA:355,1
DA:356,1
DA:357,1
DA:358,1
DA:359,1
DA:360,1
DA:361,1
DA:362,1
DA:363,1
DA:364,1
DA:365,1
DA:366,1
DA:367,1
DA:368,1
DA:369,1
DA:370,1
DA:371,1
DA:372,1
DA:373,1
DA:374,1
DA:375,1
DA:378,1
DA:379,1
DA:380,1
DA:381,1
DA:382,1
DA:383,1
DA:384,1
DA:385,1
DA:386,1
DA:387,1
DA:388,1
DA:389,1
DA:390,1
DA:391,1
DA:392,1
DA:395,1
DA:396,1
DA:397,1
DA:398,1
DA:399,1
DA:400,1
DA:401,1
DA:402,1
DA:403,1
DA:404,1
DA:405,1
DA:406,1
DA:407,1
DA:408,1
DA:409,1
DA:410,1
DA:411,1
DA:412,1
DA:413,1
DA:414,1
DA:417,1
DA:418,1
DA:419,1
DA:420,1
DA:421,6
DA:422,5
DA:423,5
DA:424,5
DA:425,5
DA:426,5
DA:427,1
DA:428,1
DA:429,1
DA:430,1
DA:431,1
DA:432,1
DA:433,1
DA:434,1
DA:435,1
DA:436,1
DA:437,1
DA:438,1
DA:439,1
DA:440,1
DA:441,1
DA:442,1
DA:443,1
DA:444,1
DA:445,1
DA:448,1
DA:449,1
DA:450,1
DA:451,1
DA:452,1
DA:453,1
DA:454,1
DA:455,1
DA:456,1
DA:457,1
DA:458,1
DA:459,1
DA:460,1
DA:461,1
DA:462,1
DA:463,1
DA:464,1
DA:465,1
DA:466,1
DA:469,1
DA:470,1
DA:471,1
DA:472,1
DA:473,4
DA:474,4
DA:475,4
DA:476,4
DA:477,4
DA:478,4
DA:479,4
DA:480,4
DA:481,4
DA:482,1
DA:483,4
DA:484,4
DA:485,1
DA:486,1
DA:489,1
DA:490,1
DA:491,1
DA:492,1
DA:493,1
DA:494,1
DA:495,1
DA:496,1
DA:497,1
DA:498,1
DA:499,1
DA:500,1
DA:501,1
BRF:0
BRH:0
LF:461
LH:419
end_of_record
SF:/home/strandgate/Development/ecoPrimals/phase2/sweetGrass/crates/sweet-grass-service/src/handlers/compression.rs
FN:97,_RNvNtNtCsdjAd9q7fPo9_19sweet_grass_service8handlers11compression16compress_session
FN:176,_RNvNtNtCsdjAd9q7fPo9_19sweet_grass_service8handlers11compression19parse_activity_type
FN:87,_RNvXNtNtCsdjAd9q7fPo9_19sweet_grass_service8handlers11compressionNtB2_12BraidSummaryINtNtCs9sjCchOt1K7_4core7convert4FromRNtNtCsa0ZJ84hKss5_16sweet_grass_core5braid5BraidE4from
FN:100,_RNCNvNtNtCsdjAd9q7fPo9_19sweet_grass_service8handlers11compression16compress_session0B7_
FN:100,_RNCNvNtNtCsZK8v8cnrxE_19sweet_grass_service8handlers11compression16compress_session0B7_
FN:201,_RNvNtNtNtCsZK8v8cnrxE_19sweet_grass_service8handlers11compression5tests10make_state
FN:206,_RNvNtNtNtCsZK8v8cnrxE_19sweet_grass_service8handlers11compression5testss_24test_parse_activity_type
FN:304,_RNvNtNtNtCsZK8v8cnrxE_19sweet_grass_service8handlers11compression5testss_26test_compress_session_noop
FN:262,_RNvNtNtNtCsZK8v8cnrxE_19sweet_grass_service8handlers11compression5testss_29test_braid_summary_from_braid
FN:325,_RNvNtNtNtCsZK8v8cnrxE_19sweet_grass_service8handlers11compression5testss_30test_compress_session_rollback
FN:354,_RNvNtNtNtCsZK8v8cnrxE_19sweet_grass_service8handlers11compression5testss_34test_compress_session_with_parents
FN:392,_RNvNtNtNtCsZK8v8cnrxE_19sweet_grass_service8handlers11compression5testss_37test_compress_session_unknown_outcome
FN:222,_RNvNtNtNtCsZK8v8cnrxE_19sweet_grass_service8handlers11compression5testss_37test_parse_activity_type_all_variants
FN:274,_RNvNtNtNtCsZK8v8cnrxE_19sweet_grass_service8handlers11compression5testss_43test_compress_session_with_committed_vertex
FN:304,_RNCNvNtNtNtCsZK8v8cnrxE_19sweet_grass_service8handlers11compression5testss_26test_compress_session_noop0B9_
FN:325,_RNCNvNtNtNtCsZK8v8cnrxE_19sweet_grass_service8handlers11compression5testss_30test_compress_session_rollback0B9_
FN:354,_RNCNvNtNtNtCsZK8v8cnrxE_19sweet_grass_service8handlers11compression5testss_34test_compress_session_with_parents0B9_
FN:392,_RNCNvNtNtNtCsZK8v8cnrxE_19sweet_grass_service8handlers11compression5testss_37test_compress_session_unknown_outcome0B9_
FN:274,_RNCNvNtNtNtCsZK8v8cnrxE_19sweet_grass_service8handlers11compression5testss_43test_compress_session_with_committed_vertex0B9_
FN:97,_RNvNtNtCsZK8v8cnrxE_19sweet_grass_service8handlers11compression16compress_session
FN:176,_RNvNtNtCsZK8v8cnrxE_19sweet_grass_service8handlers11compression19parse_activity_type
FN:87,_RNvXNtNtCsZK8v8cnrxE_19sweet_grass_service8handlers11compressionNtB2_12BraidSummaryINtNtCs9sjCchOt1K7_4core7convert4FromRNtNtCsa0ZJ84hKss5_16sweet_grass_core5braid5BraidE4from
FNDA:0,_RNvNtNtCsdjAd9q7fPo9_19sweet_grass_service8handlers11compression16compress_session
FNDA:0,_RNvNtNtCsdjAd9q7fPo9_19sweet_grass_service8handlers11compression19parse_activity_type
FNDA:0,_RNvXNtNtCsdjAd9q7fPo9_19sweet_grass_service8handlers11compressionNtB2_12BraidSummaryINtNtCs9sjCchOt1K7_4core7convert4FromRNtNtCsa0ZJ84hKss5_16sweet_grass_core5braid5BraidE4from
FNDA:0,_RNCNvNtNtCsdjAd9q7fPo9_19sweet_grass_service8handlers11compression16compress_session0B7_
FNDA:5,_RNCNvNtNtCsZK8v8cnrxE_19sweet_grass_service8handlers11compression16compress_session0B7_
FNDA:5,_RNvNtNtNtCsZK8v8cnrxE_19sweet_grass_service8handlers11compression5tests10make_state
FNDA:1,_RNvNtNtNtCsZK8v8cnrxE_19sweet_grass_service8handlers11compression5testss_24test_parse_activity_type
FNDA:1,_RNvNtNtNtCsZK8v8cnrxE_19sweet_grass_service8handlers11compression5testss_26test_compress_session_noop
FNDA:1,_RNvNtNtNtCsZK8v8cnrxE_19sweet_grass_service8handlers11compression5testss_29test_braid_summary_from_braid
FNDA:1,_RNvNtNtNtCsZK8v8cnrxE_19sweet_grass_service8handlers11compression5testss_30test_compress_session_rollback
FNDA:1,_RNvNtNtNtCsZK8v8cnrxE_19sweet_grass_service8handlers11compression5testss_34test_compress_session_with_parents
FNDA:1,_RNvNtNtNtCsZK8v8cnrxE_19sweet_grass_service8handlers11compression5testss_37test_compress_session_unknown_outcome
FNDA:1,_RNvNtNtNtCsZK8v8cnrxE_19sweet_grass_service8handlers11compression5testss_37test_parse_activity_type_all_variants
FNDA:1,_RNvNtNtNtCsZK8v8cnrxE_19sweet_grass_service8handlers11compression5testss_43test_compress_session_with_committed_vertex
FNDA:1,_RNCNvNtNtNtCsZK8v8cnrxE_19sweet_grass_service8handlers11compression5testss_26test_compress_session_noop0B9_
FNDA:1,_RNCNvNtNtNtCsZK8v8cnrxE_19sweet_grass_service8handlers11compression5testss_30test_compress_session_rollback0B9_
FNDA:1,_RNCNvNtNtNtCsZK8v8cnrxE_19sweet_grass_service8handlers11compression5testss_34test_compress_session_with_parents0B9_
FNDA:1,_RNCNvNtNtNtCsZK8v8cnrxE_19sweet_grass_service8handlers11compression5testss_37test_compress_session_unknown_outcome0B9_
FNDA:1,_RNCNvNtNtNtCsZK8v8cnrxE_19sweet_grass_service8handlers11compression5testss_43test_compress_session_with_committed_vertex0B9_
FNDA:5,_RNvNtNtCsZK8v8cnrxE_19sweet_grass_service8handlers11compression16compress_session
FNDA:15,_RNvNtNtCsZK8v8cnrxE_19sweet_grass_service8handlers11compression19parse_activity_type
FNDA:3,_RNvXNtNtCsZK8v8cnrxE_19sweet_grass_service8handlers11compressionNtB2_12BraidSummaryINtNtCs9sjCchOt1K7_4core7convert4FromRNtNtCsa0ZJ84hKss5_16sweet_grass_core5braid5BraidE4from
FNF:18
FNH:18
DA:87,3
DA:88,3
DA:89,3
DA:90,3
DA:91,3
DA:92,3
DA:93,3
DA:97,5
DA:98,5
DA:99,5
DA:100,5
DA:101,5
DA:102,5
DA:103,5
DA:104,5
DA:105,5
DA:106,5
DA:107,5
DA:108,3
DA:109,2
DA:110,1
DA:114,9
DA:115,4
DA:116,4
DA:118,5
DA:119,1
DA:120,1
DA:122,4
DA:123,3
DA:124,3
DA:125,3
DA:127,4
DA:128,3
DA:129,3
DA:131,4
DA:135,5
DA:138,5
DA:139,2
DA:143,5
DA:144,3
DA:145,3
DA:146,3
DA:147,3
DA:148,3
DA:149,3
DA:150,2
DA:151,2
DA:152,2
DA:153,2
DA:154,2
DA:155,2
DA:157,0
DA:158,0
DA:159,0
DA:160,0
DA:161,0
DA:162,0
DA:163,0
DA:164,0
DA:167,5
DA:168,3
DA:170,2
DA:173,5
DA:174,5
DA:176,15
DA:177,15
DA:178,15
DA:179,11
DA:180,9
DA:181,8
DA:182,7
DA:183,6
DA:184,5
DA:185,4
DA:186,3
DA:187,2
DA:188,1
DA:189,1
DA:190,1
DA:192,15
DA:201,5
DA:202,5
DA:203,5
DA:206,1
DA:207,1
DA:208,1
DA:211,1
DA:212,1
DA:215,1
DA:216,1
DA:219,1
DA:222,1
DA:223,1
DA:224,1
DA:227,1
DA:228,1
DA:231,1
DA:232,1
DA:235,1
DA:236,1
DA:239,1
DA:240,1
DA:243,1
DA:244,1
DA:247,1
DA:248,1
DA:251,1
DA:252,1
DA:255,1
DA:256,1
DA:259,1
DA:262,1
DA:263,1
DA:264,1
DA:265,1
DA:266,1
DA:267,1
DA:268,1
DA:269,1
DA:270,1
DA:271,1
DA:274,1
DA:275,1
DA:276,1
DA:277,1
DA:278,1
DA:279,1
DA:280,1
DA:281,1
DA:282,1
DA:283,1
DA:284,1
DA:285,1
DA:286,1
DA:287,1
DA:288,1
DA:289,1
DA:290,1
DA:291,1
DA:292,1
DA:293,1
DA:294,1
DA:295,1
DA:296,1
DA:297,1
DA:298,1
DA:299,1
DA:300,1
DA:301,1
DA:304,1
DA:305,1
DA:306,1
DA:307,1
DA:308,1
DA:309,1
DA:310,1
DA:311,1
DA:312,1
DA:313,1
DA:314,1
DA:315,1
DA:316,1
DA:317,1
DA:318,1
DA:319,1
DA:320,1
DA:321,1
DA:322,1
DA:325,1
DA:326,1
DA:327,1
DA:328,1
DA:329,1
DA:330,1
DA:331,1
DA:332,1
DA:333,1
DA:334,1
DA:335,1
DA:336,1
DA:337,1
DA:338,1
DA:339,1
DA:340,1
DA:341,1
DA:342,1
DA:343,1
DA:344,1
DA:345,1
DA:346,1
DA:347,1
DA:348,1
DA:349,1
DA:350,1
DA:351,1
DA:354,1
DA:355,1
DA:356,1
DA:357,1
DA:358,1
DA:359,1
DA:360,1
DA:361,1
DA:362,1
DA:363,1
DA:364,1
DA:365,1
DA:366,1
DA:367,1
DA:368,1
DA:369,1
DA:370,1
DA:371,1
DA:372,1
DA:373,1
DA:374,1
DA:375,1
DA:376,1
DA:377,1
DA:378,1
DA:379,1
DA:380,1
DA:381,1
DA:382,1
DA:383,1
DA:384,1
DA:385,1
DA:386,1
DA:387,1
DA:388,1
DA:389,1
DA:392,1
DA:393,1
DA:394,1
DA:395,1
DA:396,1
DA:397,1
DA:398,1
DA:399,1
DA:400,1
DA:401,1
DA:402,1
DA:403,1
DA:404,1
DA:405,1
DA:406,1
DA:407,1
BRF:0
BRH:0
LF:357
LH:349
end_of_record
SF:/home/strandgate/Development/ecoPrimals/phase2/sweetGrass/crates/sweet-grass-service/src/handlers/health.rs
FN:122,_RNvMNtNtCsdjAd9q7fPo9_19sweet_grass_service8handlers6healthNtB2_12PrimalStatus7unknown
FN:100,_RNvMNtNtCsdjAd9q7fPo9_19sweet_grass_service8handlers6healthNtB2_12PrimalStatus9connected
FN:199,_RNvNtNtCsdjAd9q7fPo9_19sweet_grass_service8handlers6health15health_detailed
FN:133,_RNvNtNtCsdjAd9q7fPo9_19sweet_grass_service8handlers6health16determine_status
FN:238,_RNvNtNtCsdjAd9q7fPo9_19sweet_grass_service8handlers6health18check_integrations
FN:255,_RNvNtNtCsdjAd9q7fPo9_19sweet_grass_service8handlers6health20check_capability_env
FN:163,_RNvNtNtCsdjAd9q7fPo9_19sweet_grass_service8handlers6health6health
FN:268,_RNvNtNtCsdjAd9q7fPo9_19sweet_grass_service8handlers6health8liveness
FN:273,_RNvNtNtCsdjAd9q7fPo9_19sweet_grass_service8handlers6health9readiness
FN:206,_RNCNCNvNtNtCsdjAd9q7fPo9_19sweet_grass_service8handlers6health15health_detailed00B9_
FN:218,_RNCNCNvNtNtCsdjAd9q7fPo9_19sweet_grass_service8handlers6health15health_detailed0s_0B9_
FN:149,_RNCNCNvNtNtCsdjAd9q7fPo9_19sweet_grass_service8handlers6health16determine_status00B9_
FN:257,_RNCNCNvNtNtCsdjAd9q7fPo9_19sweet_grass_service8handlers6health20check_capability_env00B9_
FN:258,_RNCNCNvNtNtCsdjAd9q7fPo9_19sweet_grass_service8handlers6health20check_capability_env0s_0B9_
FN:168,_RNCNCNvNtNtCsdjAd9q7fPo9_19sweet_grass_service8handlers6health6health00B9_
FN:180,_RNCNCNvNtNtCsdjAd9q7fPo9_19sweet_grass_service8handlers6health6health0s_0B9_
FN:201,_RNCNvNtNtCsdjAd9q7fPo9_19sweet_grass_service8handlers6health15health_detailed0B7_
FN:147,_RNCNvNtNtCsdjAd9q7fPo9_19sweet_grass_service8handlers6health16determine_status0B7_
FN:238,_RNCNvNtNtCsdjAd9q7fPo9_19sweet_grass_service8handlers6health18check_integrations0B7_
FN:255,_RNCNvNtNtCsdjAd9q7fPo9_19sweet_grass_service8handlers6health20check_capability_env0B7_
FN:163,_RNCNvNtNtCsdjAd9q7fPo9_19sweet_grass_service8handlers6health6health0B7_
FN:268,_RNCNvNtNtCsdjAd9q7fPo9_19sweet_grass_service8handlers6health8liveness0B7_
FN:273,_RNCNvNtNtCsdjAd9q7fPo9_19sweet_grass_service8handlers6health9readiness0B7_
FN:111,_RINvMNtNtCsdjAd9q7fPo9_19sweet_grass_service8handlers6healthNtB3_12PrimalStatus12disconnectedpEB7_
FN:111,_RINvMNtNtCsZK8v8cnrxE_19sweet_grass_service8handlers6healthNtB3_12PrimalStatus12disconnectedReEB7_
FN:206,_RNCNCNvNtNtCsZK8v8cnrxE_19sweet_grass_service8handlers6health15health_detailed00B9_
FN:218,_RNCNCNvNtNtCsZK8v8cnrxE_19sweet_grass_service8handlers6health15health_detailed0s_0B9_
FN:149,_RNCNCNvNtNtCsZK8v8cnrxE_19sweet_grass_service8handlers6health16determine_status00B9_
FN:257,_RNCNCNvNtNtCsZK8v8cnrxE_19sweet_grass_service8handlers6health20check_capability_env00B9_
FN:258,_RNCNCNvNtNtCsZK8v8cnrxE_19sweet_grass_service8handlers6health20check_capability_env0s_0B9_
FN:168,_RNCNCNvNtNtCsZK8v8cnrxE_19sweet_grass_service8handlers6health6health00B9_
FN:180,_RNCNCNvNtNtCsZK8v8cnrxE_19sweet_grass_service8handlers6health6health0s_0B9_
FN:201,_RNCNvNtNtCsZK8v8cnrxE_19sweet_grass_service8handlers6health15health_detailed0B7_
FN:147,_RNCNvNtNtCsZK8v8cnrxE_19sweet_grass_service8handlers6health16determine_status0B7_
FN:238,_RNCNvNtNtCsZK8v8cnrxE_19sweet_grass_service8handlers6health18check_integrations0B7_
FN:255,_RNCNvNtNtCsZK8v8cnrxE_19sweet_grass_service8handlers6health20check_capability_env0B7_
FN:163,_RNCNvNtNtCsZK8v8cnrxE_19sweet_grass_service8handlers6health6health0B7_
FN:268,_RNCNvNtNtCsZK8v8cnrxE_19sweet_grass_service8handlers6health8liveness0B7_
FN:273,_RNCNvNtNtCsZK8v8cnrxE_19sweet_grass_service8handlers6health9readiness0B7_
FN:287,_RNvNtNtNtCsZK8v8cnrxE_19sweet_grass_service8handlers6health5tests17create_test_state
FN:304,_RNvNtNtNtCsZK8v8cnrxE_19sweet_grass_service8handlers6health5testss_19test_health_version
FN:356,_RNvNtNtNtCsZK8v8cnrxE_19sweet_grass_service8handlers6health5testss_20test_health_detailed
FN:292,_RNvNtNtNtCsZK8v8cnrxE_19sweet_grass_service8handlers6health5testss_22test_health_returns_ok
FN:337,_RNvNtNtNtCsZK8v8cnrxE_19sweet_grass_service8handlers6health5testss_23test_health_with_braids
FN:324,_RNvNtNtNtCsZK8v8cnrxE_19sweet_grass_service8handlers6health5testss_23test_liveness_always_ok
FN:314,_RNvNtNtNtCsZK8v8cnrxE_19sweet_grass_service8handlers6health5testss_24test_health_service_name
FN:388,_RNvNtNtNtCsZK8v8cnrxE_19sweet_grass_service8handlers6health5testss_26test_primal_status_unknown
FN:367,_RNvNtNtNtCsZK8v8cnrxE_19sweet_grass_service8handlers6health5testss_28test_primal_status_connected
FN:330,_RNvNtNtNtCsZK8v8cnrxE_19sweet_grass_service8handlers6health5testss_28test_readiness_ok_with_store
FN:396,_RNvNtNtNtCsZK8v8cnrxE_19sweet_grass_service8handlers6health5testss_29test_determine_status_healthy
FN:408,_RNvNtNtNtCsZK8v8cnrxE_19sweet_grass_service8handlers6health5testss_30test_determine_status_degraded
FN:402,_RNvNtNtNtCsZK8v8cnrxE_19sweet_grass_service8handlers6health5testss_31test_determine_status_unhealthy
FN:381,_RNvNtNtNtCsZK8v8cnrxE_19sweet_grass_service8handlers6health5testss_31test_primal_status_disconnected
FN:122,_RNvMNtNtCsZK8v8cnrxE_19sweet_grass_service8handlers6healthNtB2_12PrimalStatus7unknown
FN:100,_RNvMNtNtCsZK8v8cnrxE_19sweet_grass_service8handlers6healthNtB2_12PrimalStatus9connected
FN:199,_RNvNtNtCsZK8v8cnrxE_19sweet_grass_service8handlers6health15health_detailed
FN:133,_RNvNtNtCsZK8v8cnrxE_19sweet_grass_service8handlers6health16determine_status
FN:238,_RNvNtNtCsZK8v8cnrxE_19sweet_grass_service8handlers6health18check_integrations
FN:255,_RNvNtNtCsZK8v8cnrxE_19sweet_grass_service8handlers6health20check_capability_env
FN:163,_RNvNtNtCsZK8v8cnrxE_19sweet_grass_service8handlers6health6health
FN:268,_RNvNtNtCsZK8v8cnrxE_19sweet_grass_service8handlers6health8liveness
FN:273,_RNvNtNtCsZK8v8cnrxE_19sweet_grass_service8handlers6health9readiness
FN:304,_RNCNvNtNtNtCsZK8v8cnrxE_19sweet_grass_service8handlers6health5testss_19test_health_version0B9_
FN:356,_RNCNvNtNtNtCsZK8v8cnrxE_19sweet_grass_service8handlers6health5testss_20test_health_detailed0B9_
FN:292,_RNCNvNtNtNtCsZK8v8cnrxE_19sweet_grass_service8handlers6health5testss_22test_health_returns_ok0B9_
FN:337,_RNCNvNtNtNtCsZK8v8cnrxE_19sweet_grass_service8handlers6health5testss_23test_health_with_braids0B9_
FN:324,_RNCNvNtNtNtCsZK8v8cnrxE_19sweet_grass_service8handlers6health5testss_23test_liveness_always_ok0B9_
FN:314,_RNCNvNtNtNtCsZK8v8cnrxE_19sweet_grass_service8handlers6health5testss_24test_health_service_name0B9_
FN:371,_RNCNvNtNtNtCsZK8v8cnrxE_19sweet_grass_service8handlers6health5testss_28test_primal_status_connected0B9_
FN:330,_RNCNvNtNtNtCsZK8v8cnrxE_19sweet_grass_service8handlers6health5testss_28test_readiness_ok_with_store0B9_
FNDA:0,_RNvMNtNtCsdjAd9q7fPo9_19sweet_grass_service8handlers6healthNtB2_12PrimalStatus7unknown
FNDA:0,_RNvMNtNtCsdjAd9q7fPo9_19sweet_grass_service8handlers6healthNtB2_12PrimalStatus9connected
FNDA:0,_RNvNtNtCsdjAd9q7fPo9_19sweet_grass_service8handlers6health15health_detailed
FNDA:0,_RNvNtNtCsdjAd9q7fPo9_19sweet_grass_service8handlers6health16determine_status
FNDA:0,_RNvNtNtCsdjAd9q7fPo9_19sweet_grass_service8handlers6health18check_integrations
FNDA:0,_RNvNtNtCsdjAd9q7fPo9_19sweet_grass_service8handlers6health20check_capability_env
FNDA:0,_RNvNtNtCsdjAd9q7fPo9_19sweet_grass_service8handlers6health6health
FNDA:0,_RNvNtNtCsdjAd9q7fPo9_19sweet_grass_service8handlers6health8liveness
FNDA:0,_RNvNtNtCsdjAd9q7fPo9_19sweet_grass_service8handlers6health9readiness
FNDA:0,_RNCNCNvNtNtCsdjAd9q7fPo9_19sweet_grass_service8handlers6health15health_detailed00B9_
FNDA:0,_RNCNCNvNtNtCsdjAd9q7fPo9_19sweet_grass_service8handlers6health15health_detailed0s_0B9_
FNDA:0,_RNCNCNvNtNtCsdjAd9q7fPo9_19sweet_grass_service8handlers6health16determine_status00B9_
FNDA:0,_RNCNCNvNtNtCsdjAd9q7fPo9_19sweet_grass_service8handlers6health20check_capability_env00B9_
FNDA:0,_RNCNCNvNtNtCsdjAd9q7fPo9_19sweet_grass_service8handlers6health20check_capability_env0s_0B9_
FNDA:0,_RNCNCNvNtNtCsdjAd9q7fPo9_19sweet_grass_service8handlers6health6health00B9_
FNDA:0,_RNCNCNvNtNtCsdjAd9q7fPo9_19sweet_grass_service8handlers6health6health0s_0B9_
FNDA:0,_RNCNvNtNtCsdjAd9q7fPo9_19sweet_grass_service8handlers6health15health_detailed0B7_
FNDA:0,_RNCNvNtNtCsdjAd9q7fPo9_19sweet_grass_service8handlers6health16determine_status0B7_
FNDA:0,_RNCNvNtNtCsdjAd9q7fPo9_19sweet_grass_service8handlers6health18check_integrations0B7_
FNDA:0,_RNCNvNtNtCsdjAd9q7fPo9_19sweet_grass_service8handlers6health20check_capability_env0B7_
FNDA:0,_RNCNvNtNtCsdjAd9q7fPo9_19sweet_grass_service8handlers6health6health0B7_
FNDA:0,_RNCNvNtNtCsdjAd9q7fPo9_19sweet_grass_service8handlers6health8liveness0B7_
FNDA:0,_RNCNvNtNtCsdjAd9q7fPo9_19sweet_grass_service8handlers6health9readiness0B7_
FNDA:0,_RINvMNtNtCsdjAd9q7fPo9_19sweet_grass_service8handlers6healthNtB3_12PrimalStatus12disconnectedpEB7_
FNDA:2,_RINvMNtNtCsZK8v8cnrxE_19sweet_grass_service8handlers6healthNtB3_12PrimalStatus12disconnectedReEB7_
FNDA:0,_RNCNCNvNtNtCsZK8v8cnrxE_19sweet_grass_service8handlers6health15health_detailed00B9_
FNDA:0,_RNCNCNvNtNtCsZK8v8cnrxE_19sweet_grass_service8handlers6health15health_detailed0s_0B9_
FNDA:2,_RNCNCNvNtNtCsZK8v8cnrxE_19sweet_grass_service8handlers6health16determine_status00B9_
FNDA:1,_RNCNCNvNtNtCsZK8v8cnrxE_19sweet_grass_service8handlers6health20check_capability_env00B9_
FNDA:0,_RNCNCNvNtNtCsZK8v8cnrxE_19sweet_grass_service8handlers6health20check_capability_env0s_0B9_
FNDA:0,_RNCNCNvNtNtCsZK8v8cnrxE_19sweet_grass_service8handlers6health6health00B9_
FNDA:0,_RNCNCNvNtNtCsZK8v8cnrxE_19sweet_grass_service8handlers6health6health0s_0B9_
FNDA:1,_RNCNvNtNtCsZK8v8cnrxE_19sweet_grass_service8handlers6health15health_detailed0B7_
FNDA:6,_RNCNvNtNtCsZK8v8cnrxE_19sweet_grass_service8handlers6health16determine_status0B7_
FNDA:1,_RNCNvNtNtCsZK8v8cnrxE_19sweet_grass_service8handlers6health18check_integrations0B7_
FNDA:1,_RNCNvNtNtCsZK8v8cnrxE_19sweet_grass_service8handlers6health20check_capability_env0B7_
FNDA:4,_RNCNvNtNtCsZK8v8cnrxE_19sweet_grass_service8handlers6health6health0B7_
FNDA:1,_RNCNvNtNtCsZK8v8cnrxE_19sweet_grass_service8handlers6health8liveness0B7_
FNDA:1,_RNCNvNtNtCsZK8v8cnrxE_19sweet_grass_service8handlers6health9readiness0B7_
FNDA:6,_RNvNtNtNtCsZK8v8cnrxE_19sweet_grass_service8handlers6health5tests17create_test_state
FNDA:1,_RNvNtNtNtCsZK8v8cnrxE_19sweet_grass_service8handlers6health5testss_19test_health_version
FNDA:1,_RNvNtNtNtCsZK8v8cnrxE_19sweet_grass_service8handlers6health5testss_20test_health_detailed
FNDA:1,_RNvNtNtNtCsZK8v8cnrxE_19sweet_grass_service8handlers6health5testss_22test_health_returns_ok
FNDA:1,_RNvNtNtNtCsZK8v8cnrxE_19sweet_grass_service8handlers6health5testss_23test_health_with_braids
FNDA:1,_RNvNtNtNtCsZK8v8cnrxE_19sweet_grass_service8handlers6health5testss_23test_liveness_always_ok
FNDA:1,_RNvNtNtNtCsZK8v8cnrxE_19sweet_grass_service8handlers6health5testss_24test_health_service_name
FNDA:1,_RNvNtNtNtCsZK8v8cnrxE_19sweet_grass_service8handlers6health5testss_26test_primal_status_unknown
FNDA:1,_RNvNtNtNtCsZK8v8cnrxE_19sweet_grass_service8handlers6health5testss_28test_primal_status_connected
FNDA:1,_RNvNtNtNtCsZK8v8cnrxE_19sweet_grass_service8handlers6health5testss_28test_readiness_ok_with_store
FNDA:1,_RNvNtNtNtCsZK8v8cnrxE_19sweet_grass_service8handlers6health5testss_29test_determine_status_healthy
FNDA:1,_RNvNtNtNtCsZK8v8cnrxE_19sweet_grass_service8handlers6health5testss_30test_determine_status_degraded
FNDA:1,_RNvNtNtNtCsZK8v8cnrxE_19sweet_grass_service8handlers6health5testss_31test_determine_status_unhealthy
FNDA:1,_RNvNtNtNtCsZK8v8cnrxE_19sweet_grass_service8handlers6health5testss_31test_primal_status_disconnected
FNDA:2,_RNvMNtNtCsZK8v8cnrxE_19sweet_grass_service8handlers6healthNtB2_12PrimalStatus7unknown
FNDA:1,_RNvMNtNtCsZK8v8cnrxE_19sweet_grass_service8handlers6healthNtB2_12PrimalStatus9connected
FNDA:1,_RNvNtNtCsZK8v8cnrxE_19sweet_grass_service8handlers6health15health_detailed
FNDA:8,_RNvNtNtCsZK8v8cnrxE_19sweet_grass_service8handlers6health16determine_status
FNDA:1,_RNvNtNtCsZK8v8cnrxE_19sweet_grass_service8handlers6health18check_integrations
FNDA:1,_RNvNtNtCsZK8v8cnrxE_19sweet_grass_service8handlers6health20check_capability_env
FNDA:4,_RNvNtNtCsZK8v8cnrxE_19sweet_grass_service8handlers6health6health
FNDA:1,_RNvNtNtCsZK8v8cnrxE_19sweet_grass_service8handlers6health8liveness
FNDA:1,_RNvNtNtCsZK8v8cnrxE_19sweet_grass_service8handlers6health9readiness
FNDA:1,_RNCNvNtNtNtCsZK8v8cnrxE_19sweet_grass_service8handlers6health5testss_19test_health_version0B9_
FNDA:1,_RNCNvNtNtNtCsZK8v8cnrxE_19sweet_grass_service8handlers6health5testss_20test_health_detailed0B9_
FNDA:1,_RNCNvNtNtNtCsZK8v8cnrxE_19sweet_grass_service8handlers6health5testss_22test_health_returns_ok0B9_
FNDA:1,_RNCNvNtNtNtCsZK8v8cnrxE_19sweet_grass_service8handlers6health5testss_23test_health_with_braids0B9_
FNDA:1,_RNCNvNtNtNtCsZK8v8cnrxE_19sweet_grass_service8handlers6health5testss_23test_liveness_always_ok0B9_
FNDA:1,_RNCNvNtNtNtCsZK8v8cnrxE_19sweet_grass_service8handlers6health5testss_24test_health_service_name0B9_
FNDA:1,_RNCNvNtNtNtCsZK8v8cnrxE_19sweet_grass_service8handlers6health5testss_28test_primal_status_connected0B9_
FNDA:1,_RNCNvNtNtNtCsZK8v8cnrxE_19sweet_grass_service8handlers6health5testss_28test_readiness_ok_with_store0B9_
FNF:46
FNH:41
DA:100,1
DA:101,1
DA:102,1
DA:103,1
DA:104,1
DA:105,1
DA:106,1
DA:107,1
DA:111,2
DA:112,2
DA:113,2
DA:114,2
DA:115,2
DA:116,2
DA:117,2
DA:118,2
DA:122,2
DA:123,2
DA:124,2
DA:125,2
DA:126,2
DA:127,2
DA:128,2
DA:129,2
DA:133,8
DA:134,8
DA:135,1
DA:136,7
DA:139,7
DA:140,2
DA:141,2
DA:142,2
DA:143,2
DA:144,2
DA:145,2
DA:146,2
DA:147,6
DA:148,6
DA:149,6
DA:150,6
DA:151,2
DA:152,2
DA:153,1
DA:154,1
DA:155,5
DA:157,6
DA:158,8
DA:163,4
DA:164,4
DA:165,4
DA:166,4
DA:167,4
DA:168,4
DA:170,4
DA:171,4
DA:172,4
DA:173,4
DA:174,4
DA:175,4
DA:176,4
DA:177,4
DA:178,4
DA:179,4
DA:180,4
DA:181,4
DA:182,4
DA:183,4
DA:184,4
DA:185,4
DA:186,4
DA:187,4
DA:188,4
DA:189,4
DA:190,4
DA:191,4
DA:192,4
DA:193,4
DA:194,4
DA:199,1
DA:200,1
DA:201,1
DA:202,1
DA:203,1
DA:204,1
DA:205,1
DA:206,1
DA:208,1
DA:209,1
DA:210,1
DA:211,1
DA:212,1
DA:213,1
DA:214,1
DA:215,1
DA:216,1
DA:217,1
DA:218,1
DA:221,1
DA:222,1
DA:223,1
DA:224,1
DA:225,1
DA:226,1
DA:227,1
DA:228,1
DA:229,1
DA:230,1
DA:231,1
DA:232,1
DA:238,1
DA:240,1
DA:242,1
DA:243,1
DA:244,1
DA:245,1
DA:246,1
DA:247,1
DA:248,1
DA:249,1
DA:255,1
DA:256,1
DA:257,1
DA:258,1
DA:259,0
DA:260,0
DA:261,0
DA:262,0
DA:263,1
DA:264,1
DA:265,1
DA:268,1
DA:269,1
DA:270,1
DA:273,1
DA:274,1
DA:275,1
DA:276,0
DA:278,1
DA:287,6
DA:288,6
DA:289,6
DA:292,1
DA:293,1
DA:294,1
DA:295,1
DA:296,1
DA:297,1
DA:298,1
DA:299,1
DA:300,1
DA:301,1
DA:304,1
DA:305,1
DA:306,1
DA:307,1
DA:308,1
DA:309,1
DA:310,1
DA:311,1
DA:314,1
DA:315,1
DA:316,1
DA:317,1
DA:318,1
DA:319,1
DA:320,1
DA:321,1
DA:324,1
DA:325,1
DA:326,1
DA:327,1
DA:330,1
DA:331,1
DA:332,1
DA:333,1
DA:334,1
DA:337,1
DA:338,1
DA:339,1
DA:340,1
DA:341,1
DA:342,1
DA:343,1
DA:344,1
DA:345,1
DA:346,1
DA:347,1
DA:348,1
DA:349,1
DA:350,1
DA:351,1
DA:352,1
DA:353,1
DA:356,1
DA:357,1
DA:358,1
DA:359,1
DA:360,1
DA:361,1
DA:362,1
DA:363,1
DA:364,1
DA:367,1
DA:368,1
DA:369,1
DA:370,1
DA:371,1
DA:372,1
DA:373,1
DA:374,1
DA:375,1
DA:376,1
DA:377,1
DA:378,1
DA:381,1
DA:382,1
DA:383,1
DA:384,1
DA:385,1
DA:388,1
DA:389,1
DA:390,1
DA:391,1
DA:392,1
DA:393,1
DA:396,1
DA:397,1
DA:398,1
DA:399,1
DA:402,1
DA:403,1
DA:404,1
DA:405,1
DA:408,1
DA:409,1
DA:410,1
DA:411,1
DA:412,1
DA:413,1
DA:414,1
DA:415,1
DA:416,1
DA:417,1
DA:418,1
BRF:0
BRH:0
LF:306
LH:295
end_of_record
SF:/home/strandgate/Development/ecoPrimals/phase2/sweetGrass/crates/sweet-grass-service/src/handlers/provenance.rs
FN:44,_RNvNtNtCsdjAd9q7fPo9_19sweet_grass_service8handlers10provenance13export_prov_o
FN:21,_RNvNtNtCsdjAd9q7fPo9_19sweet_grass_service8handlers10provenance14get_provenance
FN:48,_RNCNvNtNtCsdjAd9q7fPo9_19sweet_grass_service8handlers10provenance13export_prov_o0B7_
FN:25,_RNCNvNtNtCsdjAd9q7fPo9_19sweet_grass_service8handlers10provenance14get_provenance0B7_
FN:67,_RNvNtNtNtCsZK8v8cnrxE_19sweet_grass_service8handlers10provenance5tests17create_test_state
FN:71,_RNvNtNtNtCsZK8v8cnrxE_19sweet_grass_service8handlers10provenance5tests23create_state_with_braid
FN:112,_RNvNtNtNtCsZK8v8cnrxE_19sweet_grass_service8handlers10provenance5testss_18test_export_prov_o
FN:81,_RNvNtNtNtCsZK8v8cnrxE_19sweet_grass_service8handlers10provenance5testss_19test_get_provenance
FN:129,_RNvNtNtNtCsZK8v8cnrxE_19sweet_grass_service8handlers10provenance5testss_25test_provenance_not_found
FN:98,_RNvNtNtNtCsZK8v8cnrxE_19sweet_grass_service8handlers10provenance5testss_30test_get_provenance_with_depth
FN:144,_RNvNtNtNtCsZK8v8cnrxE_19sweet_grass_service8handlers10provenance5testss_37test_provenance_with_derivation_chain
FN:44,_RNvNtNtCsZK8v8cnrxE_19sweet_grass_service8handlers10provenance13export_prov_o
FN:21,_RNvNtNtCsZK8v8cnrxE_19sweet_grass_service8handlers10provenance14get_provenance
FN:71,_RNCNvNtNtNtCsZK8v8cnrxE_19sweet_grass_service8handlers10provenance5tests23create_state_with_braid0B9_
FN:112,_RNCNvNtNtNtCsZK8v8cnrxE_19sweet_grass_service8handlers10provenance5testss_18test_export_prov_o0B9_
FN:81,_RNCNvNtNtNtCsZK8v8cnrxE_19sweet_grass_service8handlers10provenance5testss_19test_get_provenance0B9_
FN:129,_RNCNvNtNtNtCsZK8v8cnrxE_19sweet_grass_service8handlers10provenance5testss_25test_provenance_not_found0B9_
FN:98,_RNCNvNtNtNtCsZK8v8cnrxE_19sweet_grass_service8handlers10provenance5testss_30test_get_provenance_with_depth0B9_
FN:144,_RNCNvNtNtNtCsZK8v8cnrxE_19sweet_grass_service8handlers10provenance5testss_37test_provenance_with_derivation_chain0B9_
FN:48,_RNCNvNtNtCsZK8v8cnrxE_19sweet_grass_service8handlers10provenance13export_prov_o0B7_
FN:25,_RNCNvNtNtCsZK8v8cnrxE_19sweet_grass_service8handlers10provenance14get_provenance0B7_
FNDA:0,_RNvNtNtCsdjAd9q7fPo9_19sweet_grass_service8handlers10provenance13export_prov_o
FNDA:0,_RNvNtNtCsdjAd9q7fPo9_19sweet_grass_service8handlers10provenance14get_provenance
FNDA:0,_RNCNvNtNtCsdjAd9q7fPo9_19sweet_grass_service8handlers10provenance13export_prov_o0B7_
FNDA:0,_RNCNvNtNtCsdjAd9q7fPo9_19sweet_grass_service8handlers10provenance14get_provenance0B7_
FNDA:5,_RNvNtNtNtCsZK8v8cnrxE_19sweet_grass_service8handlers10provenance5tests17create_test_state
FNDA:3,_RNvNtNtNtCsZK8v8cnrxE_19sweet_grass_service8handlers10provenance5tests23create_state_with_braid
FNDA:1,_RNvNtNtNtCsZK8v8cnrxE_19sweet_grass_service8handlers10provenance5testss_18test_export_prov_o
FNDA:1,_RNvNtNtNtCsZK8v8cnrxE_19sweet_grass_service8handlers10provenance5testss_19test_get_provenance
FNDA:1,_RNvNtNtNtCsZK8v8cnrxE_19sweet_grass_service8handlers10provenance5testss_25test_provenance_not_found
FNDA:1,_RNvNtNtNtCsZK8v8cnrxE_19sweet_grass_service8handlers10provenance5testss_30test_get_provenance_with_depth
FNDA:1,_RNvNtNtNtCsZK8v8cnrxE_19sweet_grass_service8handlers10provenance5testss_37test_provenance_with_derivation_chain
FNDA:1,_RNvNtNtCsZK8v8cnrxE_19sweet_grass_service8handlers10provenance13export_prov_o
FNDA:4,_RNvNtNtCsZK8v8cnrxE_19sweet_grass_service8handlers10provenance14get_provenance
FNDA:3,_RNCNvNtNtNtCsZK8v8cnrxE_19sweet_grass_service8handlers10provenance5tests23create_state_with_braid0B9_
FNDA:1,_RNCNvNtNtNtCsZK8v8cnrxE_19sweet_grass_service8handlers10provenance5testss_18test_export_prov_o0B9_
FNDA:1,_RNCNvNtNtNtCsZK8v8cnrxE_19sweet_grass_service8handlers10provenance5testss_19test_get_provenance0B9_
FNDA:1,_RNCNvNtNtNtCsZK8v8cnrxE_19sweet_grass_service8handlers10provenance5testss_25test_provenance_not_found0B9_
FNDA:1,_RNCNvNtNtNtCsZK8v8cnrxE_19sweet_grass_service8handlers10provenance5testss_30test_get_provenance_with_depth0B9_
FNDA:1,_RNCNvNtNtNtCsZK8v8cnrxE_19sweet_grass_service8handlers10provenance5testss_37test_provenance_with_derivation_chain0B9_
FNDA:1,_RNCNvNtNtCsZK8v8cnrxE_19sweet_grass_service8handlers10provenance13export_prov_o0B7_
FNDA:4,_RNCNvNtNtCsZK8v8cnrxE_19sweet_grass_service8handlers10provenance14get_provenance0B7_
FNF:17
FNH:17
DA:21,4
DA:22,4
DA:23,4
DA:24,4
DA:25,4
DA:26,4
DA:27,4
DA:28,4
DA:29,4
DA:30,4
DA:32,4
DA:33,4
DA:44,1
DA:45,1
DA:46,1
DA:47,1
DA:48,1
DA:49,1
DA:50,1
DA:51,1
DA:52,1
DA:53,1
DA:55,1
DA:56,1
DA:67,5
DA:68,5
DA:69,5
DA:71,3
DA:72,3
DA:73,3
DA:74,3
DA:75,3
DA:76,3
DA:77,3
DA:78,3
DA:81,1
DA:82,1
DA:83,1
DA:84,1
DA:85,1
DA:86,1
DA:87,1
DA:88,1
DA:89,1
DA:90,1
DA:91,1
DA:92,1
DA:93,1
DA:94,1
DA:95,1
DA:98,1
DA:99,1
DA:100,1
DA:101,1
DA:102,1
DA:103,1
DA:104,1
DA:105,1
DA:106,1
DA:107,1
DA:108,1
DA:109,1
DA:112,1
DA:113,1
DA:114,1
DA:115,1
DA:116,1
DA:117,1
DA:118,1
DA:119,1
DA:120,1
DA:121,1
DA:122,1
DA:123,1
DA:124,1
DA:125,1
DA:126,1
DA:129,1
DA:130,1
DA:131,1
DA:132,1
DA:133,1
DA:134,1
DA:135,1
DA:136,1
DA:137,1
DA:138,1
DA:139,1
DA:140,1
DA:141,1
DA:144,1
DA:145,1
DA:146,1
DA:147,1
DA:148,1
DA:149,1
DA:150,1
DA:151,1
DA:152,1
DA:153,1
DA:154,1
DA:155,1
DA:156,1
DA:157,1
DA:158,1
DA:159,1
DA:160,1
DA:161,1
DA:162,1
DA:163,1
DA:164,1
DA:165,1
DA:166,1
DA:167,1
DA:168,1
DA:169,1
DA:170,1
DA:171,1
DA:172,1
DA:173,1
DA:174,1
DA:175,1
DA:176,1
DA:177,1
BRF:0
BRH:0
LF:197
LH:197
end_of_record
SF:/home/strandgate/Development/ecoPrimals/phase2/sweetGrass/crates/sweet-grass-service/src/router.rs
FN:13,_RNvNtCsdjAd9q7fPo9_19sweet_grass_service6router13create_router
FN:87,_RNvNtNtCsZK8v8cnrxE_19sweet_grass_service6router5testss_20test_router_creation
FN:94,_RNvNtNtCsZK8v8cnrxE_19sweet_grass_service6router5testss_31test_production_router_creation
FN:13,_RNvNtCsZK8v8cnrxE_19sweet_grass_service6router13create_router
FN:52,_RNvNtCsZK8v8cnrxE_19sweet_grass_service6router18create_test_router
FNDA:0,_RNvNtCsdjAd9q7fPo9_19sweet_grass_service6router13create_router
FNDA:1,_RNvNtNtCsZK8v8cnrxE_19sweet_grass_service6router5testss_20test_router_creation
FNDA:1,_RNvNtNtCsZK8v8cnrxE_19sweet_grass_service6router5testss_31test_production_router_creation
FNDA:1,_RNvNtCsZK8v8cnrxE_19sweet_grass_service6router13create_router
FNDA:1,_RNvNtCsZK8v8cnrxE_19sweet_grass_service6router18create_test_router
FNF:4
FNH:4
DA:13,1
DA:14,1
DA:15,1
DA:16,1
DA:17,1
DA:18,1
DA:19,1
DA:20,1
DA:21,1
DA:22,1
DA:23,1
DA:24,1
DA:25,1
DA:26,1
DA:27,1
DA:28,1
DA:29,1
DA:30,1
DA:31,1
DA:32,1
DA:33,1
DA:34,1
DA:35,1
DA:36,1
DA:37,1
DA:38,1
DA:39,1
DA:40,1
DA:41,1
DA:42,1
DA:43,1
DA:44,1
DA:45,1
DA:46,1
DA:47,1
DA:48,1
DA:52,1
DA:53,1
DA:54,1
DA:55,1
DA:56,1
DA:57,1
DA:58,1
DA:59,1
DA:60,1
DA:61,1
DA:62,1
DA:63,1
DA:64,1
DA:65,1
DA:66,1
DA:67,1
DA:68,1
DA:69,1
DA:70,1
DA:71,1
DA:72,1
DA:73,1
DA:74,1
DA:75,1
DA:76,1
DA:77,1
DA:78,1
DA:87,1
DA:88,1
DA:89,1
DA:90,1
DA:91,1
DA:94,1
DA:95,1
DA:96,1
DA:97,1
DA:98,1
BRF:0
BRH:0
LF:73
LH:73
end_of_record
SF:/home/strandgate/Development/ecoPrimals/phase2/sweetGrass/crates/sweet-grass-service/src/rpc.rs
FN:154,_RINvMsj_NtCsdjAd9q7fPo9_19sweet_grass_service3rpcNtB6_19SweetGrassRpcClient3newpEB8_
FN:154,_RNCNvMsl_NtCsdjAd9q7fPo9_19sweet_grass_service3rpcINtB7_19SweetGrassRpcClientpE12create_braid0B9_
FN:154,_RNCNvMsl_NtCsdjAd9q7fPo9_19sweet_grass_service3rpcINtB7_19SweetGrassRpcClientpE12delete_braid0B9_
FN:154,_RNCNvMsl_NtCsdjAd9q7fPo9_19sweet_grass_service3rpcINtB7_19SweetGrassRpcClientpE12export_provo0B9_
FN:154,_RNCNvMsl_NtCsdjAd9q7fPo9_19sweet_grass_service3rpcINtB7_19SweetGrassRpcClientpE12health_check0B9_
FN:154,_RNCNvMsl_NtCsdjAd9q7fPo9_19sweet_grass_service3rpcINtB7_19SweetGrassRpcClientpE12query_braids0B9_
FN:154,_RNCNvMsl_NtCsdjAd9q7fPo9_19sweet_grass_service3rpcINtB7_19SweetGrassRpcClientpE15braids_by_agent0B9_
FN:154,_RNCNvMsl_NtCsdjAd9q7fPo9_19sweet_grass_service3rpcINtB7_19SweetGrassRpcClientpE16compress_session0B9_
FN:154,_RNCNvMsl_NtCsdjAd9q7fPo9_19sweet_grass_service3rpcINtB7_19SweetGrassRpcClientpE16provenance_graph0B9_
FN:154,_RNCNvMsl_NtCsdjAd9q7fPo9_19sweet_grass_service3rpcINtB7_19SweetGrassRpcClientpE17attribution_chain0B9_
FN:154,_RNCNvMsl_NtCsdjAd9q7fPo9_19sweet_grass_service3rpcINtB7_19SweetGrassRpcClientpE17calculate_rewards0B9_
FN:154,_RNCNvMsl_NtCsdjAd9q7fPo9_19sweet_grass_service3rpcINtB7_19SweetGrassRpcClientpE17create_meta_braid0B9_
FN:154,_RNCNvMsl_NtCsdjAd9q7fPo9_19sweet_grass_service3rpcINtB7_19SweetGrassRpcClientpE17get_braid_by_hash0B9_
FN:154,_RNCNvMsl_NtCsdjAd9q7fPo9_19sweet_grass_service3rpcINtB7_19SweetGrassRpcClientpE19agent_contributions0B9_
FN:154,_RNCNvMsl_NtCsdjAd9q7fPo9_19sweet_grass_service3rpcINtB7_19SweetGrassRpcClientpE6status0B9_
FN:154,_RNCNvMsl_NtCsdjAd9q7fPo9_19sweet_grass_service3rpcINtB7_19SweetGrassRpcClientpE9get_braid0B9_
FN:154,_RNvXININtCsdjAd9q7fPo9_19sweet_grass_service3rpcsk_0pEINtB5_19SweetGrassRpcClientpEINtNtCs9sjCchOt1K7_4core7convert4FrompE4fromB7_
FN:154,_RNvYpNtNtCsdjAd9q7fPo9_19sweet_grass_service3rpc13SweetGrassRpc5serveB7_
FN:154,_RINvMsj_NtCsZK8v8cnrxE_19sweet_grass_service3rpcNtB6_19SweetGrassRpcClient3newpEB8_
FN:154,_RNCNvMsl_NtCsZK8v8cnrxE_19sweet_grass_service3rpcINtB7_19SweetGrassRpcClientpE12create_braid0B9_
FN:154,_RNCNvMsl_NtCsZK8v8cnrxE_19sweet_grass_service3rpcINtB7_19SweetGrassRpcClientpE12delete_braid0B9_
FN:154,_RNCNvMsl_NtCsZK8v8cnrxE_19sweet_grass_service3rpcINtB7_19SweetGrassRpcClientpE12export_provo0B9_
FN:154,_RNCNvMsl_NtCsZK8v8cnrxE_19sweet_grass_service3rpcINtB7_19SweetGrassRpcClientpE12health_check0B9_
FN:154,_RNCNvMsl_NtCsZK8v8cnrxE_19sweet_grass_service3rpcINtB7_19SweetGrassRpcClientpE12query_braids0B9_
FN:154,_RNCNvMsl_NtCsZK8v8cnrxE_19sweet_grass_service3rpcINtB7_19SweetGrassRpcClientpE15braids_by_agent0B9_
FN:154,_RNCNvMsl_NtCsZK8v8cnrxE_19sweet_grass_service3rpcINtB7_19SweetGrassRpcClientpE16compress_session0B9_
FN:154,_RNCNvMsl_NtCsZK8v8cnrxE_19sweet_grass_service3rpcINtB7_19SweetGrassRpcClientpE16provenance_graph0B9_
FN:154,_RNCNvMsl_NtCsZK8v8cnrxE_19sweet_grass_service3rpcINtB7_19SweetGrassRpcClientpE17attribution_chain0B9_
FN:154,_RNCNvMsl_NtCsZK8v8cnrxE_19sweet_grass_service3rpcINtB7_19SweetGrassRpcClientpE17calculate_rewards0B9_
FN:154,_RNCNvMsl_NtCsZK8v8cnrxE_19sweet_grass_service3rpcINtB7_19SweetGrassRpcClientpE17create_meta_braid0B9_
FN:154,_RNCNvMsl_NtCsZK8v8cnrxE_19sweet_grass_service3rpcINtB7_19SweetGrassRpcClientpE17get_braid_by_hash0B9_
FN:154,_RNCNvMsl_NtCsZK8v8cnrxE_19sweet_grass_service3rpcINtB7_19SweetGrassRpcClientpE19agent_contributions0B9_
FN:154,_RNCNvMsl_NtCsZK8v8cnrxE_19sweet_grass_service3rpcINtB7_19SweetGrassRpcClientpE6status0B9_
FN:154,_RNCNvMsl_NtCsZK8v8cnrxE_19sweet_grass_service3rpcINtB7_19SweetGrassRpcClientpE9get_braid0B9_
FN:154,_RNvXININtCsZK8v8cnrxE_19sweet_grass_service3rpcsk_0pEINtB5_19SweetGrassRpcClientpEINtNtCs9sjCchOt1K7_4core7convert4FrompE4fromB7_
FN:154,_RNvYpNtNtCsZK8v8cnrxE_19sweet_grass_service3rpc13SweetGrassRpc5serveB7_
FN:236,_RNvNtNtCsZK8v8cnrxE_19sweet_grass_service3rpc5testss_22test_rpc_error_display
FN:257,_RNvNtNtCsZK8v8cnrxE_19sweet_grass_service3rpc5testss_25test_rpc_error_predicates
FN:266,_RNvNtNtCsZK8v8cnrxE_19sweet_grass_service3rpc5testss_28test_rpc_error_serialization
FN:294,_RNvNtNtCsZK8v8cnrxE_19sweet_grass_service3rpc5testss_29test_time_range_serialization
FN:307,_RNvNtNtCsZK8v8cnrxE_19sweet_grass_service3rpc5testss_31test_reward_share_serialization
FN:345,_RNvNtNtCsZK8v8cnrxE_19sweet_grass_service3rpc5testss_32test_health_status_serialization
FN:360,_RNvNtNtCsZK8v8cnrxE_19sweet_grass_service3rpc5testss_33test_service_status_serialization
FN:376,_RNvNtNtCsZK8v8cnrxE_19sweet_grass_service3rpc5testss_35test_json_ld_document_serialization
FN:324,_RNvNtNtCsZK8v8cnrxE_19sweet_grass_service3rpc5testss_38test_agent_contributions_serialization
FN:274,_RNvNtNtCsZK8v8cnrxE_19sweet_grass_service3rpc5testss_39test_create_braid_request_serialization
FN:138,_RNvMNtCsZK8v8cnrxE_19sweet_grass_service3rpcNtB2_8RpcError12is_not_found
FN:144,_RNvMNtCsZK8v8cnrxE_19sweet_grass_service3rpcNtB2_8RpcError13is_validation
FNDA:0,_RINvMsj_NtCsdjAd9q7fPo9_19sweet_grass_service3rpcNtB6_19SweetGrassRpcClient3newpEB8_
FNDA:0,_RNCNvMsl_NtCsdjAd9q7fPo9_19sweet_grass_service3rpcINtB7_19SweetGrassRpcClientpE12create_braid0B9_
FNDA:0,_RNCNvMsl_NtCsdjAd9q7fPo9_19sweet_grass_service3rpcINtB7_19SweetGrassRpcClientpE12delete_braid0B9_
FNDA:0,_RNCNvMsl_NtCsdjAd9q7fPo9_19sweet_grass_service3rpcINtB7_19SweetGrassRpcClientpE12export_provo0B9_
FNDA:0,_RNCNvMsl_NtCsdjAd9q7fPo9_19sweet_grass_service3rpcINtB7_19SweetGrassRpcClientpE12health_check0B9_
FNDA:0,_RNCNvMsl_NtCsdjAd9q7fPo9_19sweet_grass_service3rpcINtB7_19SweetGrassRpcClientpE12query_braids0B9_
FNDA:0,_RNCNvMsl_NtCsdjAd9q7fPo9_19sweet_grass_service3rpcINtB7_19SweetGrassRpcClientpE15braids_by_agent0B9_
FNDA:0,_RNCNvMsl_NtCsdjAd9q7fPo9_19sweet_grass_service3rpcINtB7_19SweetGrassRpcClientpE16compress_session0B9_
FNDA:0,_RNCNvMsl_NtCsdjAd9q7fPo9_19sweet_grass_service3rpcINtB7_19SweetGrassRpcClientpE16provenance_graph0B9_
FNDA:0,_RNCNvMsl_NtCsdjAd9q7fPo9_19sweet_grass_service3rpcINtB7_19SweetGrassRpcClientpE17attribution_chain0B9_
FNDA:0,_RNCNvMsl_NtCsdjAd9q7fPo9_19sweet_grass_service3rpcINtB7_19SweetGrassRpcClientpE17calculate_rewards0B9_
FNDA:0,_RNCNvMsl_NtCsdjAd9q7fPo9_19sweet_grass_service3rpcINtB7_19SweetGrassRpcClientpE17create_meta_braid0B9_
FNDA:0,_RNCNvMsl_NtCsdjAd9q7fPo9_19sweet_grass_service3rpcINtB7_19SweetGrassRpcClientpE17get_braid_by_hash0B9_
FNDA:0,_RNCNvMsl_NtCsdjAd9q7fPo9_19sweet_grass_service3rpcINtB7_19SweetGrassRpcClientpE19agent_contributions0B9_
FNDA:0,_RNCNvMsl_NtCsdjAd9q7fPo9_19sweet_grass_service3rpcINtB7_19SweetGrassRpcClientpE6status0B9_
FNDA:0,_RNCNvMsl_NtCsdjAd9q7fPo9_19sweet_grass_service3rpcINtB7_19SweetGrassRpcClientpE9get_braid0B9_
FNDA:0,_RNvXININtCsdjAd9q7fPo9_19sweet_grass_service3rpcsk_0pEINtB5_19SweetGrassRpcClientpEINtNtCs9sjCchOt1K7_4core7convert4FrompE4fromB7_
FNDA:0,_RNvYpNtNtCsdjAd9q7fPo9_19sweet_grass_service3rpc13SweetGrassRpc5serveB7_
FNDA:0,_RINvMsj_NtCsZK8v8cnrxE_19sweet_grass_service3rpcNtB6_19SweetGrassRpcClient3newpEB8_
FNDA:0,_RNCNvMsl_NtCsZK8v8cnrxE_19sweet_grass_service3rpcINtB7_19SweetGrassRpcClientpE12create_braid0B9_
FNDA:0,_RNCNvMsl_NtCsZK8v8cnrxE_19sweet_grass_service3rpcINtB7_19SweetGrassRpcClientpE12delete_braid0B9_
FNDA:0,_RNCNvMsl_NtCsZK8v8cnrxE_19sweet_grass_service3rpcINtB7_19SweetGrassRpcClientpE12export_provo0B9_
FNDA:0,_RNCNvMsl_NtCsZK8v8cnrxE_19sweet_grass_service3rpcINtB7_19SweetGrassRpcClientpE12health_check0B9_
FNDA:0,_RNCNvMsl_NtCsZK8v8cnrxE_19sweet_grass_service3rpcINtB7_19SweetGrassRpcClientpE12query_braids0B9_
FNDA:0,_RNCNvMsl_NtCsZK8v8cnrxE_19sweet_grass_service3rpcINtB7_19SweetGrassRpcClientpE15braids_by_agent0B9_
FNDA:0,_RNCNvMsl_NtCsZK8v8cnrxE_19sweet_grass_service3rpcINtB7_19SweetGrassRpcClientpE16compress_session0B9_
FNDA:0,_RNCNvMsl_NtCsZK8v8cnrxE_19sweet_grass_service3rpcINtB7_19SweetGrassRpcClientpE16provenance_graph0B9_
FNDA:0,_RNCNvMsl_NtCsZK8v8cnrxE_19sweet_grass_service3rpcINtB7_19SweetGrassRpcClientpE17attribution_chain0B9_
FNDA:0,_RNCNvMsl_NtCsZK8v8cnrxE_19sweet_grass_service3rpcINtB7_19SweetGrassRpcClientpE17calculate_rewards0B9_
FNDA:0,_RNCNvMsl_NtCsZK8v8cnrxE_19sweet_grass_service3rpcINtB7_19SweetGrassRpcClientpE17create_meta_braid0B9_
FNDA:0,_RNCNvMsl_NtCsZK8v8cnrxE_19sweet_grass_service3rpcINtB7_19SweetGrassRpcClientpE17get_braid_by_hash0B9_
FNDA:0,_RNCNvMsl_NtCsZK8v8cnrxE_19sweet_grass_service3rpcINtB7_19SweetGrassRpcClientpE19agent_contributions0B9_
FNDA:0,_RNCNvMsl_NtCsZK8v8cnrxE_19sweet_grass_service3rpcINtB7_19SweetGrassRpcClientpE6status0B9_
FNDA:0,_RNCNvMsl_NtCsZK8v8cnrxE_19sweet_grass_service3rpcINtB7_19SweetGrassRpcClientpE9get_braid0B9_
FNDA:0,_RNvXININtCsZK8v8cnrxE_19sweet_grass_service3rpcsk_0pEINtB5_19SweetGrassRpcClientpEINtNtCs9sjCchOt1K7_4core7convert4FrompE4fromB7_
FNDA:0,_RNvYpNtNtCsZK8v8cnrxE_19sweet_grass_service3rpc13SweetGrassRpc5serveB7_
FNDA:1,_RNvNtNtCsZK8v8cnrxE_19sweet_grass_service3rpc5testss_22test_rpc_error_display
FNDA:1,_RNvNtNtCsZK8v8cnrxE_19sweet_grass_service3rpc5testss_25test_rpc_error_predicates
FNDA:1,_RNvNtNtCsZK8v8cnrxE_19sweet_grass_service3rpc5testss_28test_rpc_error_serialization
FNDA:1,_RNvNtNtCsZK8v8cnrxE_19sweet_grass_service3rpc5testss_29test_time_range_serialization
FNDA:1,_RNvNtNtCsZK8v8cnrxE_19sweet_grass_service3rpc5testss_31test_reward_share_serialization
FNDA:1,_RNvNtNtCsZK8v8cnrxE_19sweet_grass_service3rpc5testss_32test_health_status_serialization
FNDA:1,_RNvNtNtCsZK8v8cnrxE_19sweet_grass_service3rpc5testss_33test_service_status_serialization
FNDA:1,_RNvNtNtCsZK8v8cnrxE_19sweet_grass_service3rpc5testss_35test_json_ld_document_serialization
FNDA:1,_RNvNtNtCsZK8v8cnrxE_19sweet_grass_service3rpc5testss_38test_agent_contributions_serialization
FNDA:1,_RNvNtNtCsZK8v8cnrxE_19sweet_grass_service3rpc5testss_39test_create_braid_request_serialization
FNDA:2,_RNvMNtCsZK8v8cnrxE_19sweet_grass_service3rpcNtB2_8RpcError12is_not_found
FNDA:2,_RNvMNtCsZK8v8cnrxE_19sweet_grass_service3rpcNtB2_8RpcError13is_validation
FNF:14
FNH:12
DA:138,2
DA:139,2
DA:140,2
DA:144,2
DA:145,2
DA:146,2
DA:154,0
DA:236,1
DA:237,1
DA:238,1
DA:240,1
DA:241,1
DA:243,1
DA:244,1
DA:246,1
DA:247,1
DA:249,1
DA:250,1
DA:252,1
DA:253,1
DA:254,1
DA:257,1
DA:258,1
DA:259,1
DA:261,1
DA:262,1
DA:263,1
DA:266,1
DA:267,1
DA:268,1
DA:269,1
DA:270,1
DA:271,1
DA:274,1
DA:277,1
DA:278,1
DA:279,1
DA:280,1
DA:281,1
DA:282,1
DA:283,1
DA:284,1
DA:285,1
DA:286,1
DA:287,1
DA:288,1
DA:289,1
DA:290,1
DA:291,1
DA:294,1
DA:295,1
DA:296,1
DA:297,1
DA:298,1
DA:299,1
DA:300,1
DA:301,1
DA:302,1
DA:303,1
DA:304,1
DA:307,1
DA:310,1
DA:311,1
DA:312,1
DA:313,1
DA:314,1
DA:315,1
DA:316,1
DA:317,1
DA:318,1
DA:319,1
DA:320,1
DA:321,1
DA:324,1
DA:328,1
DA:329,1
DA:330,1
DA:331,1
DA:332,1
DA:333,1
DA:334,1
DA:335,1
DA:336,1
DA:337,1
DA:338,1
DA:339,1
DA:340,1
DA:341,1
DA:342,1
DA:345,1
DA:346,1
DA:347,1
DA:348,1
DA:349,1
DA:350,1
DA:351,1
DA:352,1
DA:353,1
DA:354,1
DA:355,1
DA:356,1
DA:357,1
DA:360,1
DA:361,1
DA:362,1
DA:363,1
DA:364,1
DA:365,1
DA:366,1
DA:367,1
DA:368,1
DA:369,1
DA:370,1
DA:371,1
DA:372,1
DA:373,1
DA:376,1
DA:377,1
DA:378,1
DA:379,1
DA:380,1
DA:381,1
DA:382,1
DA:383,1
DA:384,1
DA:385,1
DA:386,1
DA:387,1
BRF:0
BRH:0
LF:129
LH:127
end_of_record
SF:/home/strandgate/Development/ecoPrimals/phase2/sweetGrass/crates/sweet-grass-service/src/server.rs
FN:362,_RNCNCNCNvNtCsdjAd9q7fPo9_19sweet_grass_service6server18start_tarpc_server000B9_
FN:79,_RNCNCNCNvXs_NtCsdjAd9q7fPo9_19sweet_grass_service6serverNtBa_16SweetGrassServerNtNtBc_3rpc13SweetGrassRpc12create_braid000Bc_
FN:84,_RNCNCNCNvXs_NtCsdjAd9q7fPo9_19sweet_grass_service6serverNtBa_16SweetGrassServerNtNtBc_3rpc13SweetGrassRpc12create_braid00s_0Bc_
FN:128,_RNCNCNCNvXs_NtCsdjAd9q7fPo9_19sweet_grass_service6serverNtBa_16SweetGrassServerNtNtBc_3rpc13SweetGrassRpc12delete_braid000Bc_
FN:129,_RNCNCNCNvXs_NtCsdjAd9q7fPo9_19sweet_grass_service6serverNtBa_16SweetGrassServerNtNtBc_3rpc13SweetGrassRpc12delete_braid00s_0Bc_
FN:294,_RNCNCNCNvXs_NtCsdjAd9q7fPo9_19sweet_grass_service6serverNtBa_16SweetGrassServerNtNtBc_3rpc13SweetGrassRpc12export_provo000Bc_
FN:301,_RNCNCNCNvXs_NtCsdjAd9q7fPo9_19sweet_grass_service6serverNtBa_16SweetGrassServerNtNtBc_3rpc13SweetGrassRpc12export_provo00s0_0Bc_
FN:295,_RNCNCNCNvXs_NtCsdjAd9q7fPo9_19sweet_grass_service6serverNtBa_16SweetGrassServerNtNtBc_3rpc13SweetGrassRpc12export_provo00s_0Bc_
FN:120,_RNCNCNCNvXs_NtCsdjAd9q7fPo9_19sweet_grass_service6serverNtBa_16SweetGrassServerNtNtBc_3rpc13SweetGrassRpc12query_braids000Bc_
FN:250,_RNCNCNCNvXs_NtCsdjAd9q7fPo9_19sweet_grass_service6serverNtBa_16SweetGrassServerNtNtBc_3rpc13SweetGrassRpc15braids_by_agent000Bc_
FN:261,_RNCNCNCNvXs_NtCsdjAd9q7fPo9_19sweet_grass_service6serverNtBa_16SweetGrassServerNtNtBc_3rpc13SweetGrassRpc16compress_session000Bc_
FN:148,_RNCNCNCNvXs_NtCsdjAd9q7fPo9_19sweet_grass_service6serverNtBa_16SweetGrassServerNtNtBc_3rpc13SweetGrassRpc16provenance_graph000Bc_
FN:162,_RNCNCNCNvXs_NtCsdjAd9q7fPo9_19sweet_grass_service6serverNtBa_16SweetGrassServerNtNtBc_3rpc13SweetGrassRpc17attribution_chain000Bc_
FN:163,_RNCNCNCNvXs_NtCsdjAd9q7fPo9_19sweet_grass_service6serverNtBa_16SweetGrassServerNtNtBc_3rpc13SweetGrassRpc17attribution_chain00s_0Bc_
FN:183,_RNCNCNCNvXs_NtCsdjAd9q7fPo9_19sweet_grass_service6serverNtBa_16SweetGrassServerNtNtBc_3rpc13SweetGrassRpc17calculate_rewards000Bc_
FN:191,_RNCNCNCNvXs_NtCsdjAd9q7fPo9_19sweet_grass_service6serverNtBa_16SweetGrassServerNtNtBc_3rpc13SweetGrassRpc17calculate_rewards00s0_0Bc_
FN:184,_RNCNCNCNvXs_NtCsdjAd9q7fPo9_19sweet_grass_service6serverNtBa_16SweetGrassServerNtNtBc_3rpc13SweetGrassRpc17calculate_rewards00s_0Bc_
FN:274,_RNCNCNCNvXs_NtCsdjAd9q7fPo9_19sweet_grass_service6serverNtBa_16SweetGrassServerNtNtBc_3rpc13SweetGrassRpc17create_meta_braid000Bc_
FN:279,_RNCNCNCNvXs_NtCsdjAd9q7fPo9_19sweet_grass_service6serverNtBa_16SweetGrassServerNtNtBc_3rpc13SweetGrassRpc17create_meta_braid00s_0Bc_
FN:107,_RNCNCNCNvXs_NtCsdjAd9q7fPo9_19sweet_grass_service6serverNtBa_16SweetGrassServerNtNtBc_3rpc13SweetGrassRpc17get_braid_by_hash000Bc_
FN:213,_RNCNCNCNvXs_NtCsdjAd9q7fPo9_19sweet_grass_service6serverNtBa_16SweetGrassServerNtNtBc_3rpc13SweetGrassRpc19agent_contributions000Bc_
FN:226,_RNCNCNCNvXs_NtCsdjAd9q7fPo9_19sweet_grass_service6serverNtBa_16SweetGrassServerNtNtBc_3rpc13SweetGrassRpc19agent_contributions00s0_0Bc_
FN:219,_RNCNCNCNvXs_NtCsdjAd9q7fPo9_19sweet_grass_service6serverNtBa_16SweetGrassServerNtNtBc_3rpc13SweetGrassRpc19agent_contributions00s_0Bc_
FN:95,_RNCNCNCNvXs_NtCsdjAd9q7fPo9_19sweet_grass_service6serverNtBa_16SweetGrassServerNtNtBc_3rpc13SweetGrassRpc9get_braid000Bc_
FN:360,_RNCNCNvNtCsdjAd9q7fPo9_19sweet_grass_service6server18start_tarpc_server00B7_
FN:317,_RNCNCNvXs_NtCsdjAd9q7fPo9_19sweet_grass_service6serverNtB8_16SweetGrassServerNtNtBa_3rpc13SweetGrassRpc12health_check00Ba_
FN:332,_RNCNCNvXs_NtCsdjAd9q7fPo9_19sweet_grass_service6serverNtB8_16SweetGrassServerNtNtBa_3rpc13SweetGrassRpc6status00Ba_
FN:348,_RNCNvNtCsdjAd9q7fPo9_19sweet_grass_service6server18start_tarpc_server0B5_
FN:70,_RNCNvXs_NtCsdjAd9q7fPo9_19sweet_grass_service6serverNtB6_16SweetGrassServerNtNtB8_3rpc13SweetGrassRpc12create_braid0B8_
FN:124,_RNCNvXs_NtCsdjAd9q7fPo9_19sweet_grass_service6serverNtB6_16SweetGrassServerNtNtB8_3rpc13SweetGrassRpc12delete_braid0B8_
FN:289,_RNCNvXs_NtCsdjAd9q7fPo9_19sweet_grass_service6serverNtB6_16SweetGrassServerNtNtB8_3rpc13SweetGrassRpc12export_provo0B8_
FN:312,_RNCNvXs_NtCsdjAd9q7fPo9_19sweet_grass_service6serverNtB6_16SweetGrassServerNtNtB8_3rpc13SweetGrassRpc12health_check0B8_
FN:116,_RNCNvXs_NtCsdjAd9q7fPo9_19sweet_grass_service6serverNtB6_16SweetGrassServerNtNtB8_3rpc13SweetGrassRpc12query_braids0B8_
FN:246,_RNCNvXs_NtCsdjAd9q7fPo9_19sweet_grass_service6serverNtB6_16SweetGrassServerNtNtB8_3rpc13SweetGrassRpc15braids_by_agent0B8_
FN:258,_RNCNvXs_NtCsdjAd9q7fPo9_19sweet_grass_service6serverNtB6_16SweetGrassServerNtNtB8_3rpc13SweetGrassRpc16compress_session0B8_
FN:139,_RNCNvXs_NtCsdjAd9q7fPo9_19sweet_grass_service6serverNtB6_16SweetGrassServerNtNtB8_3rpc13SweetGrassRpc16provenance_graph0B8_
FN:157,_RNCNvXs_NtCsdjAd9q7fPo9_19sweet_grass_service6serverNtB6_16SweetGrassServerNtNtB8_3rpc13SweetGrassRpc17attribution_chain0B8_
FN:178,_RNCNvXs_NtCsdjAd9q7fPo9_19sweet_grass_service6serverNtB6_16SweetGrassServerNtNtB8_3rpc13SweetGrassRpc17calculate_rewards0B8_
FN:270,_RNCNvXs_NtCsdjAd9q7fPo9_19sweet_grass_service6serverNtB6_16SweetGrassServerNtNtB8_3rpc13SweetGrassRpc17create_meta_braid0B8_
FN:103,_RNCNvXs_NtCsdjAd9q7fPo9_19sweet_grass_service6serverNtB6_16SweetGrassServerNtNtB8_3rpc13SweetGrassRpc17get_braid_by_hash0B8_
FN:208,_RNCNvXs_NtCsdjAd9q7fPo9_19sweet_grass_service6serverNtB6_16SweetGrassServerNtNtB8_3rpc13SweetGrassRpc19agent_contributions0B8_
FN:327,_RNCNvXs_NtCsdjAd9q7fPo9_19sweet_grass_service6serverNtB6_16SweetGrassServerNtNtB8_3rpc13SweetGrassRpc6status0B8_
FN:91,_RNCNvXs_NtCsdjAd9q7fPo9_19sweet_grass_service6serverNtB6_16SweetGrassServerNtNtB8_3rpc13SweetGrassRpc9get_braid0B8_
FN:387,_RNvNtNtCsZK8v8cnrxE_19sweet_grass_service6server5tests11make_server
FN:401,_RNvNtNtCsZK8v8cnrxE_19sweet_grass_service6server5tests17create_test_braid
FN:428,_RNvNtNtCsZK8v8cnrxE_19sweet_grass_service6server5testss_11test_status
FN:536,_RNvNtNtCsZK8v8cnrxE_19sweet_grass_service6server5testss_17test_delete_braid
FN:711,_RNvNtNtCsZK8v8cnrxE_19sweet_grass_service6server5testss_17test_export_provo
FN:420,_RNvNtNtCsZK8v8cnrxE_19sweet_grass_service6server5testss_17test_health_check
FN:503,_RNvNtNtCsZK8v8cnrxE_19sweet_grass_service6server5testss_17test_query_braids
FN:556,_RNvNtNtCsZK8v8cnrxE_19sweet_grass_service6server5testss_20test_braids_by_agent
FN:648,_RNvNtNtCsZK8v8cnrxE_19sweet_grass_service6server5testss_21test_compress_session
FN:697,_RNvNtNtCsZK8v8cnrxE_19sweet_grass_service6server5testss_21test_provenance_graph
FN:570,_RNvNtNtCsZK8v8cnrxE_19sweet_grass_service6server5testss_22test_attribution_chain
FN:603,_RNvNtNtCsZK8v8cnrxE_19sweet_grass_service6server5testss_22test_calculate_rewards
FN:674,_RNvNtNtCsZK8v8cnrxE_19sweet_grass_service6server5testss_22test_create_meta_braid
FN:478,_RNvNtNtCsZK8v8cnrxE_19sweet_grass_service6server5testss_22test_get_braid_by_hash
FN:631,_RNvNtNtCsZK8v8cnrxE_19sweet_grass_service6server5testss_24test_agent_contributions
FN:468,_RNvNtNtCsZK8v8cnrxE_19sweet_grass_service6server5testss_24test_get_braid_not_found
FN:437,_RNvNtNtCsZK8v8cnrxE_19sweet_grass_service6server5testss_25test_create_and_get_braid
FN:725,_RNvNtNtCsZK8v8cnrxE_19sweet_grass_service6server5testss_27test_export_provo_not_found
FN:522,_RNvNtNtCsZK8v8cnrxE_19sweet_grass_service6server5testss_29test_query_braids_with_filter
FN:588,_RNvNtNtCsZK8v8cnrxE_19sweet_grass_service6server5testss_32test_attribution_chain_not_found
FN:620,_RNvNtNtCsZK8v8cnrxE_19sweet_grass_service6server5testss_32test_calculate_rewards_not_found
FN:493,_RNvNtNtCsZK8v8cnrxE_19sweet_grass_service6server5testss_32test_get_braid_by_hash_not_found
FN:362,_RNCNCNCNvNtCsZK8v8cnrxE_19sweet_grass_service6server18start_tarpc_server000B9_
FN:360,_RNCNCNvNtCsZK8v8cnrxE_19sweet_grass_service6server18start_tarpc_server00B7_
FN:348,_RNCNvNtCsZK8v8cnrxE_19sweet_grass_service6server18start_tarpc_server0B5_
FN:345,_RNvNtCsZK8v8cnrxE_19sweet_grass_service6server18start_tarpc_server
FN:46,_RNvMNtCsZK8v8cnrxE_19sweet_grass_service6serverNtB2_16SweetGrassServer3new
FN:66,_RNvXs_NtCsZK8v8cnrxE_19sweet_grass_service6serverNtB4_16SweetGrassServerNtNtB6_3rpc13SweetGrassRpc12create_braid
FN:124,_RNvXs_NtCsZK8v8cnrxE_19sweet_grass_service6serverNtB4_16SweetGrassServerNtNtB6_3rpc13SweetGrassRpc12delete_braid
FN:285,_RNvXs_NtCsZK8v8cnrxE_19sweet_grass_service6serverNtB4_16SweetGrassServerNtNtB6_3rpc13SweetGrassRpc12export_provo
FN:312,_RNvXs_NtCsZK8v8cnrxE_19sweet_grass_service6serverNtB4_16SweetGrassServerNtNtB6_3rpc13SweetGrassRpc12health_check
FN:111,_RNvXs_NtCsZK8v8cnrxE_19sweet_grass_service6serverNtB4_16SweetGrassServerNtNtB6_3rpc13SweetGrassRpc12query_braids
FN:246,_RNvXs_NtCsZK8v8cnrxE_19sweet_grass_service6serverNtB4_16SweetGrassServerNtNtB6_3rpc13SweetGrassRpc15braids_by_agent
FN:254,_RNvXs_NtCsZK8v8cnrxE_19sweet_grass_service6serverNtB4_16SweetGrassServerNtNtB6_3rpc13SweetGrassRpc16compress_session
FN:133,_RNvXs_NtCsZK8v8cnrxE_19sweet_grass_service6serverNtB4_16SweetGrassServerNtNtB6_3rpc13SweetGrassRpc16provenance_graph
FN:152,_RNvXs_NtCsZK8v8cnrxE_19sweet_grass_service6serverNtB4_16SweetGrassServerNtNtB6_3rpc13SweetGrassRpc17attribution_chain
FN:173,_RNvXs_NtCsZK8v8cnrxE_19sweet_grass_service6serverNtB4_16SweetGrassServerNtNtB6_3rpc13SweetGrassRpc17calculate_rewards
FN:265,_RNvXs_NtCsZK8v8cnrxE_19sweet_grass_service6serverNtB4_16SweetGrassServerNtNtB6_3rpc13SweetGrassRpc17create_meta_braid
FN:99,_RNvXs_NtCsZK8v8cnrxE_19sweet_grass_service6serverNtB4_16SweetGrassServerNtNtB6_3rpc13SweetGrassRpc17get_braid_by_hash
FN:203,_RNvXs_NtCsZK8v8cnrxE_19sweet_grass_service6serverNtB4_16SweetGrassServerNtNtB6_3rpc13SweetGrassRpc19agent_contributions
FN:327,_RNvXs_NtCsZK8v8cnrxE_19sweet_grass_service6serverNtB4_16SweetGrassServerNtNtB6_3rpc13SweetGrassRpc6status
FN:91,_RNvXs_NtCsZK8v8cnrxE_19sweet_grass_service6serverNtB4_16SweetGrassServerNtNtB6_3rpc13SweetGrassRpc9get_braid
FN:79,_RNCNCNCNvXs_NtCsZK8v8cnrxE_19sweet_grass_service6serverNtBa_16SweetGrassServerNtNtBc_3rpc13SweetGrassRpc12create_braid000Bc_
FN:84,_RNCNCNCNvXs_NtCsZK8v8cnrxE_19sweet_grass_service6serverNtBa_16SweetGrassServerNtNtBc_3rpc13SweetGrassRpc12create_braid00s_0Bc_
FN:128,_RNCNCNCNvXs_NtCsZK8v8cnrxE_19sweet_grass_service6serverNtBa_16SweetGrassServerNtNtBc_3rpc13SweetGrassRpc12delete_braid000Bc_
FN:129,_RNCNCNCNvXs_NtCsZK8v8cnrxE_19sweet_grass_service6serverNtBa_16SweetGrassServerNtNtBc_3rpc13SweetGrassRpc12delete_braid00s_0Bc_
FN:294,_RNCNCNCNvXs_NtCsZK8v8cnrxE_19sweet_grass_service6serverNtBa_16SweetGrassServerNtNtBc_3rpc13SweetGrassRpc12export_provo000Bc_
FN:301,_RNCNCNCNvXs_NtCsZK8v8cnrxE_19sweet_grass_service6serverNtBa_16SweetGrassServerNtNtBc_3rpc13SweetGrassRpc12export_provo00s0_0Bc_
FN:295,_RNCNCNCNvXs_NtCsZK8v8cnrxE_19sweet_grass_service6serverNtBa_16SweetGrassServerNtNtBc_3rpc13SweetGrassRpc12export_provo00s_0Bc_
FN:120,_RNCNCNCNvXs_NtCsZK8v8cnrxE_19sweet_grass_service6serverNtBa_16SweetGrassServerNtNtBc_3rpc13SweetGrassRpc12query_braids000Bc_
FN:250,_RNCNCNCNvXs_NtCsZK8v8cnrxE_19sweet_grass_service6serverNtBa_16SweetGrassServerNtNtBc_3rpc13SweetGrassRpc15braids_by_agent000Bc_
FN:261,_RNCNCNCNvXs_NtCsZK8v8cnrxE_19sweet_grass_service6serverNtBa_16SweetGrassServerNtNtBc_3rpc13SweetGrassRpc16compress_session000Bc_
FN:148,_RNCNCNCNvXs_NtCsZK8v8cnrxE_19sweet_grass_service6serverNtBa_16SweetGrassServerNtNtBc_3rpc13SweetGrassRpc16provenance_graph000Bc_
FN:162,_RNCNCNCNvXs_NtCsZK8v8cnrxE_19sweet_grass_service6serverNtBa_16SweetGrassServerNtNtBc_3rpc13SweetGrassRpc17attribution_chain000Bc_
FN:163,_RNCNCNCNvXs_NtCsZK8v8cnrxE_19sweet_grass_service6serverNtBa_16SweetGrassServerNtNtBc_3rpc13SweetGrassRpc17attribution_chain00s_0Bc_
FN:183,_RNCNCNCNvXs_NtCsZK8v8cnrxE_19sweet_grass_service6serverNtBa_16SweetGrassServerNtNtBc_3rpc13SweetGrassRpc17calculate_rewards000Bc_
FN:191,_RNCNCNCNvXs_NtCsZK8v8cnrxE_19sweet_grass_service6serverNtBa_16SweetGrassServerNtNtBc_3rpc13SweetGrassRpc17calculate_rewards00s0_0Bc_
FN:184,_RNCNCNCNvXs_NtCsZK8v8cnrxE_19sweet_grass_service6serverNtBa_16SweetGrassServerNtNtBc_3rpc13SweetGrassRpc17calculate_rewards00s_0Bc_
FN:274,_RNCNCNCNvXs_NtCsZK8v8cnrxE_19sweet_grass_service6serverNtBa_16SweetGrassServerNtNtBc_3rpc13SweetGrassRpc17create_meta_braid000Bc_
FN:279,_RNCNCNCNvXs_NtCsZK8v8cnrxE_19sweet_grass_service6serverNtBa_16SweetGrassServerNtNtBc_3rpc13SweetGrassRpc17create_meta_braid00s_0Bc_
FN:107,_RNCNCNCNvXs_NtCsZK8v8cnrxE_19sweet_grass_service6serverNtBa_16SweetGrassServerNtNtBc_3rpc13SweetGrassRpc17get_braid_by_hash000Bc_
FN:213,_RNCNCNCNvXs_NtCsZK8v8cnrxE_19sweet_grass_service6serverNtBa_16SweetGrassServerNtNtBc_3rpc13SweetGrassRpc19agent_contributions000Bc_
FN:226,_RNCNCNCNvXs_NtCsZK8v8cnrxE_19sweet_grass_service6serverNtBa_16SweetGrassServerNtNtBc_3rpc13SweetGrassRpc19agent_contributions00s0_0Bc_
FN:219,_RNCNCNCNvXs_NtCsZK8v8cnrxE_19sweet_grass_service6serverNtBa_16SweetGrassServerNtNtBc_3rpc13SweetGrassRpc19agent_contributions00s_0Bc_
FN:95,_RNCNCNCNvXs_NtCsZK8v8cnrxE_19sweet_grass_service6serverNtBa_16SweetGrassServerNtNtBc_3rpc13SweetGrassRpc9get_braid000Bc_
FN:317,_RNCNCNvXs_NtCsZK8v8cnrxE_19sweet_grass_service6serverNtB8_16SweetGrassServerNtNtBa_3rpc13SweetGrassRpc12health_check00Ba_
FN:332,_RNCNCNvXs_NtCsZK8v8cnrxE_19sweet_grass_service6serverNtB8_16SweetGrassServerNtNtBa_3rpc13SweetGrassRpc6status00Ba_
FN:70,_RNCNvXs_NtCsZK8v8cnrxE_19sweet_grass_service6serverNtB6_16SweetGrassServerNtNtB8_3rpc13SweetGrassRpc12create_braid0B8_
FN:124,_RNCNvXs_NtCsZK8v8cnrxE_19sweet_grass_service6serverNtB6_16SweetGrassServerNtNtB8_3rpc13SweetGrassRpc12delete_braid0B8_
FN:289,_RNCNvXs_NtCsZK8v8cnrxE_19sweet_grass_service6serverNtB6_16SweetGrassServerNtNtB8_3rpc13SweetGrassRpc12export_provo0B8_
FN:312,_RNCNvXs_NtCsZK8v8cnrxE_19sweet_grass_service6serverNtB6_16SweetGrassServerNtNtB8_3rpc13SweetGrassRpc12health_check0B8_
FN:116,_RNCNvXs_NtCsZK8v8cnrxE_19sweet_grass_service6serverNtB6_16SweetGrassServerNtNtB8_3rpc13SweetGrassRpc12query_braids0B8_
FN:246,_RNCNvXs_NtCsZK8v8cnrxE_19sweet_grass_service6serverNtB6_16SweetGrassServerNtNtB8_3rpc13SweetGrassRpc15braids_by_agent0B8_
FN:258,_RNCNvXs_NtCsZK8v8cnrxE_19sweet_grass_service6serverNtB6_16SweetGrassServerNtNtB8_3rpc13SweetGrassRpc16compress_session0B8_
FN:139,_RNCNvXs_NtCsZK8v8cnrxE_19sweet_grass_service6serverNtB6_16SweetGrassServerNtNtB8_3rpc13SweetGrassRpc16provenance_graph0B8_
FN:157,_RNCNvXs_NtCsZK8v8cnrxE_19sweet_grass_service6serverNtB6_16SweetGrassServerNtNtB8_3rpc13SweetGrassRpc17attribution_chain0B8_
FN:178,_RNCNvXs_NtCsZK8v8cnrxE_19sweet_grass_service6serverNtB6_16SweetGrassServerNtNtB8_3rpc13SweetGrassRpc17calculate_rewards0B8_
FN:270,_RNCNvXs_NtCsZK8v8cnrxE_19sweet_grass_service6serverNtB6_16SweetGrassServerNtNtB8_3rpc13SweetGrassRpc17create_meta_braid0B8_
FN:103,_RNCNvXs_NtCsZK8v8cnrxE_19sweet_grass_service6serverNtB6_16SweetGrassServerNtNtB8_3rpc13SweetGrassRpc17get_braid_by_hash0B8_
FN:208,_RNCNvXs_NtCsZK8v8cnrxE_19sweet_grass_service6serverNtB6_16SweetGrassServerNtNtB8_3rpc13SweetGrassRpc19agent_contributions0B8_
FN:327,_RNCNvXs_NtCsZK8v8cnrxE_19sweet_grass_service6serverNtB6_16SweetGrassServerNtNtB8_3rpc13SweetGrassRpc6status0B8_
FN:91,_RNCNvXs_NtCsZK8v8cnrxE_19sweet_grass_service6serverNtB6_16SweetGrassServerNtNtB8_3rpc13SweetGrassRpc9get_braid0B8_
FN:615,_RNCNCNvNtNtCsZK8v8cnrxE_19sweet_grass_service6server5testss_22test_calculate_rewards00B9_
FN:401,_RNCNvNtNtCsZK8v8cnrxE_19sweet_grass_service6server5tests17create_test_braid0B7_
FN:428,_RNCNvNtNtCsZK8v8cnrxE_19sweet_grass_service6server5testss_11test_status0B7_
FN:536,_RNCNvNtNtCsZK8v8cnrxE_19sweet_grass_service6server5testss_17test_delete_braid0B7_
FN:711,_RNCNvNtNtCsZK8v8cnrxE_19sweet_grass_service6server5testss_17test_export_provo0B7_
FN:420,_RNCNvNtNtCsZK8v8cnrxE_19sweet_grass_service6server5testss_17test_health_check0B7_
FN:503,_RNCNvNtNtCsZK8v8cnrxE_19sweet_grass_service6server5testss_17test_query_braids0B7_
FN:556,_RNCNvNtNtCsZK8v8cnrxE_19sweet_grass_service6server5testss_20test_braids_by_agent0B7_
FN:648,_RNCNvNtNtCsZK8v8cnrxE_19sweet_grass_service6server5testss_21test_compress_session0B7_
FN:697,_RNCNvNtNtCsZK8v8cnrxE_19sweet_grass_service6server5testss_21test_provenance_graph0B7_
FN:570,_RNCNvNtNtCsZK8v8cnrxE_19sweet_grass_service6server5testss_22test_attribution_chain0B7_
FN:603,_RNCNvNtNtCsZK8v8cnrxE_19sweet_grass_service6server5testss_22test_calculate_rewards0B7_
FN:674,_RNCNvNtNtCsZK8v8cnrxE_19sweet_grass_service6server5testss_22test_create_meta_braid0B7_
FN:478,_RNCNvNtNtCsZK8v8cnrxE_19sweet_grass_service6server5testss_22test_get_braid_by_hash0B7_
FN:631,_RNCNvNtNtCsZK8v8cnrxE_19sweet_grass_service6server5testss_24test_agent_contributions0B7_
FN:468,_RNCNvNtNtCsZK8v8cnrxE_19sweet_grass_service6server5testss_24test_get_braid_not_found0B7_
FN:437,_RNCNvNtNtCsZK8v8cnrxE_19sweet_grass_service6server5testss_25test_create_and_get_braid0B7_
FN:725,_RNCNvNtNtCsZK8v8cnrxE_19sweet_grass_service6server5testss_27test_export_provo_not_found0B7_
FN:522,_RNCNvNtNtCsZK8v8cnrxE_19sweet_grass_service6server5testss_29test_query_braids_with_filter0B7_
FN:588,_RNCNvNtNtCsZK8v8cnrxE_19sweet_grass_service6server5testss_32test_attribution_chain_not_found0B7_
FN:620,_RNCNvNtNtCsZK8v8cnrxE_19sweet_grass_service6server5testss_32test_calculate_rewards_not_found0B7_
FN:493,_RNCNvNtNtCsZK8v8cnrxE_19sweet_grass_service6server5testss_32test_get_braid_by_hash_not_found0B7_
FNDA:0,_RNCNCNCNvNtCsdjAd9q7fPo9_19sweet_grass_service6server18start_tarpc_server000B9_
FNDA:0,_RNCNCNCNvXs_NtCsdjAd9q7fPo9_19sweet_grass_service6serverNtBa_16SweetGrassServerNtNtBc_3rpc13SweetGrassRpc12create_braid000Bc_
FNDA:0,_RNCNCNCNvXs_NtCsdjAd9q7fPo9_19sweet_grass_service6serverNtBa_16SweetGrassServerNtNtBc_3rpc13SweetGrassRpc12create_braid00s_0Bc_
FNDA:0,_RNCNCNCNvXs_NtCsdjAd9q7fPo9_19sweet_grass_service6serverNtBa_16SweetGrassServerNtNtBc_3rpc13SweetGrassRpc12delete_braid000Bc_
FNDA:0,_RNCNCNCNvXs_NtCsdjAd9q7fPo9_19sweet_grass_service6serverNtBa_16SweetGrassServerNtNtBc_3rpc13SweetGrassRpc12delete_braid00s_0Bc_
FNDA:0,_RNCNCNCNvXs_NtCsdjAd9q7fPo9_19sweet_grass_service6serverNtBa_16SweetGrassServerNtNtBc_3rpc13SweetGrassRpc12export_provo000Bc_
FNDA:0,_RNCNCNCNvXs_NtCsdjAd9q7fPo9_19sweet_grass_service6serverNtBa_16SweetGrassServerNtNtBc_3rpc13SweetGrassRpc12export_provo00s0_0Bc_
FNDA:0,_RNCNCNCNvXs_NtCsdjAd9q7fPo9_19sweet_grass_service6serverNtBa_16SweetGrassServerNtNtBc_3rpc13SweetGrassRpc12export_provo00s_0Bc_
FNDA:0,_RNCNCNCNvXs_NtCsdjAd9q7fPo9_19sweet_grass_service6serverNtBa_16SweetGrassServerNtNtBc_3rpc13SweetGrassRpc12query_braids000Bc_
FNDA:0,_RNCNCNCNvXs_NtCsdjAd9q7fPo9_19sweet_grass_service6serverNtBa_16SweetGrassServerNtNtBc_3rpc13SweetGrassRpc15braids_by_agent000Bc_
FNDA:0,_RNCNCNCNvXs_NtCsdjAd9q7fPo9_19sweet_grass_service6serverNtBa_16SweetGrassServerNtNtBc_3rpc13SweetGrassRpc16compress_session000Bc_
FNDA:0,_RNCNCNCNvXs_NtCsdjAd9q7fPo9_19sweet_grass_service6serverNtBa_16SweetGrassServerNtNtBc_3rpc13SweetGrassRpc16provenance_graph000Bc_
FNDA:0,_RNCNCNCNvXs_NtCsdjAd9q7fPo9_19sweet_grass_service6serverNtBa_16SweetGrassServerNtNtBc_3rpc13SweetGrassRpc17attribution_chain000Bc_
FNDA:0,_RNCNCNCNvXs_NtCsdjAd9q7fPo9_19sweet_grass_service6serverNtBa_16SweetGrassServerNtNtBc_3rpc13SweetGrassRpc17attribution_chain00s_0Bc_
FNDA:0,_RNCNCNCNvXs_NtCsdjAd9q7fPo9_19sweet_grass_service6serverNtBa_16SweetGrassServerNtNtBc_3rpc13SweetGrassRpc17calculate_rewards000Bc_
FNDA:0,_RNCNCNCNvXs_NtCsdjAd9q7fPo9_19sweet_grass_service6serverNtBa_16SweetGrassServerNtNtBc_3rpc13SweetGrassRpc17calculate_rewards00s0_0Bc_
FNDA:0,_RNCNCNCNvXs_NtCsdjAd9q7fPo9_19sweet_grass_service6serverNtBa_16SweetGrassServerNtNtBc_3rpc13SweetGrassRpc17calculate_rewards00s_0Bc_
FNDA:0,_RNCNCNCNvXs_NtCsdjAd9q7fPo9_19sweet_grass_service6serverNtBa_16SweetGrassServerNtNtBc_3rpc13SweetGrassRpc17create_meta_braid000Bc_
FNDA:0,_RNCNCNCNvXs_NtCsdjAd9q7fPo9_19sweet_grass_service6serverNtBa_16SweetGrassServerNtNtBc_3rpc13SweetGrassRpc17create_meta_braid00s_0Bc_
FNDA:0,_RNCNCNCNvXs_NtCsdjAd9q7fPo9_19sweet_grass_service6serverNtBa_16SweetGrassServerNtNtBc_3rpc13SweetGrassRpc17get_braid_by_hash000Bc_
FNDA:0,_RNCNCNCNvXs_NtCsdjAd9q7fPo9_19sweet_grass_service6serverNtBa_16SweetGrassServerNtNtBc_3rpc13SweetGrassRpc19agent_contributions000Bc_
FNDA:0,_RNCNCNCNvXs_NtCsdjAd9q7fPo9_19sweet_grass_service6serverNtBa_16SweetGrassServerNtNtBc_3rpc13SweetGrassRpc19agent_contributions00s0_0Bc_
FNDA:0,_RNCNCNCNvXs_NtCsdjAd9q7fPo9_19sweet_grass_service6serverNtBa_16SweetGrassServerNtNtBc_3rpc13SweetGrassRpc19agent_contributions00s_0Bc_
FNDA:0,_RNCNCNCNvXs_NtCsdjAd9q7fPo9_19sweet_grass_service6serverNtBa_16SweetGrassServerNtNtBc_3rpc13SweetGrassRpc9get_braid000Bc_
FNDA:0,_RNCNCNvNtCsdjAd9q7fPo9_19sweet_grass_service6server18start_tarpc_server00B7_
FNDA:0,_RNCNCNvXs_NtCsdjAd9q7fPo9_19sweet_grass_service6serverNtB8_16SweetGrassServerNtNtBa_3rpc13SweetGrassRpc12health_check00Ba_
FNDA:0,_RNCNCNvXs_NtCsdjAd9q7fPo9_19sweet_grass_service6serverNtB8_16SweetGrassServerNtNtBa_3rpc13SweetGrassRpc6status00Ba_
FNDA:0,_RNCNvNtCsdjAd9q7fPo9_19sweet_grass_service6server18start_tarpc_server0B5_
FNDA:0,_RNCNvXs_NtCsdjAd9q7fPo9_19sweet_grass_service6serverNtB6_16SweetGrassServerNtNtB8_3rpc13SweetGrassRpc12create_braid0B8_
FNDA:0,_RNCNvXs_NtCsdjAd9q7fPo9_19sweet_grass_service6serverNtB6_16SweetGrassServerNtNtB8_3rpc13SweetGrassRpc12delete_braid0B8_
FNDA:0,_RNCNvXs_NtCsdjAd9q7fPo9_19sweet_grass_service6serverNtB6_16SweetGrassServerNtNtB8_3rpc13SweetGrassRpc12export_provo0B8_
FNDA:0,_RNCNvXs_NtCsdjAd9q7fPo9_19sweet_grass_service6serverNtB6_16SweetGrassServerNtNtB8_3rpc13SweetGrassRpc12health_check0B8_
FNDA:0,_RNCNvXs_NtCsdjAd9q7fPo9_19sweet_grass_service6serverNtB6_16SweetGrassServerNtNtB8_3rpc13SweetGrassRpc12query_braids0B8_
FNDA:0,_RNCNvXs_NtCsdjAd9q7fPo9_19sweet_grass_service6serverNtB6_16SweetGrassServerNtNtB8_3rpc13SweetGrassRpc15braids_by_agent0B8_
FNDA:0,_RNCNvXs_NtCsdjAd9q7fPo9_19sweet_grass_service6serverNtB6_16SweetGrassServerNtNtB8_3rpc13SweetGrassRpc16compress_session0B8_
FNDA:0,_RNCNvXs_NtCsdjAd9q7fPo9_19sweet_grass_service6serverNtB6_16SweetGrassServerNtNtB8_3rpc13SweetGrassRpc16provenance_graph0B8_
FNDA:0,_RNCNvXs_NtCsdjAd9q7fPo9_19sweet_grass_service6serverNtB6_16SweetGrassServerNtNtB8_3rpc13SweetGrassRpc17attribution_chain0B8_
FNDA:0,_RNCNvXs_NtCsdjAd9q7fPo9_19sweet_grass_service6serverNtB6_16SweetGrassServerNtNtB8_3rpc13SweetGrassRpc17calculate_rewards0B8_
FNDA:0,_RNCNvXs_NtCsdjAd9q7fPo9_19sweet_grass_service6serverNtB6_16SweetGrassServerNtNtB8_3rpc13SweetGrassRpc17create_meta_braid0B8_
FNDA:0,_RNCNvXs_NtCsdjAd9q7fPo9_19sweet_grass_service6serverNtB6_16SweetGrassServerNtNtB8_3rpc13SweetGrassRpc17get_braid_by_hash0B8_
FNDA:0,_RNCNvXs_NtCsdjAd9q7fPo9_19sweet_grass_service6serverNtB6_16SweetGrassServerNtNtB8_3rpc13SweetGrassRpc19agent_contributions0B8_
FNDA:0,_RNCNvXs_NtCsdjAd9q7fPo9_19sweet_grass_service6serverNtB6_16SweetGrassServerNtNtB8_3rpc13SweetGrassRpc6status0B8_
FNDA:0,_RNCNvXs_NtCsdjAd9q7fPo9_19sweet_grass_service6serverNtB6_16SweetGrassServerNtNtB8_3rpc13SweetGrassRpc9get_braid0B8_
FNDA:20,_RNvNtNtCsZK8v8cnrxE_19sweet_grass_service6server5tests11make_server
FNDA:14,_RNvNtNtCsZK8v8cnrxE_19sweet_grass_service6server5tests17create_test_braid
FNDA:1,_RNvNtNtCsZK8v8cnrxE_19sweet_grass_service6server5testss_11test_status
FNDA:1,_RNvNtNtCsZK8v8cnrxE_19sweet_grass_service6server5testss_17test_delete_braid
FNDA:1,_RNvNtNtCsZK8v8cnrxE_19sweet_grass_service6server5testss_17test_export_provo
FNDA:1,_RNvNtNtCsZK8v8cnrxE_19sweet_grass_service6server5testss_17test_health_check
FNDA:1,_RNvNtNtCsZK8v8cnrxE_19sweet_grass_service6server5testss_17test_query_braids
FNDA:1,_RNvNtNtCsZK8v8cnrxE_19sweet_grass_service6server5testss_20test_braids_by_agent
FNDA:1,_RNvNtNtCsZK8v8cnrxE_19sweet_grass_service6server5testss_21test_compress_session
FNDA:1,_RNvNtNtCsZK8v8cnrxE_19sweet_grass_service6server5testss_21test_provenance_graph
FNDA:1,_RNvNtNtCsZK8v8cnrxE_19sweet_grass_service6server5testss_22test_attribution_chain
FNDA:1,_RNvNtNtCsZK8v8cnrxE_19sweet_grass_service6server5testss_22test_calculate_rewards
FNDA:1,_RNvNtNtCsZK8v8cnrxE_19sweet_grass_service6server5testss_22test_create_meta_braid
FNDA:1,_RNvNtNtCsZK8v8cnrxE_19sweet_grass_service6server5testss_22test_get_braid_by_hash
FNDA:1,_RNvNtNtCsZK8v8cnrxE_19sweet_grass_service6server5testss_24test_agent_contributions
FNDA:1,_RNvNtNtCsZK8v8cnrxE_19sweet_grass_service6server5testss_24test_get_braid_not_found
FNDA:1,_RNvNtNtCsZK8v8cnrxE_19sweet_grass_service6server5testss_25test_create_and_get_braid
FNDA:1,_RNvNtNtCsZK8v8cnrxE_19sweet_grass_service6server5testss_27test_export_provo_not_found
FNDA:1,_RNvNtNtCsZK8v8cnrxE_19sweet_grass_service6server5testss_29test_query_braids_with_filter
FNDA:1,_RNvNtNtCsZK8v8cnrxE_19sweet_grass_service6server5testss_32test_attribution_chain_not_found
FNDA:1,_RNvNtNtCsZK8v8cnrxE_19sweet_grass_service6server5testss_32test_calculate_rewards_not_found
FNDA:1,_RNvNtNtCsZK8v8cnrxE_19sweet_grass_service6server5testss_32test_get_braid_by_hash_not_found
FNDA:0,_RNCNCNCNvNtCsZK8v8cnrxE_19sweet_grass_service6server18start_tarpc_server000B9_
FNDA:0,_RNCNCNvNtCsZK8v8cnrxE_19sweet_grass_service6server18start_tarpc_server00B7_
FNDA:0,_RNCNvNtCsZK8v8cnrxE_19sweet_grass_service6server18start_tarpc_server0B5_
FNDA:0,_RNvNtCsZK8v8cnrxE_19sweet_grass_service6server18start_tarpc_server
FNDA:20,_RNvMNtCsZK8v8cnrxE_19sweet_grass_service6serverNtB2_16SweetGrassServer3new
FNDA:15,_RNvXs_NtCsZK8v8cnrxE_19sweet_grass_service6serverNtB4_16SweetGrassServerNtNtB6_3rpc13SweetGrassRpc12create_braid
FNDA:1,_RNvXs_NtCsZK8v8cnrxE_19sweet_grass_service6serverNtB4_16SweetGrassServerNtNtB6_3rpc13SweetGrassRpc12delete_braid
FNDA:2,_RNvXs_NtCsZK8v8cnrxE_19sweet_grass_service6serverNtB4_16SweetGrassServerNtNtB6_3rpc13SweetGrassRpc12export_provo
FNDA:1,_RNvXs_NtCsZK8v8cnrxE_19sweet_grass_service6serverNtB4_16SweetGrassServerNtNtB6_3rpc13SweetGrassRpc12health_check
FNDA:2,_RNvXs_NtCsZK8v8cnrxE_19sweet_grass_service6serverNtB4_16SweetGrassServerNtNtB6_3rpc13SweetGrassRpc12query_braids
FNDA:1,_RNvXs_NtCsZK8v8cnrxE_19sweet_grass_service6serverNtB4_16SweetGrassServerNtNtB6_3rpc13SweetGrassRpc15braids_by_agent
FNDA:1,_RNvXs_NtCsZK8v8cnrxE_19sweet_grass_service6serverNtB4_16SweetGrassServerNtNtB6_3rpc13SweetGrassRpc16compress_session
FNDA:1,_RNvXs_NtCsZK8v8cnrxE_19sweet_grass_service6serverNtB4_16SweetGrassServerNtNtB6_3rpc13SweetGrassRpc16provenance_graph
FNDA:2,_RNvXs_NtCsZK8v8cnrxE_19sweet_grass_service6serverNtB4_16SweetGrassServerNtNtB6_3rpc13SweetGrassRpc17attribution_chain
FNDA:2,_RNvXs_NtCsZK8v8cnrxE_19sweet_grass_service6serverNtB4_16SweetGrassServerNtNtB6_3rpc13SweetGrassRpc17calculate_rewards
FNDA:1,_RNvXs_NtCsZK8v8cnrxE_19sweet_grass_service6serverNtB4_16SweetGrassServerNtNtB6_3rpc13SweetGrassRpc17create_meta_braid
FNDA:2,_RNvXs_NtCsZK8v8cnrxE_19sweet_grass_service6serverNtB4_16SweetGrassServerNtNtB6_3rpc13SweetGrassRpc17get_braid_by_hash
FNDA:1,_RNvXs_NtCsZK8v8cnrxE_19sweet_grass_service6serverNtB4_16SweetGrassServerNtNtB6_3rpc13SweetGrassRpc19agent_contributions
FNDA:1,_RNvXs_NtCsZK8v8cnrxE_19sweet_grass_service6serverNtB4_16SweetGrassServerNtNtB6_3rpc13SweetGrassRpc6status
FNDA:3,_RNvXs_NtCsZK8v8cnrxE_19sweet_grass_service6serverNtB4_16SweetGrassServerNtNtB6_3rpc13SweetGrassRpc9get_braid
FNDA:0,_RNCNCNCNvXs_NtCsZK8v8cnrxE_19sweet_grass_service6serverNtBa_16SweetGrassServerNtNtBc_3rpc13SweetGrassRpc12create_braid000Bc_
FNDA:0,_RNCNCNCNvXs_NtCsZK8v8cnrxE_19sweet_grass_service6serverNtBa_16SweetGrassServerNtNtBc_3rpc13SweetGrassRpc12create_braid00s_0Bc_
FNDA:1,_RNCNCNCNvXs_NtCsZK8v8cnrxE_19sweet_grass_service6serverNtBa_16SweetGrassServerNtNtBc_3rpc13SweetGrassRpc12delete_braid000Bc_
FNDA:0,_RNCNCNCNvXs_NtCsZK8v8cnrxE_19sweet_grass_service6serverNtBa_16SweetGrassServerNtNtBc_3rpc13SweetGrassRpc12delete_braid00s_0Bc_
FNDA:0,_RNCNCNCNvXs_NtCsZK8v8cnrxE_19sweet_grass_service6serverNtBa_16SweetGrassServerNtNtBc_3rpc13SweetGrassRpc12export_provo000Bc_
FNDA:0,_RNCNCNCNvXs_NtCsZK8v8cnrxE_19sweet_grass_service6serverNtBa_16SweetGrassServerNtNtBc_3rpc13SweetGrassRpc12export_provo00s0_0Bc_
FNDA:1,_RNCNCNCNvXs_NtCsZK8v8cnrxE_19sweet_grass_service6serverNtBa_16SweetGrassServerNtNtBc_3rpc13SweetGrassRpc12export_provo00s_0Bc_
FNDA:0,_RNCNCNCNvXs_NtCsZK8v8cnrxE_19sweet_grass_service6serverNtBa_16SweetGrassServerNtNtBc_3rpc13SweetGrassRpc12query_braids000Bc_
FNDA:0,_RNCNCNCNvXs_NtCsZK8v8cnrxE_19sweet_grass_service6serverNtBa_16SweetGrassServerNtNtBc_3rpc13SweetGrassRpc15braids_by_agent000Bc_
FNDA:0,_RNCNCNCNvXs_NtCsZK8v8cnrxE_19sweet_grass_service6serverNtBa_16SweetGrassServerNtNtBc_3rpc13SweetGrassRpc16compress_session000Bc_
FNDA:0,_RNCNCNCNvXs_NtCsZK8v8cnrxE_19sweet_grass_service6serverNtBa_16SweetGrassServerNtNtBc_3rpc13SweetGrassRpc16provenance_graph000Bc_
FNDA:0,_RNCNCNCNvXs_NtCsZK8v8cnrxE_19sweet_grass_service6serverNtBa_16SweetGrassServerNtNtBc_3rpc13SweetGrassRpc17attribution_chain000Bc_
FNDA:1,_RNCNCNCNvXs_NtCsZK8v8cnrxE_19sweet_grass_service6serverNtBa_16SweetGrassServerNtNtBc_3rpc13SweetGrassRpc17attribution_chain00s_0Bc_
FNDA:0,_RNCNCNCNvXs_NtCsZK8v8cnrxE_19sweet_grass_service6serverNtBa_16SweetGrassServerNtNtBc_3rpc13SweetGrassRpc17calculate_rewards000Bc_
FNDA:1,_RNCNCNCNvXs_NtCsZK8v8cnrxE_19sweet_grass_service6serverNtBa_16SweetGrassServerNtNtBc_3rpc13SweetGrassRpc17calculate_rewards00s0_0Bc_
FNDA:1,_RNCNCNCNvXs_NtCsZK8v8cnrxE_19sweet_grass_service6serverNtBa_16SweetGrassServerNtNtBc_3rpc13SweetGrassRpc17calculate_rewards00s_0Bc_
FNDA:0,_RNCNCNCNvXs_NtCsZK8v8cnrxE_19sweet_grass_service6serverNtBa_16SweetGrassServerNtNtBc_3rpc13SweetGrassRpc17create_meta_braid000Bc_
FNDA:0,_RNCNCNCNvXs_NtCsZK8v8cnrxE_19sweet_grass_service6serverNtBa_16SweetGrassServerNtNtBc_3rpc13SweetGrassRpc17create_meta_braid00s_0Bc_
FNDA:0,_RNCNCNCNvXs_NtCsZK8v8cnrxE_19sweet_grass_service6serverNtBa_16SweetGrassServerNtNtBc_3rpc13SweetGrassRpc17get_braid_by_hash000Bc_
FNDA:0,_RNCNCNCNvXs_NtCsZK8v8cnrxE_19sweet_grass_service6serverNtBa_16SweetGrassServerNtNtBc_3rpc13SweetGrassRpc19agent_contributions000Bc_
FNDA:2,_RNCNCNCNvXs_NtCsZK8v8cnrxE_19sweet_grass_service6serverNtBa_16SweetGrassServerNtNtBc_3rpc13SweetGrassRpc19agent_contributions00s0_0Bc_
FNDA:0,_RNCNCNCNvXs_NtCsZK8v8cnrxE_19sweet_grass_service6serverNtBa_16SweetGrassServerNtNtBc_3rpc13SweetGrassRpc19agent_contributions00s_0Bc_
FNDA:0,_RNCNCNCNvXs_NtCsZK8v8cnrxE_19sweet_grass_service6serverNtBa_16SweetGrassServerNtNtBc_3rpc13SweetGrassRpc9get_braid000Bc_
FNDA:0,_RNCNCNvXs_NtCsZK8v8cnrxE_19sweet_grass_service6serverNtB8_16SweetGrassServerNtNtBa_3rpc13SweetGrassRpc12health_check00Ba_
FNDA:0,_RNCNCNvXs_NtCsZK8v8cnrxE_19sweet_grass_service6serverNtB8_16SweetGrassServerNtNtBa_3rpc13SweetGrassRpc6status00Ba_
FNDA:15,_RNCNvXs_NtCsZK8v8cnrxE_19sweet_grass_service6serverNtB6_16SweetGrassServerNtNtB8_3rpc13SweetGrassRpc12create_braid0B8_
FNDA:1,_RNCNvXs_NtCsZK8v8cnrxE_19sweet_grass_service6serverNtB6_16SweetGrassServerNtNtB8_3rpc13SweetGrassRpc12delete_braid0B8_
FNDA:2,_RNCNvXs_NtCsZK8v8cnrxE_19sweet_grass_service6serverNtB6_16SweetGrassServerNtNtB8_3rpc13SweetGrassRpc12export_provo0B8_
FNDA:1,_RNCNvXs_NtCsZK8v8cnrxE_19sweet_grass_service6serverNtB6_16SweetGrassServerNtNtB8_3rpc13SweetGrassRpc12health_check0B8_
FNDA:2,_RNCNvXs_NtCsZK8v8cnrxE_19sweet_grass_service6serverNtB6_16SweetGrassServerNtNtB8_3rpc13SweetGrassRpc12query_braids0B8_
FNDA:1,_RNCNvXs_NtCsZK8v8cnrxE_19sweet_grass_service6serverNtB6_16SweetGrassServerNtNtB8_3rpc13SweetGrassRpc15braids_by_agent0B8_
FNDA:1,_RNCNvXs_NtCsZK8v8cnrxE_19sweet_grass_service6serverNtB6_16SweetGrassServerNtNtB8_3rpc13SweetGrassRpc16compress_session0B8_
FNDA:1,_RNCNvXs_NtCsZK8v8cnrxE_19sweet_grass_service6serverNtB6_16SweetGrassServerNtNtB8_3rpc13SweetGrassRpc16provenance_graph0B8_
FNDA:2,_RNCNvXs_NtCsZK8v8cnrxE_19sweet_grass_service6serverNtB6_16SweetGrassServerNtNtB8_3rpc13SweetGrassRpc17attribution_chain0B8_
FNDA:2,_RNCNvXs_NtCsZK8v8cnrxE_19sweet_grass_service6serverNtB6_16SweetGrassServerNtNtB8_3rpc13SweetGrassRpc17calculate_rewards0B8_
FNDA:1,_RNCNvXs_NtCsZK8v8cnrxE_19sweet_grass_service6serverNtB6_16SweetGrassServerNtNtB8_3rpc13SweetGrassRpc17create_meta_braid0B8_
FNDA:2,_RNCNvXs_NtCsZK8v8cnrxE_19sweet_grass_service6serverNtB6_16SweetGrassServerNtNtB8_3rpc13SweetGrassRpc17get_braid_by_hash0B8_
FNDA:1,_RNCNvXs_NtCsZK8v8cnrxE_19sweet_grass_service6serverNtB6_16SweetGrassServerNtNtB8_3rpc13SweetGrassRpc19agent_contributions0B8_
FNDA:1,_RNCNvXs_NtCsZK8v8cnrxE_19sweet_grass_service6serverNtB6_16SweetGrassServerNtNtB8_3rpc13SweetGrassRpc6status0B8_
FNDA:3,_RNCNvXs_NtCsZK8v8cnrxE_19sweet_grass_service6serverNtB6_16SweetGrassServerNtNtB8_3rpc13SweetGrassRpc9get_braid0B8_
FNDA:1,_RNCNCNvNtNtCsZK8v8cnrxE_19sweet_grass_service6server5testss_22test_calculate_rewards00B9_
FNDA:14,_RNCNvNtNtCsZK8v8cnrxE_19sweet_grass_service6server5tests17create_test_braid0B7_
FNDA:1,_RNCNvNtNtCsZK8v8cnrxE_19sweet_grass_service6server5testss_11test_status0B7_
FNDA:1,_RNCNvNtNtCsZK8v8cnrxE_19sweet_grass_service6server5testss_17test_delete_braid0B7_
FNDA:1,_RNCNvNtNtCsZK8v8cnrxE_19sweet_grass_service6server5testss_17test_export_provo0B7_
FNDA:1,_RNCNvNtNtCsZK8v8cnrxE_19sweet_grass_service6server5testss_17test_health_check0B7_
FNDA:1,_RNCNvNtNtCsZK8v8cnrxE_19sweet_grass_service6server5testss_17test_query_braids0B7_
FNDA:1,_RNCNvNtNtCsZK8v8cnrxE_19sweet_grass_service6server5testss_20test_braids_by_agent0B7_
FNDA:1,_RNCNvNtNtCsZK8v8cnrxE_19sweet_grass_service6server5testss_21test_compress_session0B7_
FNDA:1,_RNCNvNtNtCsZK8v8cnrxE_19sweet_grass_service6server5testss_21test_provenance_graph0B7_
FNDA:1,_RNCNvNtNtCsZK8v8cnrxE_19sweet_grass_service6server5testss_22test_attribution_chain0B7_
FNDA:1,_RNCNvNtNtCsZK8v8cnrxE_19sweet_grass_service6server5testss_22test_calculate_rewards0B7_
FNDA:1,_RNCNvNtNtCsZK8v8cnrxE_19sweet_grass_service6server5testss_22test_create_meta_braid0B7_
FNDA:1,_RNCNvNtNtCsZK8v8cnrxE_19sweet_grass_service6server5testss_22test_get_braid_by_hash0B7_
FNDA:1,_RNCNvNtNtCsZK8v8cnrxE_19sweet_grass_service6server5testss_24test_agent_contributions0B7_
FNDA:1,_RNCNvNtNtCsZK8v8cnrxE_19sweet_grass_service6server5testss_24test_get_braid_not_found0B7_
FNDA:1,_RNCNvNtNtCsZK8v8cnrxE_19sweet_grass_service6server5testss_25test_create_and_get_braid0B7_
FNDA:1,_RNCNvNtNtCsZK8v8cnrxE_19sweet_grass_service6server5testss_27test_export_provo_not_found0B7_
FNDA:1,_RNCNvNtNtCsZK8v8cnrxE_19sweet_grass_service6server5testss_29test_query_braids_with_filter0B7_
FNDA:1,_RNCNvNtNtCsZK8v8cnrxE_19sweet_grass_service6server5testss_32test_attribution_chain_not_found0B7_
FNDA:1,_RNCNvNtNtCsZK8v8cnrxE_19sweet_grass_service6server5testss_32test_calculate_rewards_not_found0B7_
FNDA:1,_RNCNvNtNtCsZK8v8cnrxE_19sweet_grass_service6server5testss_32test_get_braid_by_hash_not_found0B7_
FNF:104
FNH:81
DA:46,20
DA:47,20
DA:48,20
DA:49,20
DA:50,20
DA:51,20
DA:52,20
DA:53,20
DA:54,20
DA:55,20
DA:56,20
DA:57,20
DA:58,20
DA:59,20
DA:60,20
DA:61,20
DA:66,15
DA:67,15
DA:68,15
DA:69,15
DA:70,15
DA:79,0
DA:84,0
DA:88,15
DA:91,3
DA:95,0
DA:96,3
DA:99,2
DA:100,2
DA:101,2
DA:102,2
DA:103,2
DA:107,0
DA:108,2
DA:111,2
DA:112,2
DA:113,2
DA:114,2
DA:115,2
DA:116,2
DA:120,0
DA:121,2
DA:124,1
DA:128,1
DA:129,0
DA:130,1
DA:133,1
DA:134,1
DA:135,1
DA:136,1
DA:137,1
DA:138,1
DA:139,1
DA:148,0
DA:149,1
DA:152,2
DA:153,2
DA:154,2
DA:155,2
DA:156,2
DA:157,2
DA:162,0
DA:163,1
DA:170,2
DA:173,2
DA:174,2
DA:175,2
DA:176,2
DA:177,2
DA:178,2
DA:183,0
DA:184,1
DA:191,1
DA:192,1
DA:193,1
DA:194,1
DA:195,1
DA:196,1
DA:200,2
DA:203,1
DA:204,1
DA:205,1
DA:206,1
DA:207,1
DA:208,1
DA:213,0
DA:216,1
DA:219,0
DA:226,2
DA:243,1
DA:246,1
DA:250,0
DA:251,1
DA:254,1
DA:255,1
DA:256,1
DA:257,1
DA:258,1
DA:261,0
DA:262,1
DA:265,1
DA:266,1
DA:267,1
DA:268,1
DA:269,1
DA:270,1
DA:274,0
DA:279,0
DA:282,1
DA:285,2
DA:286,2
DA:287,2
DA:288,2
DA:289,2
DA:294,0
DA:295,1
DA:301,0
DA:310,2
DA:312,1
DA:313,1
DA:314,1
DA:315,1
DA:316,1
DA:317,1
DA:319,1
DA:320,1
DA:321,1
DA:322,1
DA:323,1
DA:324,1
DA:325,1
DA:327,1
DA:328,1
DA:329,1
DA:330,1
DA:331,1
DA:332,1
DA:334,1
DA:335,1
DA:336,1
DA:337,1
DA:338,1
DA:339,1
DA:340,1
DA:341,1
DA:345,0
DA:346,0
DA:347,0
DA:348,0
DA:349,0
DA:351,0
DA:354,0
DA:356,0
DA:357,0
DA:358,0
DA:359,0
DA:360,0
DA:361,0
DA:362,0
DA:363,0
DA:364,0
DA:365,0
DA:366,0
DA:371,0
DA:372,0
DA:387,20
DA:388,20
DA:389,20
DA:390,20
DA:391,20
DA:392,20
DA:393,20
DA:394,20
DA:395,20
DA:396,20
DA:401,14
DA:402,14
DA:403,14
DA:404,14
DA:405,14
DA:406,14
DA:407,14
DA:408,14
DA:409,14
DA:410,14
DA:411,14
DA:412,14
DA:413,14
DA:414,14
DA:415,14
DA:416,14
DA:417,14
DA:420,1
DA:421,1
DA:422,1
DA:423,1
DA:424,1
DA:425,1
DA:428,1
DA:429,1
DA:430,1
DA:431,1
DA:432,1
DA:433,1
DA:434,1
DA:437,1
DA:438,1
DA:439,1
DA:440,1
DA:441,1
DA:442,1
DA:443,1
DA:444,1
DA:445,1
DA:446,1
DA:447,1
DA:448,1
DA:449,1
DA:450,1
DA:451,1
DA:452,1
DA:453,1
DA:454,1
DA:455,1
DA:456,1
DA:457,1
DA:458,1
DA:459,1
DA:460,1
DA:461,1
DA:462,1
DA:463,1
DA:464,1
DA:465,1
DA:468,1
DA:469,1
DA:470,1
DA:471,1
DA:472,1
DA:473,1
DA:474,1
DA:475,1
DA:478,1
DA:479,1
DA:480,1
DA:481,1
DA:482,1
DA:483,1
DA:484,1
DA:485,1
DA:486,1
DA:487,1
DA:488,1
DA:489,1
DA:490,1
DA:493,1
DA:494,1
DA:495,1
DA:496,1
DA:497,1
DA:498,1
DA:499,1
DA:500,1
DA:503,1
DA:504,1
DA:505,1
DA:506,1
DA:507,1
DA:508,1
DA:509,1
DA:510,1
DA:511,1
DA:512,1
DA:513,1
DA:514,1
DA:515,1
DA:516,1
DA:517,1
DA:518,1
DA:519,1
DA:522,1
DA:523,1
DA:524,1
DA:525,1
DA:526,1
DA:527,1
DA:528,1
DA:529,1
DA:530,1
DA:531,1
DA:532,1
DA:533,1
DA:536,1
DA:537,1
DA:538,1
DA:539,1
DA:540,1
DA:541,1
DA:542,1
DA:543,1
DA:544,1
DA:545,1
DA:546,1
DA:547,1
DA:548,1
DA:549,1
DA:550,1
DA:551,1
DA:552,1
DA:553,1
DA:556,1
DA:557,1
DA:558,1
DA:559,1
DA:560,1
DA:561,1
DA:562,1
DA:563,1
DA:564,1
DA:565,1
DA:566,1
DA:567,1
DA:570,1
DA:571,1
DA:572,1
DA:573,1
DA:574,1
DA:575,1
DA:576,1
DA:577,1
DA:578,1
DA:579,1
DA:580,1
DA:581,1
DA:582,1
DA:583,1
DA:584,1
DA:585,1
DA:588,1
DA:589,1
DA:590,1
DA:591,1
DA:592,1
DA:593,1
DA:594,1
DA:595,1
DA:596,1
DA:597,1
DA:598,1
DA:599,1
DA:600,1
DA:603,1
DA:604,1
DA:605,1
DA:606,1
DA:607,1
DA:608,1
DA:609,1
DA:610,1
DA:611,1
DA:612,1
DA:613,1
DA:614,1
DA:615,1
DA:616,1
DA:617,1
DA:620,1
DA:621,1
DA:622,1
DA:623,1
DA:624,1
DA:625,1
DA:626,1
DA:627,1
DA:628,1
DA:631,1
DA:632,1
DA:633,1
DA:634,1
DA:635,1
DA:636,1
DA:637,1
DA:638,1
DA:639,1
DA:640,1
DA:641,1
DA:642,1
DA:643,1
DA:644,1
DA:645,1
DA:648,1
DA:649,1
DA:650,1
DA:651,1
DA:652,1
DA:653,1
DA:654,1
DA:655,1
DA:656,1
DA:657,1
DA:658,1
DA:659,1
DA:660,1
DA:661,1
DA:662,1
DA:663,1
DA:664,1
DA:665,1
DA:666,1
DA:667,1
DA:668,1
DA:669,1
DA:670,1
DA:671,1
DA:674,1
DA:675,1
DA:676,1
DA:677,1
DA:678,1
DA:679,1
DA:680,1
DA:681,1
DA:682,1
DA:683,1
DA:684,1
DA:685,1
DA:686,1
DA:687,1
DA:688,1
DA:689,1
DA:690,1
DA:691,1
DA:692,1
DA:693,1
DA:694,1
DA:697,1
DA:698,1
DA:699,1
DA:700,1
DA:701,1
DA:702,1
DA:703,1
DA:704,1
DA:705,1
DA:706,1
DA:707,1
DA:708,1
DA:711,1
DA:712,1
DA:713,1
DA:714,1
DA:715,1
DA:716,1
DA:717,1
DA:718,1
DA:719,1
DA:720,1
DA:721,1
DA:722,1
DA:725,1
DA:726,1
DA:727,1
DA:728,1
DA:729,1
DA:730,1
DA:731,1
DA:732,1
DA:733,1
BRF:0
BRH:0
LF:723
LH:680
end_of_record
SF:/home/strandgate/Development/ecoPrimals/phase2/sweetGrass/crates/sweet-grass-service/src/state.rs
FN:38,_RNvMNtCsdjAd9q7fPo9_19sweet_grass_service5stateNtB2_8AppState10new_memory
FN:56,_RNvMNtCsdjAd9q7fPo9_19sweet_grass_service5stateNtB2_8AppState10with_store
FN:73,_RINvMNtCsdjAd9q7fPo9_19sweet_grass_service5stateNtB3_8AppState19with_self_knowledgepEB5_
FN:120,_RNvNtNtCsZK8v8cnrxE_19sweet_grass_service5state5testss_20test_app_state_clone
FN:99,_RNvNtNtCsZK8v8cnrxE_19sweet_grass_service5state5testss_25test_app_state_new_memory
FN:110,_RNvNtNtCsZK8v8cnrxE_19sweet_grass_service5state5testss_25test_app_state_with_store
FN:38,_RNvMNtCsZK8v8cnrxE_19sweet_grass_service5stateNtB2_8AppState10new_memory
FN:56,_RNvMNtCsZK8v8cnrxE_19sweet_grass_service5stateNtB2_8AppState10with_store
FN:73,_RINvMNtCsZK8v8cnrxE_19sweet_grass_service5stateNtB3_8AppState19with_self_knowledgeReEB5_
FNDA:0,_RNvMNtCsdjAd9q7fPo9_19sweet_grass_service5stateNtB2_8AppState10new_memory
FNDA:0,_RNvMNtCsdjAd9q7fPo9_19sweet_grass_service5stateNtB2_8AppState10with_store
FNDA:0,_RINvMNtCsdjAd9q7fPo9_19sweet_grass_service5stateNtB3_8AppState19with_self_knowledgepEB5_
FNDA:1,_RNvNtNtCsZK8v8cnrxE_19sweet_grass_service5state5testss_20test_app_state_clone
FNDA:1,_RNvNtNtCsZK8v8cnrxE_19sweet_grass_service5state5testss_25test_app_state_new_memory
FNDA:1,_RNvNtNtCsZK8v8cnrxE_19sweet_grass_service5state5testss_25test_app_state_with_store
FNDA:36,_RNvMNtCsZK8v8cnrxE_19sweet_grass_service5stateNtB2_8AppState10new_memory
FNDA:2,_RNvMNtCsZK8v8cnrxE_19sweet_grass_service5stateNtB2_8AppState10with_store
FNDA:2,_RINvMNtCsZK8v8cnrxE_19sweet_grass_service5stateNtB3_8AppState19with_self_knowledgeReEB5_
FNF:6
FNH:6
DA:38,36
DA:39,36
DA:40,36
DA:41,36
DA:42,36
DA:43,36
DA:44,36
DA:45,36
DA:46,36
DA:47,36
DA:48,36
DA:49,36
DA:50,36
DA:51,36
DA:52,36
DA:56,2
DA:57,2
DA:58,2
DA:59,2
DA:60,2
DA:61,2
DA:62,2
DA:63,2
DA:64,2
DA:65,2
DA:66,2
DA:67,2
DA:68,2
DA:69,2
DA:73,2
DA:74,2
DA:75,2
DA:76,2
DA:77,2
DA:78,2
DA:79,2
DA:80,2
DA:81,2
DA:82,2
DA:83,2
DA:84,2
DA:85,2
DA:86,2
DA:87,2
DA:88,2
DA:89,2
DA:90,2
DA:91,2
DA:99,1
DA:100,1
DA:101,1
DA:102,1
DA:103,1
DA:104,1
DA:105,1
DA:106,1
DA:107,1
DA:110,1
DA:111,1
DA:112,1
DA:113,1
DA:114,1
DA:115,1
DA:116,1
DA:117,1
DA:120,1
DA:121,1
DA:122,1
DA:123,1
DA:124,1
DA:125,1
DA:126,1
DA:127,1
DA:128,1
DA:129,1
DA:130,1
DA:131,1
DA:132,1
BRF:0
BRH:0
LF:78
LH:78
end_of_record
SF:/home/strandgate/Development/ecoPrimals/phase2/sweetGrass/crates/sweet-grass-store-postgres/src/error.rs
FN:45,_RNvXNtCs7hxHRAYyWAP_26sweet_grass_store_postgres5errorNtB2_13PostgresErrorINtNtCs9sjCchOt1K7_4core7convert4FromNtNtCs6bv6IL5gTKH_9sqlx_core5error5ErrorE4from
FN:72,_RNvXs0_NtCs7hxHRAYyWAP_26sweet_grass_store_postgres5errorNtB5_13PostgresErrorINtNtCs9sjCchOt1K7_4core7convert4FromNtNtCs98BKYEhbmrI_10serde_json5error5ErrorE4from
FN:66,_RNvXs_NtCs7hxHRAYyWAP_26sweet_grass_store_postgres5errorNtB4_13PostgresErrorINtNtCs9sjCchOt1K7_4core7convert4FromNtNtNtCs6bv6IL5gTKH_9sqlx_core7migrate5error12MigrateErrorE4from
FN:78,_RNvXs1_NtCs7hxHRAYyWAP_26sweet_grass_store_postgres5errorNtNtCs2FFtPGuLFca_17sweet_grass_store5error10StoreErrorINtNtCs9sjCchOt1K7_4core7convert4FromNtB5_13PostgresErrorE4from
FN:45,_RNvXNtCsdLFlErXhO3F_26sweet_grass_store_postgres5errorNtB2_13PostgresErrorINtNtCs9sjCchOt1K7_4core7convert4FromNtNtCs6bv6IL5gTKH_9sqlx_core5error5ErrorE4from
FN:66,_RNvXs_NtCsdLFlErXhO3F_26sweet_grass_store_postgres5errorNtB4_13PostgresErrorINtNtCs9sjCchOt1K7_4core7convert4FromNtNtNtCs6bv6IL5gTKH_9sqlx_core7migrate5error12MigrateErrorE4from
FN:78,_RNvXs1_NtCsdLFlErXhO3F_26sweet_grass_store_postgres5errorNtNtCs2FFtPGuLFca_17sweet_grass_store5error10StoreErrorINtNtCs9sjCchOt1K7_4core7convert4FromNtB5_13PostgresErrorE4from
FN:72,_RNvXs0_NtCsdLFlErXhO3F_26sweet_grass_store_postgres5errorNtB5_13PostgresErrorINtNtCs9sjCchOt1K7_4core7convert4FromNtNtCs98BKYEhbmrI_10serde_json5error5ErrorE4from
FN:150,_RNvNtNtCsdLFlErXhO3F_26sweet_grass_store_postgres5error5testss_26test_from_serde_json_error
FN:93,_RNvNtNtCsdLFlErXhO3F_26sweet_grass_store_postgres5error5testss_27test_postgres_error_display
FN:140,_RNvNtNtCsdLFlErXhO3F_26sweet_grass_store_postgres5error5testss_43test_postgres_error_to_store_error_internal
FN:120,_RNvNtNtCsdLFlErXhO3F_26sweet_grass_store_postgres5error5testss_44test_postgres_error_to_store_error_not_found
FN:130,_RNvNtNtCsdLFlErXhO3F_26sweet_grass_store_postgres5error5testss_45test_postgres_error_to_store_error_constraint
FNDA:0,_RNvXNtCs7hxHRAYyWAP_26sweet_grass_store_postgres5errorNtB2_13PostgresErrorINtNtCs9sjCchOt1K7_4core7convert4FromNtNtCs6bv6IL5gTKH_9sqlx_core5error5ErrorE4from
FNDA:0,_RNvXs0_NtCs7hxHRAYyWAP_26sweet_grass_store_postgres5errorNtB5_13PostgresErrorINtNtCs9sjCchOt1K7_4core7convert4FromNtNtCs98BKYEhbmrI_10serde_json5error5ErrorE4from
FNDA:0,_RNvXs_NtCs7hxHRAYyWAP_26sweet_grass_store_postgres5errorNtB4_13PostgresErrorINtNtCs9sjCchOt1K7_4core7convert4FromNtNtNtCs6bv6IL5gTKH_9sqlx_core7migrate5error12MigrateErrorE4from
FNDA:0,_RNvXs1_NtCs7hxHRAYyWAP_26sweet_grass_store_postgres5errorNtNtCs2FFtPGuLFca_17sweet_grass_store5error10StoreErrorINtNtCs9sjCchOt1K7_4core7convert4FromNtB5_13PostgresErrorE4from
FNDA:0,_RNvXNtCsdLFlErXhO3F_26sweet_grass_store_postgres5errorNtB2_13PostgresErrorINtNtCs9sjCchOt1K7_4core7convert4FromNtNtCs6bv6IL5gTKH_9sqlx_core5error5ErrorE4from
FNDA:0,_RNvXs_NtCsdLFlErXhO3F_26sweet_grass_store_postgres5errorNtB4_13PostgresErrorINtNtCs9sjCchOt1K7_4core7convert4FromNtNtNtCs6bv6IL5gTKH_9sqlx_core7migrate5error12MigrateErrorE4from
FNDA:3,_RNvXs1_NtCsdLFlErXhO3F_26sweet_grass_store_postgres5errorNtNtCs2FFtPGuLFca_17sweet_grass_store5error10StoreErrorINtNtCs9sjCchOt1K7_4core7convert4FromNtB5_13PostgresErrorE4from
FNDA:1,_RNvXs0_NtCsdLFlErXhO3F_26sweet_grass_store_postgres5errorNtB5_13PostgresErrorINtNtCs9sjCchOt1K7_4core7convert4FromNtNtCs98BKYEhbmrI_10serde_json5error5ErrorE4from
FNDA:1,_RNvNtNtCsdLFlErXhO3F_26sweet_grass_store_postgres5error5testss_26test_from_serde_json_error
FNDA:1,_RNvNtNtCsdLFlErXhO3F_26sweet_grass_store_postgres5error5testss_27test_postgres_error_display
FNDA:1,_RNvNtNtCsdLFlErXhO3F_26sweet_grass_store_postgres5error5testss_43test_postgres_error_to_store_error_internal
FNDA:1,_RNvNtNtCsdLFlErXhO3F_26sweet_grass_store_postgres5error5testss_44test_postgres_error_to_store_error_not_found
FNDA:1,_RNvNtNtCsdLFlErXhO3F_26sweet_grass_store_postgres5error5testss_45test_postgres_error_to_store_error_constraint
FNF:9
FNH:7
DA:45,0
DA:46,0
DA:47,0
DA:48,0
DA:49,0
DA:51,0
DA:52,0
DA:53,0
DA:54,0
DA:55,0
DA:57,0
DA:58,0
DA:59,0
DA:60,0
DA:62,0
DA:66,0
DA:67,0
DA:68,0
DA:72,1
DA:73,1
DA:74,1
DA:78,3
DA:79,3
DA:80,1
DA:81,1
DA:82,1
DA:84,3
DA:93,1
DA:94,1
DA:95,1
DA:97,1
DA:98,1
DA:100,1
DA:101,1
DA:103,1
DA:104,1
DA:106,1
DA:107,1
DA:109,1
DA:110,1
DA:112,1
DA:113,1
DA:115,1
DA:116,1
DA:117,1
DA:120,1
DA:121,1
DA:122,1
DA:123,1
DA:124,1
DA:127,1
DA:130,1
DA:131,1
DA:132,1
DA:133,1
DA:134,1
DA:137,1
DA:140,1
DA:141,1
DA:142,1
DA:143,1
DA:144,1
DA:147,1
DA:150,1
DA:151,1
DA:152,1
DA:153,1
DA:154,1
BRF:0
BRH:0
LF:68
LH:50
end_of_record
SF:/home/strandgate/Development/ecoPrimals/phase2/sweetGrass/crates/sweet-grass-store-postgres/src/lib.rs
FN:78,_RINvMs_Cs7hxHRAYyWAP_26sweet_grass_store_postgresNtB5_14PostgresConfig3newRNtNtCs6bBekJvxEMJ_5alloc6string6StringECscy77UfsAwxJ_11integration
FN:78,_RINvMs_Cs7hxHRAYyWAP_26sweet_grass_store_postgresNtB5_14PostgresConfig3newNtNtCs6bBekJvxEMJ_5alloc6string6StringEB5_
FN:66,_RNCNvXCs7hxHRAYyWAP_26sweet_grass_store_postgresNtB4_14PostgresConfigNtNtCs9sjCchOt1K7_4core7default7Default7default0B4_
FN:96,_RNvMs_Cs7hxHRAYyWAP_26sweet_grass_store_postgresNtB4_14PostgresConfig15max_connections
FN:103,_RNvMs_Cs7hxHRAYyWAP_26sweet_grass_store_postgresNtB4_14PostgresConfig15min_connections
FN:90,_RNvMs_Cs7hxHRAYyWAP_26sweet_grass_store_postgresNtB4_14PostgresConfig8from_env
FN:62,_RNvXCs7hxHRAYyWAP_26sweet_grass_store_postgresNtB2_14PostgresConfigNtNtCs9sjCchOt1K7_4core7default7Default7default
FN:78,_RINvMs_Cs7hxHRAYyWAP_26sweet_grass_store_postgresNtB5_14PostgresConfig3newRNtNtCs6bBekJvxEMJ_5alloc6string6StringECsdjAd9q7fPo9_19sweet_grass_service
FN:78,_RINvMs_Cs7hxHRAYyWAP_26sweet_grass_store_postgresNtB5_14PostgresConfig3newRNtNtCs6bBekJvxEMJ_5alloc6string6StringECsZK8v8cnrxE_19sweet_grass_service
FN:78,_RINvMs_CsdLFlErXhO3F_26sweet_grass_store_postgresNtB5_14PostgresConfig3newNtNtCs6bBekJvxEMJ_5alloc6string6StringEB5_
FN:78,_RINvMs_CsdLFlErXhO3F_26sweet_grass_store_postgresNtB5_14PostgresConfig3newReEB5_
FN:66,_RNCNvXCsdLFlErXhO3F_26sweet_grass_store_postgresNtB4_14PostgresConfigNtNtCs9sjCchOt1K7_4core7default7Default7default0B4_
FN:96,_RNvMs_CsdLFlErXhO3F_26sweet_grass_store_postgresNtB4_14PostgresConfig15max_connections
FN:103,_RNvMs_CsdLFlErXhO3F_26sweet_grass_store_postgresNtB4_14PostgresConfig15min_connections
FN:90,_RNvMs_CsdLFlErXhO3F_26sweet_grass_store_postgresNtB4_14PostgresConfig8from_env
FN:62,_RNvXCsdLFlErXhO3F_26sweet_grass_store_postgresNtB2_14PostgresConfigNtNtCs9sjCchOt1K7_4core7default7Default7default
FNDA:0,_RINvMs_Cs7hxHRAYyWAP_26sweet_grass_store_postgresNtB5_14PostgresConfig3newRNtNtCs6bBekJvxEMJ_5alloc6string6StringECscy77UfsAwxJ_11integration
FNDA:0,_RINvMs_Cs7hxHRAYyWAP_26sweet_grass_store_postgresNtB5_14PostgresConfig3newNtNtCs6bBekJvxEMJ_5alloc6string6StringEB5_
FNDA:1,_RNCNvXCs7hxHRAYyWAP_26sweet_grass_store_postgresNtB4_14PostgresConfigNtNtCs9sjCchOt1K7_4core7default7Default7default0B4_
FNDA:4,_RNvMs_Cs7hxHRAYyWAP_26sweet_grass_store_postgresNtB4_14PostgresConfig15max_connections
FNDA:1,_RNvMs_Cs7hxHRAYyWAP_26sweet_grass_store_postgresNtB4_14PostgresConfig15min_connections
FNDA:0,_RNvMs_Cs7hxHRAYyWAP_26sweet_grass_store_postgresNtB4_14PostgresConfig8from_env
FNDA:6,_RNvXCs7hxHRAYyWAP_26sweet_grass_store_postgresNtB2_14PostgresConfigNtNtCs9sjCchOt1K7_4core7default7Default7default
